 GameCode

 Timestamp is 58b95a9e (Fri Mar  3 17:29:26 2017)

 Preferred load address is 0000000180000000

 Start         Length     Name                   Class
 0001:00000000 00000627H .text                   CODE
 0001:00000630 00069b1aH .text$mn                CODE
 0001:0006a150 00000012H .text$mn$00             CODE
 0001:0006a170 00000859H .text$x                 CODE
 0002:00000000 00000278H .idata$5                DATA
 0002:00000278 00000010H .00cfg                  DATA
 0002:00000288 00000008H .CRT$XCA                DATA
 0002:00000290 00000008H .CRT$XCZ                DATA
 0002:00000298 00000008H .CRT$XIA                DATA
 0002:000002a0 00000018H .CRT$XIC                DATA
 0002:000002b8 00000008H .CRT$XIZ                DATA
 0002:000002c0 00000008H .CRT$XPA                DATA
 0002:000002c8 00000010H .CRT$XPX                DATA
 0002:000002d8 00000008H .CRT$XPXA               DATA
 0002:000002e0 00000008H .CRT$XPZ                DATA
 0002:000002e8 00000008H .CRT$XTA                DATA
 0002:000002f0 00000008H .CRT$XTZ                DATA
 0002:000002f8 00000000H .gfids$x                DATA
 0002:00000300 0001a714H .rdata                  DATA
 0002:0001aa18 0000016cH .rdata$r                DATA
 0002:0001ab88 00000010H .rdata$zETW0            DATA
 0002:0001ab98 00000077H .rdata$zETW1            DATA
 0002:0001ac0f 0000002cH .rdata$zETW2            DATA
 0002:0001ac3b 00000001H .rdata$zETW9            DATA
 0002:0001ac3c 0000035cH .rdata$zzzdbg           DATA
 0002:0001af98 00000008H .rtc$IAA                DATA
 0002:0001afa0 00000008H .rtc$IZZ                DATA
 0002:0001afa8 00000008H .rtc$TAA                DATA
 0002:0001afb0 00000008H .rtc$TZZ                DATA
 0002:0001afc0 00001cecH .xdata                  DATA
 0002:0001ccb0 00000084H .xdata$x                DATA
 0002:0001cd40 00000053H .edata                  DATA
 0002:0001cd94 00000028H .idata$2                DATA
 0002:0001cdbc 00000014H .idata$3                DATA
 0002:0001cdd0 00000278H .idata$4                DATA
 0002:0001d048 000005c6H .idata$6                DATA
 0003:00000000 00001260H .data                   DATA
 0003:00001260 0000006cH .data$r                 DATA
 0003:000012d0 000018c0H .bss                    DATA
 0004:00000000 00003e28H .pdata                  DATA

  Address         Publics by Value              Rva+Base               Lib:Object

 0000:00000000       __guard_fids_count         0000000000000000     <absolute>
 0000:00000000       ___safe_se_handler_count   0000000000000000     <absolute>
 0000:00000000       ___safe_se_handler_table   0000000000000000     <absolute>
 0000:00000000       __guard_fids_table         0000000000000000     <absolute>
 0000:00000100       __guard_flags              0000000000000100     <absolute>
 0000:00000000       __ImageBase                0000000180000000     <linker-defined>
 0001:00000000       ?TraceLoggingRegister@__vcrt_trace_logging_provider@@YAJPEBU_TlgProvider_t@1@PEBU_GUID@@P6AX1KE_K2PEAU_EVENT_FILTER_DESCRIPTOR@@PEAX@Z4@Z 0000000180001000 f i libvcruntimed:telemetry.obj
 0001:000000f0       ?TraceLoggingSetInformation@__vcrt_trace_logging_provider@@YAJPEBU_TlgProvider_t@1@W4_EVENT_INFO_CLASS@@PEAXK@Z 00000001800010f0 f i libvcruntimed:telemetry.obj
 0001:00000140       ?TraceLoggingUnregister@__vcrt_trace_logging_provider@@YAXPEBU_TlgProvider_t@1@@Z 0000000180001140 f i libvcruntimed:telemetry.obj
 0001:00000170       ?_TlgCreateSz@__vcrt_trace_logging_provider@@YAXPEAU_EVENT_DATA_DESCRIPTOR@@PEBD@Z 0000000180001170 f i libvcruntimed:telemetry.obj
 0001:000001e0       ?_TlgCreateWsz@__vcrt_trace_logging_provider@@YAXPEAU_EVENT_DATA_DESCRIPTOR@@PEB_W@Z 00000001800011e0 f i libvcruntimed:telemetry.obj
 0001:00000250       ?_TlgEnableCallback@__vcrt_trace_logging_provider@@YAXPEBU_GUID@@KE_K1PEAU_EVENT_FILTER_DESCRIPTOR@@PEAX@Z 0000000180001250 f i libvcruntimed:telemetry.obj
 0001:00000370       ?_TlgKeywordOn@__vcrt_trace_logging_provider@@YAEPEBU_TlgProvider_t@1@_K@Z 0000000180001370 f i libvcruntimed:telemetry.obj
 0001:000003e0       ?_TlgWrite@__vcrt_trace_logging_provider@@YAJPEBU_TlgProvider_t@1@PEFBXPEBU_GUID@@2IPEAU_EVENT_DATA_DESCRIPTOR@@@Z 00000001800013e0 f i libvcruntimed:telemetry.obj
 0001:00000630       ?c2CircletoCircle@@YAHUc2Circle@@0@Z 0000000180001630 f   gamecode.obj
 0001:000006e0       ?c2CircletoAABB@@YAHUc2Circle@@Uc2AABB@@@Z 00000001800016e0 f   gamecode.obj
 0001:000007a0       ?c2CircletoCapsule@@YAHUc2Circle@@Uc2Capsule@@@Z 00000001800017a0 f   gamecode.obj
 0001:00000990       ?c2AABBtoAABB@@YAHUc2AABB@@0@Z 0000000180001990 f   gamecode.obj
 0001:00000a90       ?c2AABBtoCapsule@@YAHUc2AABB@@Uc2Capsule@@@Z 0000000180001a90 f   gamecode.obj
 0001:00000b00       ?c2CapsuletoCapsule@@YAHUc2Capsule@@0@Z 0000000180001b00 f   gamecode.obj
 0001:00000b70       ?c2CircletoPoly@@YAHUc2Circle@@PEBUc2Poly@@PEBUc2x@@@Z 0000000180001b70 f   gamecode.obj
 0001:00000be0       ?c2AABBtoPoly@@YAHUc2AABB@@PEBUc2Poly@@PEBUc2x@@@Z 0000000180001be0 f   gamecode.obj
 0001:00000c60       ?c2CapsuletoPoly@@YAHUc2Capsule@@PEBUc2Poly@@PEBUc2x@@@Z 0000000180001c60 f   gamecode.obj
 0001:00000ce0       ?c2PolytoPoly@@YAHPEBUc2Poly@@PEBUc2x@@01@Z 0000000180001ce0 f   gamecode.obj
 0001:00000d60       ?c2RaytoCircle@@YAHUc2Ray@@Uc2Circle@@PEAUc2Raycast@@@Z 0000000180001d60 f   gamecode.obj
 0001:00000f20       ?c2RaytoAABB@@YAHUc2Ray@@Uc2AABB@@PEAUc2Raycast@@@Z 0000000180001f20 f   gamecode.obj
 0001:00001270       ?c2RaytoCapsule@@YAHUc2Ray@@Uc2Capsule@@PEAUc2Raycast@@@Z 0000000180002270 f   gamecode.obj
 0001:00001820       ?c2RaytoPoly@@YAHUc2Ray@@PEBUc2Poly@@PEBUc2x@@PEAUc2Raycast@@@Z 0000000180002820 f   gamecode.obj
 0001:00001b40       ?c2CircletoCircleManifold@@YAXUc2Circle@@0PEAUc2Manifold@@@Z 0000000180002b40 f   gamecode.obj
 0001:00001d10       ?c2CircletoAABBManifold@@YAXUc2Circle@@Uc2AABB@@PEAUc2Manifold@@@Z 0000000180002d10 f   gamecode.obj
 0001:00002180       ?c2CircletoCapsuleManifold@@YAXUc2Circle@@Uc2Capsule@@PEAUc2Manifold@@@Z 0000000180003180 f   gamecode.obj
 0001:00002360       ?c2AABBtoAABBManifold@@YAXUc2AABB@@0PEAUc2Manifold@@@Z 0000000180003360 f   gamecode.obj
 0001:00002800       ?c2AABBtoCapsuleManifold@@YAXUc2AABB@@Uc2Capsule@@PEAUc2Manifold@@@Z 0000000180003800 f   gamecode.obj
 0001:000028c0       ?c2CapsuletoCapsuleManifold@@YAXUc2Capsule@@0PEAUc2Manifold@@@Z 00000001800038c0 f   gamecode.obj
 0001:00002ad0       ?c2CircletoPolyManifold@@YAXUc2Circle@@PEBUc2Poly@@PEBUc2x@@PEAUc2Manifold@@@Z 0000000180003ad0 f   gamecode.obj
 0001:00002fe0       ?c2AABBtoPolyManifold@@YAXUc2AABB@@PEBUc2Poly@@PEBUc2x@@PEAUc2Manifold@@@Z 0000000180003fe0 f   gamecode.obj
 0001:000030a0       ?c2CapsuletoPolyManifold@@YAXUc2Capsule@@PEBUc2Poly@@PEBUc2x@@PEAUc2Manifold@@@Z 00000001800040a0 f   gamecode.obj
 0001:00003760       ?c2PolytoPolyManifold@@YAXPEBUc2Poly@@PEBUc2x@@01PEAUc2Manifold@@@Z 0000000180004760 f   gamecode.obj
 0001:00003bf0       ?c2GJK@@YAMPEBXW4C2_TYPE@@PEBUc2x@@012PEAUc2v@@3H@Z 0000000180004bf0 f   gamecode.obj
 0001:00004480       ?c2Hull@@YAHPEAUc2v@@H@Z   0000000180005480 f   gamecode.obj
 0001:000047b0       ?c2Norms@@YAXPEAUc2v@@0H@Z 00000001800057b0 f   gamecode.obj
 0001:00004890       ?c2MakePoly@@YAXPEAUc2Poly@@@Z 0000000180005890 f   gamecode.obj
 0001:000048f0       ?c2Collided@@YAHPEBXPEBUc2x@@W4C2_TYPE@@012@Z 00000001800058f0 f   gamecode.obj
 0001:00004e80       ?c2Collide@@YAXPEBXPEBUc2x@@W4C2_TYPE@@012PEAUc2Manifold@@@Z 0000000180005e80 f   gamecode.obj
 0001:00007580       stbir_resize_uint8         0000000180008580 f   gamecode.obj
 0001:000076a0       stbir_resize_float         00000001800086a0 f   gamecode.obj
 0001:000077c0       stbir_resize_uint8_srgb    00000001800087c0 f   gamecode.obj
 0001:000078e0       stbir_resize_uint8_srgb_edgemode 00000001800088e0 f   gamecode.obj
 0001:00007a10       stbir_resize_uint8_generic 0000000180008a10 f   gamecode.obj
 0001:00007b50       stbir_resize_uint16_generic 0000000180008b50 f   gamecode.obj
 0001:00007c90       stbir_resize_float_generic 0000000180008c90 f   gamecode.obj
 0001:00007dd0       stbir_resize               0000000180008dd0 f   gamecode.obj
 0001:00007f10       stbir_resize_subpixel      0000000180008f10 f   gamecode.obj
 0001:000080e0       stbir_resize_region        00000001800090e0 f   gamecode.obj
 0001:0000ed80       stbi_load                  000000018000fd80 f   gamecode.obj
 0001:0000ee30       stbi_load_from_memory      000000018000fe30 f   gamecode.obj
 0001:0000eed0       stbi_load_from_callbacks   000000018000fed0 f   gamecode.obj
 0001:0000ef70       stbi_load_from_file        000000018000ff70 f   gamecode.obj
 0001:0000f040       stbi_loadf                 0000000180010040 f   gamecode.obj
 0001:0000f0f0       stbi_loadf_from_memory     00000001800100f0 f   gamecode.obj
 0001:0000f190       stbi_loadf_from_callbacks  0000000180010190 f   gamecode.obj
 0001:0000f230       stbi_loadf_from_file       0000000180010230 f   gamecode.obj
 0001:0000f2c0       stbi_hdr_to_ldr_gamma      00000001800102c0 f   gamecode.obj
 0001:0000f2f0       stbi_hdr_to_ldr_scale      00000001800102f0 f   gamecode.obj
 0001:0000f320       stbi_ldr_to_hdr_gamma      0000000180010320 f   gamecode.obj
 0001:0000f340       stbi_ldr_to_hdr_scale      0000000180010340 f   gamecode.obj
 0001:0000f360       stbi_is_hdr_from_callbacks 0000000180010360 f   gamecode.obj
 0001:0000f3d0       stbi_is_hdr_from_memory    00000001800103d0 f   gamecode.obj
 0001:0000f440       stbi_is_hdr                0000000180010440 f   gamecode.obj
 0001:0000f4a0       stbi_is_hdr_from_file      00000001800104a0 f   gamecode.obj
 0001:0000f500       stbi_failure_reason        0000000180010500 f   gamecode.obj
 0001:0000f510       stbi_image_free            0000000180010510 f   gamecode.obj
 0001:0000f530       stbi_info_from_memory      0000000180010530 f   gamecode.obj
 0001:0000f5c0       stbi_info_from_callbacks   00000001800105c0 f   gamecode.obj
 0001:0000f650       stbi_info                  0000000180010650 f   gamecode.obj
 0001:0000f6d0       stbi_info_from_file        00000001800106d0 f   gamecode.obj
 0001:0000f780       stbi_set_unpremultiply_on_load 0000000180010780 f   gamecode.obj
 0001:0000f7a0       stbi_convert_iphone_png_to_rgb 00000001800107a0 f   gamecode.obj
 0001:0000f7c0       stbi_set_flip_vertically_on_load 00000001800107c0 f   gamecode.obj
 0001:0000f7e0       stbi_zlib_decode_malloc_guesssize 00000001800107e0 f   gamecode.obj
 0001:0000f8e0       stbi_zlib_decode_malloc_guesssize_headerflag 00000001800108e0 f   gamecode.obj
 0001:0000f9f0       stbi_zlib_decode_malloc    00000001800109f0 f   gamecode.obj
 0001:0000fa30       stbi_zlib_decode_buffer    0000000180010a30 f   gamecode.obj
 0001:0000faf0       stbi_zlib_decode_noheader_malloc 0000000180010af0 f   gamecode.obj
 0001:0000fbf0       stbi_zlib_decode_noheader_buffer 0000000180010bf0 f   gamecode.obj
 0001:00023750       ?stbi__tga_read_rgb16@@YAXPEAUstbi__context@@PEAE@Z 0000000180024750 f   gamecode.obj
 0001:000264d0       ?DrawFilledCircle@@YAXMMMPEAUgame_offscreen_buffer@@MMMM@Z 00000001800274d0 f   gamecode.obj
 0001:00026a00       GameUpdateAndRender        0000000180027a00 f   gamecode.obj
 0001:00027b30       GameGetSoundSamples        0000000180028b30 f   gamecode.obj
 0001:00027b50       ??G@YA?ATv2@@T0@0@Z        0000000180028b50 f i gamecode.obj
 0001:00027bb0       ??H@YA?ATv2@@T0@0@Z        0000000180028bb0 f i gamecode.obj
 0001:00027c10       ?AbsoluteValue@@YAMM@Z     0000000180028c10 f i gamecode.obj
 0001:00027c40       ?BeginTemporaryMemory@@YA?AUtemporary_memory@@PEAUmemory_arena@@@Z 0000000180028c40 f i gamecode.obj
 0001:00027ca0       ?Copy@@YAPEAX_KPEAX1@Z     0000000180028ca0 f i gamecode.obj
 0001:00027d20       ?EndTemporaryMemory@@YAXUtemporary_memory@@@Z 0000000180028d20 f i gamecode.obj
 0001:00027d60       ?GetAlignmentOffset@@YA_KPEAUmemory_arena@@_K@Z 0000000180028d60 f i gamecode.obj
 0001:00027de0       ?GetController@@YAPEAUgame_controller_input@@PEAUgame_input@@_K@Z 0000000180028de0 f i gamecode.obj
 0001:00027e00       ?InitializeArena@@YAXPEAUmemory_arena@@_KPEAX@Z 0000000180028e00 f i gamecode.obj
 0001:00027e50       ?Intersect@@YA?AUrectangle2i@@U1@0@Z 0000000180028e50 f i gamecode.obj
 0001:00027f70       ?PushSize_@@YAPEAXPEAUmemory_arena@@_K1@Z 0000000180028f70 f i gamecode.obj
 0001:00028000       ?RectCenterHalfDim@@YA?AUrectangle2@@Tv2@@0@Z 0000000180029000 f i gamecode.obj
 0001:000280a0       ?RectanglesIntersect@@YAHUrectangle2@@0@Z 00000001800290a0 f i gamecode.obj
 0001:00028120       ?RoundReal32ToInt32@@YAHM@Z 0000000180029120 f i gamecode.obj
 0001:00028150       ?RoundReal32ToUInt32@@YAIM@Z 0000000180029150 f i gamecode.obj
 0001:00028180       ?SignOf@@YAMM@Z            0000000180029180 f i gamecode.obj
 0001:000281d0       ?c2Absv@@YA?AUc2v@@U1@@Z   00000001800291d0 f i gamecode.obj
 0001:00028260       ?c2Add@@YA?AUc2v@@U1@0@Z   0000000180029260 f i gamecode.obj
 0001:000282a0       ?c2BBVerts@@YAXPEAUc2v@@PEAUc2AABB@@@Z 00000001800292a0 f i gamecode.obj
 0001:00028360       ?c2CCW90@@YA?AUc2v@@U1@@Z  0000000180029360 f i gamecode.obj
 0001:00028390       ?c2Clampv@@YA?AUc2v@@U1@00@Z 0000000180029390 f i gamecode.obj
 0001:000283e0       ?c2Det2@@YAMUc2v@@0@Z      00000001800293e0 f i gamecode.obj
 0001:00028410       ?c2Dist@@YAMUc2h@@Uc2v@@@Z 0000000180029410 f i gamecode.obj
 0001:00028440       ?c2Div@@YA?AUc2v@@U1@M@Z   0000000180029440 f i gamecode.obj
 0001:00028480       ?c2Dot@@YAMUc2v@@0@Z       0000000180029480 f i gamecode.obj
 0001:000284b0       ?c2Hmax@@YAMUc2v@@@Z       00000001800294b0 f i gamecode.obj
 0001:000284f0       ?c2Hmin@@YAMUc2v@@@Z       00000001800294f0 f i gamecode.obj
 0001:00028530       ?c2Len@@YAMUc2v@@@Z        0000000180029530 f i gamecode.obj
 0001:00028560       ?c2Lerp@@YA?AUc2v@@U1@0M@Z 0000000180029560 f i gamecode.obj
 0001:000285c0       ?c2Maxv@@YA?AUc2v@@U1@0@Z  00000001800295c0 f i gamecode.obj
 0001:00028640       ?c2Minv@@YA?AUc2v@@U1@0@Z  0000000180029640 f i gamecode.obj
 0001:000286c0       ?c2MulmvT@@YA?AUc2v@@Uc2m@@U1@@Z 00000001800296c0 f i gamecode.obj
 0001:00028730       ?c2MulrrT@@YA?AUc2r@@U1@0@Z 0000000180029730 f i gamecode.obj
 0001:00028790       ?c2Mulrv@@YA?AUc2v@@Uc2r@@U1@@Z 0000000180029790 f i gamecode.obj
 0001:00028800       ?c2MulrvT@@YA?AUc2v@@Uc2r@@U1@@Z 0000000180029800 f i gamecode.obj
 0001:00028870       ?c2Mulvs@@YA?AUc2v@@U1@M@Z 0000000180029870 f i gamecode.obj
 0001:000288b0       ?c2Mulvv@@YA?AUc2v@@U1@0@Z 00000001800298b0 f i gamecode.obj
 0001:000288f0       ?c2Mulxh@@YA?AUc2h@@Uc2x@@U1@@Z 00000001800298f0 f i gamecode.obj
 0001:000289e0       ?c2Mulxv@@YA?AUc2v@@Uc2x@@U1@@Z 00000001800299e0 f i gamecode.obj
 0001:00028a30       ?c2MulxvT@@YA?AUc2v@@Uc2x@@U1@@Z 0000000180029a30 f i gamecode.obj
 0001:00028a80       ?c2MulxxT@@YA?AUc2x@@U1@0@Z 0000000180029a80 f i gamecode.obj
 0001:00028b40       ?c2Neg@@YA?AUc2v@@U1@@Z    0000000180029b40 f i gamecode.obj
 0001:00028b90       ?c2Norm@@YA?AUc2v@@U1@@Z   0000000180029b90 f i gamecode.obj
 0001:00028bc0       ?c2Origin@@YA?AUc2v@@Uc2h@@@Z 0000000180029bc0 f i gamecode.obj
 0001:00028bf0       ?c2Parallel@@YAHUc2v@@0M@Z 0000000180029bf0 f i gamecode.obj
 0001:00028d00       ?c2Project@@YA?AUc2v@@Uc2h@@U1@@Z 0000000180029d00 f i gamecode.obj
 0001:00028d70       ?c2RotIdentity@@YA?AUc2r@@XZ 0000000180029d70 f i gamecode.obj
 0001:00028da0       ?c2Skew@@YA?AUc2v@@U1@@Z   0000000180029da0 f i gamecode.obj
 0001:00028dd0       ?c2Sub@@YA?AUc2v@@U1@0@Z   0000000180029dd0 f i gamecode.obj
 0001:00028e10       ?c2V@@YA?AUc2v@@MM@Z       0000000180029e10 f i gamecode.obj
 0001:00028e40       ?c2xIdentity@@YA?AUc2x@@XZ 0000000180029e40 f i gamecode.obj
 0001:00028ec0       fabsf                      0000000180029ec0 f i gamecode.obj
 0001:00028ee0       __GSHandlerCheck           0000000180029ee0 f   LIBCMTD:_gshandler_.obj
 0001:00028f20       __GSHandlerCheckCommon     0000000180029f20 f   LIBCMTD:_gshandler_.obj
 0001:00029030       __chkstk                   000000018002a030 f   LIBCMTD:_chkstk_.obj
 0001:00029030       _alloca_probe              000000018002a030 f   LIBCMTD:_chkstk_.obj
 0001:000290a0       __security_check_cookie    000000018002a0a0 f   LIBCMTD:_amdsecgs_.obj
 0001:000294d0       _DllMainCRTStartup         000000018002a4d0 f   LIBCMTD:dll_dllmain.obj
 0001:00029510       __raise_securityfailure    000000018002a510 f   LIBCMTD:gs_report.obj
 0001:00029550       __report_gsfailure         000000018002a550 f   LIBCMTD:gs_report.obj
 0001:00029630       __report_rangecheckfailure 000000018002a630 f   LIBCMTD:gs_report.obj
 0001:00029650       __report_securityfailure   000000018002a650 f   LIBCMTD:gs_report.obj
 0001:000297b0       ?__crt_rotate_pointer_value@@YA_K_KH@Z 000000018002a7b0 f i LIBCMTD:utility.obj
 0001:00029930       NtCurrentTeb               000000018002a930 f i LIBCMTD:utility.obj
 0001:00029940       __scrt_acquire_startup_lock 000000018002a940 f   LIBCMTD:utility.obj
 0001:000299b0       __scrt_dllmain_after_initialize_c 000000018002a9b0 f   LIBCMTD:utility.obj
 0001:000299d0       __scrt_dllmain_before_initialize_c 000000018002a9d0 f   LIBCMTD:utility.obj
 0001:000299f0       __scrt_dllmain_crt_thread_attach 000000018002a9f0 f   LIBCMTD:utility.obj
 0001:00029a20       __scrt_dllmain_crt_thread_detach 000000018002aa20 f   LIBCMTD:utility.obj
 0001:00029a40       __scrt_dllmain_exception_filter 000000018002aa40 f   LIBCMTD:utility.obj
 0001:00029aa0       __scrt_dllmain_uninitialize_c 000000018002aaa0 f   LIBCMTD:utility.obj
 0001:00029ad0       __scrt_dllmain_uninitialize_critical 000000018002aad0 f   LIBCMTD:utility.obj
 0001:00029af0       __scrt_initialize_crt      000000018002aaf0 f   LIBCMTD:utility.obj
 0001:00029b40       __scrt_initialize_onexit_tables 000000018002ab40 f   LIBCMTD:utility.obj
 0001:00029c40       __scrt_is_nonwritable_in_current_image 000000018002ac40 f   LIBCMTD:utility.obj
 0001:00029cd0       __scrt_release_startup_lock 000000018002acd0 f   LIBCMTD:utility.obj
 0001:00029d00       __scrt_uninitialize_crt    000000018002ad00 f   LIBCMTD:utility.obj
 0001:00029d40       _onexit                    000000018002ad40 f   LIBCMTD:utility.obj
 0001:00029dd0       atexit                     000000018002add0 f   LIBCMTD:utility.obj
 0001:00029e10       __security_init_cookie     000000018002ae10 f   LIBCMTD:gs_support.obj
 0001:00029f30       DllMain                    000000018002af30 f   LIBCMTD:dll_dllmain_stub.obj
 0001:00029f50       ?__scrt_initialize_type_info@@YAXXZ 000000018002af50 f   LIBCMTD:tncleanup.obj
 0001:00029f70       ?__scrt_uninitialize_type_info@@YAXXZ 000000018002af70 f   LIBCMTD:tncleanup.obj
 0001:00029f90       __local_stdio_printf_options 000000018002af90 f i LIBCMTD:default_local_stdio_options.obj
 0001:00029fa0       __local_stdio_scanf_options 000000018002afa0 f i LIBCMTD:default_local_stdio_options.obj
 0001:00029fb0       __scrt_initialize_default_local_stdio_options 000000018002afb0 f   LIBCMTD:default_local_stdio_options.obj
 0001:0002a000       __scrt_get_dyn_tls_init_callback 000000018002b000 f   LIBCMTD:dyn_tls_init.obj
 0001:0002a010       __crt_debugger_hook        000000018002b010 f   LIBCMTD:utility_desktop.obj
 0001:0002a020       __scrt_fastfail            000000018002b020 f   LIBCMTD:utility_desktop.obj
 0001:0002a1c0       _RTC_Initialize            000000018002b1c0 f   LIBCMTD:_initsect_.obj
 0001:0002a210       _RTC_Terminate             000000018002b210 f   LIBCMTD:_initsect_.obj
 0001:0002a260       _guard_check_icall         000000018002b260 f i LIBCMTD:checkcfg.obj
 0001:0002a280       __isa_available_init       000000018002b280 f   LIBCMTD:_cpu_disp_.obj
 0001:0002a600       __scrt_is_ucrt_dll_in_use  000000018002b600 f   LIBCMTD:ucrt_detection.obj
 0001:0002a630       ?CheckArena@@YAXPEAUmemory_arena@@@Z 000000018002b630 f i gamecode.obj
 0001:0002a630       _guard_check_icall_nop     000000018002b630 f i LIBCMTD:guard_support.obj
 0001:0002a630       ??1?$__crt_simd_cleanup_guard@$0A@@@QEAA@XZ 000000018002b630 f i libucrtd:strnlen.obj
 0001:0002a640       _guard_icall_checks_enforced 000000018002b640 f i LIBCMTD:guard_support.obj
 0001:0002a670       IsProcessorFeaturePresent  000000018002b670 f   kernel32:KERNEL32.dll
 0001:0002a710       EventDataDescCreate        000000018002b710 f i libvcruntimed:telemetry.obj
 0001:0002a750       HRESULT_FROM_WIN32         000000018002b750 f i libvcruntimed:telemetry.obj
 0001:0002a790       __telemetry_main_invoke_trigger 000000018002b790 f   libvcruntimed:telemetry.obj
 0001:0002a8d0       __telemetry_main_return_trigger 000000018002b8d0 f   libvcruntimed:telemetry.obj
 0001:0002aa10       __vcrt_initialize_telemetry_provider 000000018002ba10 f   libvcruntimed:telemetry.obj
 0001:0002aa30       __vcrt_uninitialize_telemetry_provider 000000018002ba30 f   libvcruntimed:telemetry.obj
 0001:0002aa50       __C_specific_handler       000000018002ba50 f   libvcruntimed:_chandler_.obj
 0001:0002ae80       __vcrt_initialize          000000018002be80 f   libvcruntimed:initialization.obj
 0001:0002aed0       __vcrt_thread_attach       000000018002bed0 f   libvcruntimed:initialization.obj
 0001:0002aef0       __vcrt_thread_detach       000000018002bef0 f   libvcruntimed:initialization.obj
 0001:0002af10       __vcrt_uninitialize        000000018002bf10 f   libvcruntimed:initialization.obj
 0001:0002af40       __vcrt_uninitialize_critical 000000018002bf40 f   libvcruntimed:initialization.obj
 0001:0002af50       ??$__vcrt_va_start_verify_argument_type@QEBD@@YAXXZ 000000018002bf50 f   libvcruntimed:undname.obj
 0001:0002af50       ??$__vcrt_va_start_verify_argument_type@QEB_W@@YAXXZ 000000018002bf50 f   libucrtd:assert.obj
 0001:0002af60       __std_type_info_compare    000000018002bf60 f   libvcruntimed:std_type_info.obj
 0001:0002afa0       __std_type_info_destroy_list 000000018002bfa0 f   libvcruntimed:std_type_info.obj
 0001:0002b000       ??$__crt_interlocked_compare_exchange_pointer@X$$T$$T@@YAPEAXPEDSEAX$$T1@Z 000000018002c000 f i libvcruntimed:winapi_downlevel.obj
 0001:0002b000       ??$__crt_interlocked_compare_exchange_pointer@UHINSTANCE__@@$$T$$T@@YAPEAUHINSTANCE__@@PEDSEAU0@$$T1@Z 000000018002c000 f i libvcruntimed:winapi_downlevel.obj
 0001:0002b040       ??$__crt_interlocked_exchange_pointer@UHINSTANCE__@@PEAX@@YAPEAUHINSTANCE__@@PEDSEAU0@QEAX@Z 000000018002c040 f i libvcruntimed:winapi_downlevel.obj
 0001:0002b040       ??$__crt_interlocked_exchange_pointer@XPEAX@@YAPEAXPEDSEAXQEAX@Z 000000018002c040 f i libvcruntimed:winapi_downlevel.obj
 0001:0002b040       ??$__crt_interlocked_exchange_pointer@UHINSTANCE__@@PEAU1@@@YAPEAUHINSTANCE__@@PEDSEAU0@QEAU0@@Z 000000018002c040 f i libvcruntimed:winapi_downlevel.obj
 0001:0002b060       ??$__crt_interlocked_read_pointer@UHINSTANCE__@@@@YAPEAUHINSTANCE__@@PEDSEAU0@@Z 000000018002c060 f i libvcruntimed:winapi_downlevel.obj
 0001:0002b060       ??$__crt_interlocked_read_pointer@X@@YAPEAXPEDSEAX@Z 000000018002c060 f i libvcruntimed:winapi_downlevel.obj
 0001:0002b080       ?__crt_fast_encode_pointer@@YA?AU__crt_fast_encoded_nullptr_t@@$$T@Z 000000018002c080 f i libvcruntimed:winapi_downlevel.obj
 0001:0002b660       __vcrt_EventRegister       000000018002c660 f   libvcruntimed:winapi_downlevel.obj
 0001:0002b6d0       __vcrt_EventSetInformation 000000018002c6d0 f   libvcruntimed:winapi_downlevel.obj
 0001:0002b730       __vcrt_EventUnregister     000000018002c730 f   libvcruntimed:winapi_downlevel.obj
 0001:0002b780       __vcrt_EventWriteTransfer  000000018002c780 f   libvcruntimed:winapi_downlevel.obj
 0001:0002b800       __vcrt_FlsAlloc            000000018002c800 f   libvcruntimed:winapi_downlevel.obj
 0001:0002b850       __vcrt_FlsFree             000000018002c850 f   libvcruntimed:winapi_downlevel.obj
 0001:0002b8a0       __vcrt_FlsGetValue         000000018002c8a0 f   libvcruntimed:winapi_downlevel.obj
 0001:0002b8f0       __vcrt_FlsSetValue         000000018002c8f0 f   libvcruntimed:winapi_downlevel.obj
 0001:0002b950       __vcrt_InitializeCriticalSectionEx 000000018002c950 f   libvcruntimed:winapi_downlevel.obj
 0001:0002b9b0       __vcrt_initialize_winapi_thunks 000000018002c9b0 f   libvcruntimed:winapi_downlevel.obj
 0001:0002ba30       __vcrt_uninitialize_winapi_thunks 000000018002ca30 f   libvcruntimed:winapi_downlevel.obj
 0001:0002bae0       _local_unwind              000000018002cae0 f   libvcruntimed:_jmpuwind_.obj
 0001:0002bb10       _NLG_Notify                000000018002cb10 f   libvcruntimed:_jmpuwind_.obj
 0001:0002bb30       __NLG_Dispatch2            000000018002cb30 f   libvcruntimed:_jmpuwind_.obj
 0001:0002bb40       __NLG_Return2              000000018002cb40 f   libvcruntimed:_jmpuwind_.obj
 0001:0002bb50       __except_validate_context_record 000000018002cb50 f   libvcruntimed:jbcxrval.obj
 0001:0002bbb0       ??1?$__crt_unique_heap_ptr@DU__crt_internal_free_policy@@@@QEAA@XZ 000000018002cbb0 f i libvcruntimed:std_type_info.obj
 0001:0002bbb0       ??1?$__crt_unique_heap_ptr@U__vcrt_ptd@@U__crt_internal_free_policy@@@@QEAA@XZ 000000018002cbb0 f i libvcruntimed:per_thread_data.obj
 0001:0002bbd0       ?release@?$__crt_unique_heap_ptr@DU__crt_internal_free_policy@@@@QEAAXXZ 000000018002cbd0 f i libvcruntimed:std_type_info.obj
 0001:0002bbd0       ?release@?$__crt_unique_heap_ptr@U__vcrt_ptd@@U__crt_internal_free_policy@@@@QEAAXXZ 000000018002cbd0 f i libvcruntimed:per_thread_data.obj
 0001:0002bc30       __vcrt_freefls             000000018002cc30 f   libvcruntimed:per_thread_data.obj
 0001:0002bc70       __vcrt_freeptd             000000018002cc70 f   libvcruntimed:per_thread_data.obj
 0001:0002bcd0       __vcrt_getptd              000000018002ccd0 f   libvcruntimed:per_thread_data.obj
 0001:0002bd00       __vcrt_getptd_noexit       000000018002cd00 f   libvcruntimed:per_thread_data.obj
 0001:0002be20       __vcrt_initialize_ptd      000000018002ce20 f   libvcruntimed:per_thread_data.obj
 0001:0002be70       __vcrt_uninitialize_ptd    000000018002ce70 f   libvcruntimed:per_thread_data.obj
 0001:0002bea0       __vcrt_initialize_locks    000000018002cea0 f   libvcruntimed:locks.obj
 0001:0002bf10       __vcrt_uninitialize_locks  000000018002cf10 f   libvcruntimed:locks.obj
 0001:0002bf70       __vcrt_initialize_pure_virtual_call_handler 000000018002cf70 f   libvcruntimed:purevirt_data.obj
 0001:0002bfa0       _vsprintf_s_l              000000018002cfa0 f i libvcruntimed:undname.obj
 0001:0002c010       sprintf_s                  000000018002d010 f i libvcruntimed:undname.obj
 0001:0002c070       ??$__crt_interlocked_read@H@@YAHPEDH@Z 000000018002d070 f i libucrtd:setmode.obj
 0001:0002c070       ??$__crt_interlocked_read@J@@YAJPEDJ@Z 000000018002d070 f i libucrtd:assert.obj
 0001:0002d100       ??$ftprintf@PEAU_iobuf@@PEB_WAEBQEB_WAEBQEB_WAEBI@?$__crt_char_traits@_W@@SAH$$QEAPEAU_iobuf@@$$QEAPEB_WAEBQEB_W2AEBI@Z 000000018002e100 f i libucrtd:assert.obj
 0001:0002d150       ??$get_module_file_name@AEAPEAUHINSTANCE__@@AEAY0BAF@DK@?$__crt_char_traits@D@@SAKAEAPEAUHINSTANCE__@@AEAY0BAF@D$$QEAK@Z 000000018002e150 f i libucrtd:assert.obj
 0001:0002d190       ??$get_module_file_name@AEAPEAUHINSTANCE__@@AEAY0BAF@_WK@?$__crt_char_traits@_W@@SAKAEAPEAUHINSTANCE__@@AEAY0BAF@_W$$QEAK@Z 000000018002e190 f i libucrtd:assert.obj
 0001:0002d1d0       ??$itot_s@AEBIQEA_W$$CB_KH@?$__crt_char_traits@_W@@SAHAEBI$$QEBQEA_W$$QEB_K$$QEAH@Z 000000018002e1d0 f i libucrtd:assert.obj
 0001:0002d220       ??$show_message_box@AEAY0CEA@_WPEB_WJ@?$__crt_char_traits@_W@@SAHAEAY0CEA@_W$$QEAPEB_W$$QEAJ@Z 000000018002e220 f i libucrtd:assert.obj
 0001:0002d260       ??$tcscat_s@AEBQEA_WAEB_KAEBQEB_W@?$__crt_char_traits@_W@@SAHAEBQEA_WAEB_KAEBQEB_W@Z 000000018002e260 f i libucrtd:assert.obj
 0001:0002d260       ??$tcscat_s@AEBQEA_WAEB_KPEB_W@?$__crt_char_traits@_W@@SAHAEBQEA_WAEB_K$$QEAPEB_W@Z 000000018002e260 f i libucrtd:assert.obj
 0001:0002d260       ??$tcscat_s@AEBQEA_WAEB_KAEAPEA_W@?$__crt_char_traits@_W@@SAHAEBQEA_WAEB_KAEAPEA_W@Z 000000018002e260 f i libucrtd:assert.obj
 0001:0002d2a0       ??$tcscpy_s@AEAY0BAF@D_KPEBD@?$__crt_char_traits@D@@SAHAEAY0BAF@D$$QEA_K$$QEAPEBD@Z 000000018002e2a0 f i libucrtd:assert.obj
 0001:0002d2e0       ??$tcscpy_s@AEAY0BAF@_W_KPEB_W@?$__crt_char_traits@_W@@SAHAEAY0BAF@_W$$QEA_K$$QEAPEB_W@Z 000000018002e2e0 f i libucrtd:assert.obj
 0001:0002d320       ??$tcscpy_s@AEBQEA_WAEB_KPEB_W@?$__crt_char_traits@_W@@SAHAEBQEA_WAEB_K$$QEAPEB_W@Z 000000018002e320 f i libucrtd:assert.obj
 0001:0002d360       ??$tcslen@AEAY0BAF@D@?$__crt_char_traits@D@@SA_KAEAY0BAF@D@Z 000000018002e360 f i libucrtd:assert.obj
 0001:0002d380       ??$tcslen@AEAY0BAF@_W@?$__crt_char_traits@_W@@SA_KAEAY0BAF@_W@Z 000000018002e380 f i libucrtd:assert.obj
 0001:0002d3a0       ??$tcslen@AEBQEBD@?$__crt_char_traits@D@@SA_KAEBQEBD@Z 000000018002e3a0 f i libucrtd:assert.obj
 0001:0002d3c0       ??$tcslen@AEBQEB_W@?$__crt_char_traits@_W@@SA_KAEBQEB_W@Z 000000018002e3c0 f i libucrtd:assert.obj
 0001:0002d3c0       ??$tcslen@AEBQEA_W@?$__crt_char_traits@_W@@SA_KAEBQEA_W@Z 000000018002e3c0 f i libucrtd:assert.obj
 0001:0002d3e0       ??$tcsncat_s@AEBQEA_WAEB_KPEB_W_K@?$__crt_char_traits@_W@@SAHAEBQEA_WAEB_K$$QEAPEB_W$$QEA_K@Z 000000018002e3e0 f i libucrtd:assert.obj
 0001:0002d3e0       ??$tcsncat_s@AEBQEA_WAEB_KAEAPEB_W_K@?$__crt_char_traits@_W@@SAHAEBQEA_WAEB_KAEAPEB_W$$QEA_K@Z 000000018002e3e0 f i libucrtd:assert.obj
 0001:0002d3e0       ??$tcsncat_s@AEBQEA_WAEB_KAEBQEB_WAEB_K@?$__crt_char_traits@_W@@SAHAEBQEA_WAEB_KAEBQEB_W1@Z 000000018002e3e0 f i libucrtd:assert.obj
 0001:0002d430       ?__crt_interlocked_read_32@@YAHPEDH@Z 000000018002e430 f i libucrtd:assert.obj
 0001:0002d5c0       ?get_flags@__crt_stdio_stream@@QEBAJXZ 000000018002e5c0 f i libucrtd:assert.obj
 0001:0002d650       ?has_any_buffer@__crt_stdio_stream@@QEBA_NXZ 000000018002e650 f i libucrtd:assert.obj
 0001:0002d670       ?has_any_of@__crt_stdio_stream@@QEBA_NJ@Z 000000018002e670 f i libucrtd:assert.obj
 0001:0002d6b0       _invoke_watson_if_error    000000018002e6b0 f i libucrtd:assert.obj
 0001:0002d700       _vfwprintf_l               000000018002e700 f i libucrtd:assert.obj
 0001:0002d750       _vswprintf_c_l             000000018002e750 f i libucrtd:assert.obj
 0001:0002d7c0       _wassert                   000000018002e7c0 f   libucrtd:assert.obj
 0001:0002d800       fwprintf                   000000018002e800 f i libucrtd:assert.obj
 0001:0002d860       swprintf                   000000018002e860 f i libucrtd:assert.obj
 0001:0002dc60       ??$open_file@AEBQEBDAEBQEBDAEBHPEAU_iobuf@@@?$__crt_char_traits@D@@SAPEAU_iobuf@@AEBQEBD0AEBH$$QEAPEAU1@@Z 000000018002ec60 f i libucrtd:fopen.obj
 0001:0002dcb0       ?unlock@__crt_stdio_stream@@QEBAXXZ 000000018002ecb0 f i libucrtd:fopen.obj
 0001:0002dcd0       fopen_s                    000000018002ecd0 f   libucrtd:fopen.obj
 0001:0002dd00       ?is_in_use@__crt_stdio_stream@@QEBA_NXZ 000000018002ed00 f i libucrtd:fclose.obj
 0001:0002dd40       ?is_string_backed@__crt_stdio_stream@@QEBA_NXZ 000000018002ed40 f i libucrtd:fclose.obj
 0001:0002dd80       _fclose_nolock             000000018002ed80 f   libucrtd:fclose.obj
 0001:0002df10       fclose                     000000018002ef10 f   libucrtd:fclose.obj
 0001:0002e050       ?eof@__crt_stdio_stream@@QEBA_NXZ 000000018002f050 f i libucrtd:feoferr.obj
 0001:0002e070       feof                       000000018002f070 f   libucrtd:feoferr.obj
 0001:0002e140       ?set_flags@__crt_stdio_stream@@QEBA_NJ@Z 000000018002f140 f i libucrtd:fread.obj
 0001:0002e1b0       _fread_nolock_s            000000018002f1b0 f   libucrtd:fread.obj
 0001:0002eb50       fread                      000000018002fb50 f   libucrtd:fread.obj
 0001:0002eba0       fread_s                    000000018002fba0 f   libucrtd:fread.obj
 0001:0002ee30       ?LongLongSub@@YAJ_J0PEA_J@Z 000000018002fe30 f i libucrtd:fseek.obj
 0001:0002ef10       ?__acrt_stdio_reset_buffer@@YAXV__crt_stdio_stream@@@Z 000000018002ff10 f i libucrtd:fseek.obj
 0001:0002f4b0       ?has_all_of@__crt_stdio_stream@@QEBA_NJ@Z 00000001800304b0 f i libucrtd:fseek.obj
 0001:0002f4f0       ?lowio_handle@__crt_stdio_stream@@QEBAHXZ 00000001800304f0 f i libucrtd:fseek.obj
 0001:0002f520       ?unset_flags@__crt_stdio_stream@@QEBA_NJ@Z 0000000180030520 f i libucrtd:fseek.obj
 0001:0002f580       fseek                      0000000180030580 f   libucrtd:fseek.obj
 0001:00030000       ?ctrl_z@__crt_stdio_stream@@QEBA_NXZ 0000000180031000 f i libucrtd:ftell.obj
 0001:00030020       ?has_big_buffer@__crt_stdio_stream@@QEBA_NXZ 0000000180031020 f i libucrtd:ftell.obj
 0001:00030040       ?has_crt_buffer@__crt_stdio_stream@@QEBA_NXZ 0000000180031040 f i libucrtd:ftell.obj
 0001:00030060       ?has_setvbuf_buffer@__crt_stdio_stream@@QEBA_NXZ 0000000180031060 f i libucrtd:ftell.obj
 0001:00030080       _ftelli64_nolock           0000000180031080 f   libucrtd:ftell.obj
 0001:000300b0       ftell                      00000001800310b0 f   libucrtd:ftell.obj
 0001:000300e0       ldexp                      00000001800310e0 f   libucrtd:ldexp.obj
 0001:000303e0       roundf                     00000001800313e0 f   libucrtd:roundf.obj
 0001:00030480       strncmp                    0000000180031480 f   libucrtd:strncmp.obj
 0001:00030500       free                       0000000180031500 f   libucrtd:free.obj
 0001:00030520       malloc                     0000000180031520 f   libucrtd:malloc.obj
 0001:00030550       realloc                    0000000180031550 f   libucrtd:realloc.obj
 0001:00030590       ??$is_overflow_condition@K@__crt_strtox@@YA_NIK@Z 0000000180031590 f i libucrtd:strtox.obj
 0001:00030600       ??$make_c_string_character_source@_WPEAPEA_W@__crt_strtox@@YA?AV?$c_string_character_source@_W@0@QEB_WQEAPEA_W@Z 0000000180031600 f i libucrtd:strtox.obj
 0001:00030600       ??$make_c_string_character_source@DPEAPEAD@__crt_strtox@@YA?AV?$c_string_character_source@D@0@QEBDQEAPEAD@Z 0000000180031600 f i libucrtd:strtox.obj
 0001:00030640       ??$parse_integer@KV?$c_string_character_source@D@__crt_strtox@@@__crt_strtox@@YAKQEAU__crt_locale_pointers@@V?$c_string_character_source@D@0@H_N@Z 0000000180031640 f i libucrtd:strtox.obj
 0001:00030ad0       ??$parse_integer@KV?$c_string_character_source@_W@__crt_strtox@@@__crt_strtox@@YAKQEAU__crt_locale_pointers@@V?$c_string_character_source@_W@0@H_N@Z 0000000180031ad0 f i libucrtd:strtox.obj
 0001:00030f80       ??$parse_integer_from_string@JDPEAPEAD@__crt_strtox@@YAJQEBDQEAPEADHQEAU__crt_locale_pointers@@@Z 0000000180031f80 f i libucrtd:strtox.obj
 0001:00030fd0       ??$parse_integer_from_string@J_WPEAPEA_W@__crt_strtox@@YAJQEB_WQEAPEA_WHQEAU__crt_locale_pointers@@@Z 0000000180031fd0 f i libucrtd:strtox.obj
 0001:00031020       ??0?$c_string_character_source@_W@__crt_strtox@@QEAA@QEB_WQEAPEB_W@Z 0000000180032020 f i libucrtd:strtox.obj
 0001:00031020       ??0?$c_string_character_source@D@__crt_strtox@@QEAA@QEBDQEAPEBD@Z 0000000180032020 f i libucrtd:strtox.obj
 0001:00031070       ??0_LocaleUpdate@@QEAA@QEAU__crt_locale_pointers@@@Z 0000000180032070 f i libucrtd:strtox.obj
 0001:00031190       ??1?$c_string_character_source@D@__crt_strtox@@QEAA@XZ 0000000180032190 f i libucrtd:strtox.obj
 0001:00031190       ??1?$c_string_character_source@_W@__crt_strtox@@QEAA@XZ 0000000180032190 f i libucrtd:strtox.obj
 0001:000311c0       ??1_LocaleUpdate@@QEAA@XZ  00000001800321c0 f i libucrtd:strtox.obj
 0001:00031200       ?GetLocaleT@_LocaleUpdate@@QEAAPEAU__crt_locale_pointers@@XZ 0000000180032200 f i libucrtd:strtox.obj
 0001:00031210       ?get@?$c_string_character_source@D@__crt_strtox@@QEAADXZ 0000000180032210 f i libucrtd:strtox.obj
 0001:00031250       ?get@?$c_string_character_source@_W@__crt_strtox@@QEAA_WXZ 0000000180032250 f i libucrtd:strtox.obj
 0001:00031290       ?is_space@__crt_strtox@@YA_NDQEAU__crt_locale_pointers@@@Z 0000000180032290 f i libucrtd:strtox.obj
 0001:000312e0       ?is_space@__crt_strtox@@YA_N_WPEAU__crt_locale_pointers@@@Z 00000001800322e0 f i libucrtd:strtox.obj
 0001:00031320       ?maximum_signed_value@__crt_strtox@@YAJK@Z 0000000180032320 f i libucrtd:strtox.obj
 0001:00031330       ?minimum_signed_value@__crt_strtox@@YAJK@Z 0000000180032330 f i libucrtd:strtox.obj
 0001:00031340       ?parse_digit@__crt_strtox@@YAID@Z 0000000180032340 f i libucrtd:strtox.obj
 0001:000313b0       ?parse_digit@__crt_strtox@@YAI_W@Z 00000001800323b0 f i libucrtd:strtox.obj
 0001:00031440       ?restore_state@?$c_string_character_source@D@__crt_strtox@@QEAA_NQEBD@Z 0000000180032440 f i libucrtd:strtox.obj
 0001:00031440       ?restore_state@?$c_string_character_source@_W@__crt_strtox@@QEAA_NQEB_W@Z 0000000180032440 f i libucrtd:strtox.obj
 0001:00031460       ?unget@?$c_string_character_source@D@__crt_strtox@@QEAAXD@Z 0000000180032460 f i libucrtd:strtox.obj
 0001:00031540       ?unget@?$c_string_character_source@_W@__crt_strtox@@QEAAX_W@Z 0000000180032540 f i libucrtd:strtox.obj
 0001:00031620       ?validate@?$c_string_character_source@D@__crt_strtox@@QEBA_NXZ 0000000180032620 f i libucrtd:strtox.obj
 0001:000316e0       ?validate@?$c_string_character_source@_W@__crt_strtox@@QEBA_NXZ 00000001800326e0 f i libucrtd:strtox.obj
 0001:000317a0       ?wide_character_to_digit@__crt_strtox@@YAH_W@Z 00000001800327a0 f i libucrtd:strtox.obj
 0001:00031b10       __acrt_get_locale_data_prefix 0000000180032b10 f i libucrtd:strtox.obj
 0001:00031b30       __acrt_locale_changed      0000000180032b30 f i libucrtd:strtox.obj
 0001:00031b60       _chvalidchk_l              0000000180032b60 f i libucrtd:strtox.obj
 0001:00031b90       _ischartype_l              0000000180032b90 f i libucrtd:strtox.obj
 0001:00031bf0       strtol                     0000000180032bf0 f   libucrtd:strtox.obj
 0001:00031c20       wcstol                     0000000180032c20 f   libucrtd:strtox.obj
 0001:00031c50       ceil                       0000000180032c50 f   libucrtd:ceil.obj
 0001:00031e20       floor                      0000000180032e20 f   libucrtd:floor.obj
 0001:00031fd0       pow                        0000000180032fd0 f   libucrtd:pow.obj
 0001:00033670       sqrtf                      0000000180034670 f   libucrtd:sqrtf.obj
 0001:000337b0       _initterm                  00000001800347b0 f   libucrtd:initterm.obj
 0001:00033820       _initterm_e                0000000180034820 f   libucrtd:initterm.obj
 0001:00033910       _seh_filter_dll            0000000180034910 f   libucrtd:exception_filter.obj
 0001:00033940       _seh_filter_exe            0000000180034940 f   libucrtd:exception_filter.obj
 0001:00033bf0       ??$?B$$A6AXH@Z@__crt_fast_encoded_nullptr_t@@QEBAP6AXH@ZXZ 0000000180034bf0 f i libucrtd:signal.obj
 0001:00033bf0       ??$?B$$A6AXXZ@__crt_fast_encoded_nullptr_t@@QEBAP6AXXZXZ 0000000180034bf0 f i libvcruntimed:purevirt_data.obj
 0001:00033bf0       ??$?BX@__crt_fast_encoded_nullptr_t@@QEBAPEAXXZ 0000000180034bf0 f i libvcruntimed:winapi_downlevel.obj
 0001:00033bf0       ??$?B$$A6AXPEAXK0@Z@__crt_fast_encoded_nullptr_t@@QEBAP6AXPEAXK0@ZXZ 0000000180034bf0 f i libucrtd:exit.obj
 0001:00033bf0       ??$?BP6AXXZ@__crt_fast_encoded_nullptr_t@@QEBAPEAP6AXXZXZ 0000000180034bf0 f i libucrtd:onexit.obj
 0001:00033c10       ??$__crt_get_proc_address@P6AXI@Z@@YAP6AXI@ZQEAUHINSTANCE__@@QEBD@Z 0000000180034c10 f i libucrtd:exit.obj
 0001:00033c40       ??1?$__crt_unique_handle_t@U__crt_hmodule_traits@@@@QEAA@XZ 0000000180034c40 f i libucrtd:exit.obj
 0001:00033c80       ?close@?$__crt_unique_handle_t@U__crt_hmodule_traits@@@@QEAAXXZ 0000000180034c80 f i libucrtd:exit.obj
 0001:00033cc0       ?close@__crt_hmodule_traits@@SA_NPEAUHINSTANCE__@@@Z 0000000180034cc0 f i libucrtd:exit.obj
 0001:00033e90       ?get_invalid_value@__crt_hmodule_traits@@SAPEAUHINSTANCE__@@XZ 0000000180034e90 f i libucrtd:exit.obj
 0001:00033e90       ?get_current_state_index@__crt_state_management@@YA_KXZ 0000000180034e90 f i libucrtd:environment_initialization.obj
 0001:00034060       __acrt_initialize_thread_local_exit_callback 0000000180035060 f   libucrtd:exit.obj
 0001:00034080       _cexit                     0000000180035080 f   libucrtd:exit.obj
 0001:000340a0       _exit                      00000001800350a0 f   libucrtd:exit.obj
 0001:000340c0       _is_c_termination_complete 00000001800350c0 f   libucrtd:exit.obj
 0001:00034320       ??0?$__crt_unique_heap_ptr@_WU__crt_internal_free_policy@@@@QEAA@QEA_W@Z 0000000180035320 f i libucrtd:environment_initialization.obj
 0001:00034328       ??1?$__crt_unique_heap_ptr@_WU__crt_internal_free_policy@@@@QEAA@XZ 0000000180035328 f i libucrtd:environment_initialization.obj
 0001:00034348       ?detach@?$__crt_unique_heap_ptr@_WU__crt_internal_free_policy@@@@QEAAPEA_WXZ 0000000180035348 f i libucrtd:environment_initialization.obj
 0001:00034348       ?detach@?$__crt_unique_heap_ptr@DU__crt_internal_free_policy@@@@QEAAPEADXZ 0000000180035348 f i libucrtd:environment_initialization.obj
 0001:00034350       ?get@?$__crt_unique_heap_ptr@_WU__crt_internal_free_policy@@@@QEBAPEA_WXZ 0000000180035350 f i libucrtd:environment_initialization.obj
 0001:00034354       __dcrt_uninitialize_environments_nolock 0000000180035354 f   libucrtd:environment_initialization.obj
 0001:0003438c       _initialize_narrow_environment 000000018003538c f   libucrtd:environment_initialization.obj
 0001:000343a0       ??$?RV<lambda_b0d8f1f77f5878de4f648f281b223c15>@@AEAV<lambda_942beefa13ab35ff55f86422493ffd6a>@@V<lambda_7adb6fc9c0d6a5bd4e2d9c212ec7cdcc>@@@?$__crt_seh_guarded_call@H@@QEAAH$$QEAV<lambda_b0d8f1f77f5878de4f648f281b223c15>@@AEAV<lambda_942beefa13ab35ff55f86422493ffd6a>@@$$QEAV<lambda_7adb6fc9c0d6a5bd4e2d9c212ec7cdcc>@@@Z 00000001800353a0 f i libucrtd:onexit.obj
 0001:000343f0       ??$?RV<lambda_d22e02de4d14401f49897516b29a2b7c>@@AEAV<lambda_e971338317bfa523bb8920b43d823727>@@V<lambda_b0b8599c9027f5b14541fbbd6863d1f1>@@@?$__crt_seh_guarded_call@H@@QEAAH$$QEAV<lambda_d22e02de4d14401f49897516b29a2b7c>@@AEAV<lambda_e971338317bfa523bb8920b43d823727>@@$$QEAV<lambda_b0b8599c9027f5b14541fbbd6863d1f1>@@@Z 00000001800353f0 f i libucrtd:onexit.obj
 0001:00034440       ??$__acrt_lock_and_call@V<lambda_942beefa13ab35ff55f86422493ffd6a>@@@@YAHW4__acrt_lock_id@@$$QEAV<lambda_942beefa13ab35ff55f86422493ffd6a>@@@Z 0000000180035440 f i libucrtd:onexit.obj
 0001:000344b0       ??$__acrt_lock_and_call@V<lambda_e971338317bfa523bb8920b43d823727>@@@@YAHW4__acrt_lock_id@@$$QEAV<lambda_e971338317bfa523bb8920b43d823727>@@@Z 00000001800354b0 f i libucrtd:onexit.obj
 0001:00034520       ??$__crt_fast_encode_pointer@PEAP6AXXZ@@YAPEAP6AXXZQEAP6AXXZ@Z 0000000180035520 f i LIBCMTD:utility.obj
 0001:00034520       ??$__crt_fast_encode_pointer@P6AXXZ@@YAP6AXXZQ6AXXZ@Z 0000000180035520 f i libvcruntimed:purevirt_data.obj
 0001:00034520       ??$__crt_fast_encode_pointer@P6AXPEAXK0@Z@@YAP6AXPEAXK0@ZQ6AX0K0@Z@Z 0000000180035520 f i libucrtd:exit.obj
 0001:00034520       ??$__crt_fast_encode_pointer@P6AXH@Z@@YAP6AXH@ZQ6AXH@Z@Z 0000000180035520 f i libucrtd:signal.obj
 0001:00034520       ??$__crt_fast_encode_pointer@PEAX@@YAPEAXQEAX@Z 0000000180035520 f i libvcruntimed:winapi_downlevel.obj
 0001:00034520       ??$__crt_fast_encode_pointer@P6AHXZ@@YAP6AHXZQ6AHXZ@Z 0000000180035520 f i libucrtd:onexit.obj
 0001:00034a90       _crt_atexit                0000000180035a90 f   libucrtd:onexit.obj
 0001:00034ab0       _execute_onexit_table      0000000180035ab0 f   libucrtd:onexit.obj
 0001:00034ae0       _initialize_onexit_table   0000000180035ae0 f   libucrtd:onexit.obj
 0001:00034b60       _register_onexit_function  0000000180035b60 f   libucrtd:onexit.obj
 0001:00034bf0       __acrt_uninitialize_command_line 0000000180035bf0 f   libucrtd:argv_data.obj
 0001:00034dc0       __acrt_initialize          0000000180035dc0 f   libucrtd:initialization.obj
 0001:00034df0       __acrt_thread_attach       0000000180035df0 f   libucrtd:initialization.obj
 0001:00034e10       __acrt_thread_detach       0000000180035e10 f   libucrtd:initialization.obj
 0001:00034e20       __acrt_uninitialize        0000000180035e20 f   libucrtd:initialization.obj
 0001:00034e50       __acrt_uninitialize_critical 0000000180035e50 f   libucrtd:initialization.obj
 0001:00034e70       terminate                  0000000180035e70 f   libucrtd:terminate.obj
 0001:00034eb0       wcslen                     0000000180035eb0 f   libucrtd:wcslen.obj
 0001:00034f10       strlen                     0000000180035f10 f   libucrtd:strlen.obj
 0001:00036fa0       _CrtCheckMemory            0000000180037fa0 f   libucrtd:debug_heap.obj
 0001:00037130       _CrtDumpMemoryLeaks        0000000180038130 f   libucrtd:debug_heap.obj
 0001:000371f0       _CrtIsValidHeapPointer     00000001800381f0 f   libucrtd:debug_heap.obj
 0001:00037230       _CrtIsValidPointer         0000000180038230 f   libucrtd:debug_heap.obj
 0001:00037270       _CrtMemCheckpoint          0000000180038270 f   libucrtd:debug_heap.obj
 0001:000374f0       _CrtMemDumpAllObjectsSince 00000001800384f0 f   libucrtd:debug_heap.obj
 0001:00037550       _CrtSetDbgFlag             0000000180038550 f   libucrtd:debug_heap.obj
 0001:000376b0       _CrtSetDumpClient          00000001800386b0 f   libucrtd:debug_heap.obj
 0001:000376e0       _calloc_dbg                00000001800386e0 f   libucrtd:debug_heap.obj
 0001:00037780       _free_dbg                  0000000180038780 f   libucrtd:debug_heap.obj
 0001:000377f0       _invoke_watson_if_oneof    00000001800387f0 f i libucrtd:debug_heap.obj
 0001:00037850       _malloc_dbg                0000000180038850 f   libucrtd:debug_heap.obj
 0001:00037890       _msize_dbg                 0000000180038890 f   libucrtd:debug_heap.obj
 0001:00037a30       _realloc_dbg               0000000180038a30 f   libucrtd:debug_heap.obj
 0001:00037aa0       _recalloc_dbg              0000000180038aa0 f   libucrtd:debug_heap.obj
 0001:00038070       strcpy_s                   0000000180039070 f   libucrtd:strcpy_s.obj
 0001:000380b0       strcmp                     00000001800390b0 f   libucrtd:strcmp.obj
 0001:00038ec0       _CrtDbgReport              0000000180039ec0 f   libucrtd:dbgrpt.obj
 0001:00038f40       _CrtDbgReportW             0000000180039f40 f   libucrtd:dbgrpt.obj
 0001:00038fc0       __acrt_MessageWindowA      0000000180039fc0 f   libucrtd:dbgrpt.obj
 0001:00039010       __acrt_MessageWindowW      000000018003a010 f   libucrtd:dbgrpt.obj
 0001:00039060       _snwprintf_s               000000018003a060 f i libucrtd:dbgrpt.obj
 0001:000390d0       _vsnwprintf_s_l            000000018003a0d0 f i libucrtd:dbgrpt.obj
 0001:00039150       abort                      000000018003a150 f   libucrtd:abort.obj
 0001:000391d0       ??$?0AEBV?$string_output_adapter@_W@__crt_stdio_output@@AEB_KAEBQEB_WAEBQEAU__crt_locale_pointers@@AEBQEAD@?$standard_base@_WV?$string_output_adapter@_W@__crt_stdio_output@@@__crt_stdio_output@@IEAA@AEBV?$string_output_adapter@_W@1@AEB_KAEBQEB_WAEBQEAU__crt_locale_pointers@@AEBQEAD@Z 000000018003a1d0 f i libucrtd:output.obj
 0001:000391d0       ??$?0AEBV?$stream_output_adapter@_W@__crt_stdio_output@@AEB_KAEBQEB_WAEBQEAU__crt_locale_pointers@@AEBQEAD@?$standard_base@_WV?$stream_output_adapter@_W@__crt_stdio_output@@@__crt_stdio_output@@IEAA@AEBV?$stream_output_adapter@_W@1@AEB_KAEBQEB_WAEBQEAU__crt_locale_pointers@@AEBQEAD@Z 000000018003a1d0 f i libucrtd:output.obj
 0001:00039240       ??$?0AEBV?$string_output_adapter@D@__crt_stdio_output@@AEB_KAEBQEBDAEBQEAU__crt_locale_pointers@@AEBQEAD@?$format_validation_base@DV?$string_output_adapter@D@__crt_stdio_output@@@__crt_stdio_output@@IEAA@AEBV?$string_output_adapter@D@1@AEB_KAEBQEBDAEBQEAU__crt_locale_pointers@@AEBQEAD@Z 000000018003a240 f i libucrtd:output.obj
 0001:00039290       ??$?0AEBV?$string_output_adapter@D@__crt_stdio_output@@AEB_KAEBQEBDAEBQEAU__crt_locale_pointers@@AEBQEAD@?$standard_base@DV?$string_output_adapter@D@__crt_stdio_output@@@__crt_stdio_output@@IEAA@AEBV?$string_output_adapter@D@1@AEB_KAEBQEBDAEBQEAU__crt_locale_pointers@@AEBQEAD@Z 000000018003a290 f i libucrtd:output.obj
 0001:00039300       ??$?0AEBV?$string_output_adapter@_W@__crt_stdio_output@@AEB_KAEBQEB_WAEBQEAU__crt_locale_pointers@@AEBQEAD@?$format_validation_base@_WV?$string_output_adapter@_W@__crt_stdio_output@@@__crt_stdio_output@@IEAA@AEBV?$string_output_adapter@_W@1@AEB_KAEBQEB_WAEBQEAU__crt_locale_pointers@@AEBQEAD@Z 000000018003a300 f i libucrtd:output.obj
 0001:00039350       ??$?RV<lambda_7b91131dde12e1c3dfc74ff76b3f2eac>@@AEAV<lambda_dd75445284c072d0bd3768540cc698fa>@@V<lambda_16bc4ecb55b4718497c16bceaea2ceaf>@@@?$__crt_seh_guarded_call@H@@QEAAH$$QEAV<lambda_7b91131dde12e1c3dfc74ff76b3f2eac>@@AEAV<lambda_dd75445284c072d0bd3768540cc698fa>@@$$QEAV<lambda_16bc4ecb55b4718497c16bceaea2ceaf>@@@Z 000000018003a350 f i libucrtd:output.obj
 0001:000393a0       ??$__acrt_lock_stream_and_call@V<lambda_dd75445284c072d0bd3768540cc698fa>@@@@YAHQEAU_iobuf@@$$QEAV<lambda_dd75445284c072d0bd3768540cc698fa>@@@Z 000000018003a3a0 f i libucrtd:output.obj
 0001:0003b3b0       ??$count@D@formatting_buffer@__crt_stdio_output@@QEBA_KXZ 000000018003c3b0 f i libucrtd:output.obj
 0001:0003b400       ??$data@_W@formatting_buffer@__crt_stdio_output@@QEAAPEA_WXZ 000000018003c400 f i libucrtd:output.obj
 0001:0003b400       ??$data@D@formatting_buffer@__crt_stdio_output@@QEAAPEADXZ 000000018003c400 f i libucrtd:output.obj
 0001:0003b450       ??$ensure_buffer_is_big_enough@D@formatting_buffer@__crt_stdio_output@@QEAA_N_K@Z 000000018003c450 f i libucrtd:output.obj
 0001:0003b580       ??$extract_argument_from_va_list@C_J@?$standard_base@_WV?$stream_output_adapter@_W@__crt_stdio_output@@@__crt_stdio_output@@IEAA_NAEA_J@Z 000000018003c580 f i libucrtd:output.obj
 0001:0003b580       ??$extract_argument_from_va_list@C_J@?$standard_base@_WV?$string_output_adapter@_W@__crt_stdio_output@@@__crt_stdio_output@@IEAA_NAEA_J@Z 000000018003c580 f i libucrtd:output.obj
 0001:0003b580       ??$extract_argument_from_va_list@C_J@?$standard_base@DV?$string_output_adapter@D@__crt_stdio_output@@@__crt_stdio_output@@IEAA_NAEA_J@Z 000000018003c580 f i libucrtd:output.obj
 0001:0003b5c0       ??$extract_argument_from_va_list@E_J@?$standard_base@_WV?$stream_output_adapter@_W@__crt_stdio_output@@@__crt_stdio_output@@IEAA_NAEA_J@Z 000000018003c5c0 f i libucrtd:output.obj
 0001:0003b5c0       ??$extract_argument_from_va_list@E_J@?$standard_base@_WV?$string_output_adapter@_W@__crt_stdio_output@@@__crt_stdio_output@@IEAA_NAEA_J@Z 000000018003c5c0 f i libucrtd:output.obj
 0001:0003b5c0       ??$extract_argument_from_va_list@E_J@?$standard_base@DV?$string_output_adapter@D@__crt_stdio_output@@@__crt_stdio_output@@IEAA_NAEA_J@Z 000000018003c5c0 f i libucrtd:output.obj
 0001:0003b600       ??$extract_argument_from_va_list@F_J@?$standard_base@_WV?$stream_output_adapter@_W@__crt_stdio_output@@@__crt_stdio_output@@IEAA_NAEA_J@Z 000000018003c600 f i libucrtd:output.obj
 0001:0003b600       ??$extract_argument_from_va_list@F_J@?$standard_base@_WV?$string_output_adapter@_W@__crt_stdio_output@@@__crt_stdio_output@@IEAA_NAEA_J@Z 000000018003c600 f i libucrtd:output.obj
 0001:0003b600       ??$extract_argument_from_va_list@F_J@?$standard_base@DV?$string_output_adapter@D@__crt_stdio_output@@@__crt_stdio_output@@IEAA_NAEA_J@Z 000000018003c600 f i libucrtd:output.obj
 0001:0003b640       ??$extract_argument_from_va_list@GD@?$standard_base@DV?$string_output_adapter@D@__crt_stdio_output@@@__crt_stdio_output@@IEAA_NAEAD@Z 000000018003c640 f i libucrtd:output.obj
 0001:0003b670       ??$extract_argument_from_va_list@G_J@?$standard_base@DV?$string_output_adapter@D@__crt_stdio_output@@@__crt_stdio_output@@IEAA_NAEA_J@Z 000000018003c670 f i libucrtd:output.obj
 0001:0003b670       ??$extract_argument_from_va_list@G_J@?$standard_base@_WV?$string_output_adapter@_W@__crt_stdio_output@@@__crt_stdio_output@@IEAA_NAEA_J@Z 000000018003c670 f i libucrtd:output.obj
 0001:0003b670       ??$extract_argument_from_va_list@G_J@?$standard_base@_WV?$stream_output_adapter@_W@__crt_stdio_output@@@__crt_stdio_output@@IEAA_NAEA_J@Z 000000018003c670 f i libucrtd:output.obj
 0001:0003b6b0       ??$extract_argument_from_va_list@H_J@?$standard_base@DV?$string_output_adapter@D@__crt_stdio_output@@@__crt_stdio_output@@IEAA_NAEA_J@Z 000000018003c6b0 f i libucrtd:output.obj
 0001:0003b6b0       ??$extract_argument_from_va_list@H_J@?$standard_base@_WV?$stream_output_adapter@_W@__crt_stdio_output@@@__crt_stdio_output@@IEAA_NAEA_J@Z 000000018003c6b0 f i libucrtd:output.obj
 0001:0003b6b0       ??$extract_argument_from_va_list@H_J@?$standard_base@_WV?$string_output_adapter@_W@__crt_stdio_output@@@__crt_stdio_output@@IEAA_NAEA_J@Z 000000018003c6b0 f i libucrtd:output.obj
 0001:0003b6e0       ??$extract_argument_from_va_list@I_J@?$standard_base@_WV?$stream_output_adapter@_W@__crt_stdio_output@@@__crt_stdio_output@@IEAA_NAEA_J@Z 000000018003c6e0 f i libucrtd:output.obj
 0001:0003b6e0       ??$extract_argument_from_va_list@I_J@?$standard_base@DV?$string_output_adapter@D@__crt_stdio_output@@@__crt_stdio_output@@IEAA_NAEA_J@Z 000000018003c6e0 f i libucrtd:output.obj
 0001:0003b6e0       ??$extract_argument_from_va_list@I_J@?$standard_base@_WV?$string_output_adapter@_W@__crt_stdio_output@@@__crt_stdio_output@@IEAA_NAEA_J@Z 000000018003c6e0 f i libucrtd:output.obj
 0001:0003b710       ??$extract_argument_from_va_list@_J_J@?$standard_base@_WV?$string_output_adapter@_W@__crt_stdio_output@@@__crt_stdio_output@@IEAA_NAEA_J@Z 000000018003c710 f i libucrtd:output.obj
 0001:0003b710       ??$extract_argument_from_va_list@_K_J@?$standard_base@_WV?$string_output_adapter@_W@__crt_stdio_output@@@__crt_stdio_output@@IEAA_NAEA_J@Z 000000018003c710 f i libucrtd:output.obj
 0001:0003b710       ??$extract_argument_from_va_list@_J_J@?$standard_base@_WV?$stream_output_adapter@_W@__crt_stdio_output@@@__crt_stdio_output@@IEAA_NAEA_J@Z 000000018003c710 f i libucrtd:output.obj
 0001:0003b710       ??$extract_argument_from_va_list@PEAUansi_string@?1??type_case_Z@?$output_processor@_WV?$string_output_adapter@_W@__crt_stdio_output@@V?$standard_base@_WV?$string_output_adapter@_W@__crt_stdio_output@@@2@@__crt_stdio_output@@AEAA_NXZ@PEAU1?1??234@AEAA_NXZ@@?$standard_base@_WV?$string_output_adapter@_W@__crt_stdio_output@@@__crt_stdio_output@@IEAA_NAEAPEAUansi_string@?1??type_case_Z@?$output_processor@_WV?$string_output_adapter@_W@__crt_stdio_output@@V?$standard_base@_WV?$string_output_adapter@_W@__crt_stdio_output@@@2@@1@AEAA_NXZ@@Z 000000018003c710 f i libucrtd:output.obj
 0001:0003b710       ??$extract_argument_from_va_list@_K_J@?$standard_base@DV?$string_output_adapter@D@__crt_stdio_output@@@__crt_stdio_output@@IEAA_NAEA_J@Z 000000018003c710 f i libucrtd:output.obj
 0001:0003b710       ??$extract_argument_from_va_list@PEADPEAD@?$standard_base@_WV?$string_output_adapter@_W@__crt_stdio_output@@@__crt_stdio_output@@IEAA_NAEAPEAD@Z 000000018003c710 f i libucrtd:output.obj
 0001:0003b710       ??$extract_argument_from_va_list@PEAXPEAX@?$standard_base@_WV?$string_output_adapter@_W@__crt_stdio_output@@@__crt_stdio_output@@IEAA_NAEAPEAX@Z 000000018003c710 f i libucrtd:output.obj
 0001:0003b710       ??$extract_argument_from_va_list@PEAUansi_string@?1??type_case_Z@?$output_processor@_WV?$string_output_adapter@_W@__crt_stdio_output@@V?$format_validation_base@_WV?$string_output_adapter@_W@__crt_stdio_output@@@2@@__crt_stdio_output@@AEAA_NXZ@PEAU1?1??234@AEAA_NXZ@@?$standard_base@_WV?$string_output_adapter@_W@__crt_stdio_output@@@__crt_stdio_output@@IEAA_NAEAPEAUansi_string@?1??type_case_Z@?$output_processor@_WV?$string_output_adapter@_W@__crt_stdio_output@@V?$format_validation_base@_WV?$string_output_adapter@_W@__crt_stdio_output@@@2@@1@AEAA_NXZ@@Z 000000018003c710 f i libucrtd:output.obj
 0001:0003b710       ??$extract_argument_from_va_list@PEAUansi_string@?1??type_case_Z@?$output_processor@DV?$string_output_adapter@D@__crt_stdio_output@@V?$format_validation_base@DV?$string_output_adapter@D@__crt_stdio_output@@@2@@__crt_stdio_output@@AEAA_NXZ@PEAU1?1??234@AEAA_NXZ@@?$standard_base@DV?$string_output_adapter@D@__crt_stdio_output@@@__crt_stdio_output@@IEAA_NAEAPEAUansi_string@?1??type_case_Z@?$output_processor@DV?$string_output_adapter@D@__crt_stdio_output@@V?$format_validation_base@DV?$string_output_adapter@D@__crt_stdio_output@@@2@@1@AEAA_NXZ@@Z 000000018003c710 f i libucrtd:output.obj
 0001:0003b710       ??$extract_argument_from_va_list@PEADPEAD@?$standard_base@DV?$string_output_adapter@D@__crt_stdio_output@@@__crt_stdio_output@@IEAA_NAEAPEAD@Z 000000018003c710 f i libucrtd:output.obj
 0001:0003b710       ??$extract_argument_from_va_list@_K_J@?$standard_base@_WV?$stream_output_adapter@_W@__crt_stdio_output@@@__crt_stdio_output@@IEAA_NAEA_J@Z 000000018003c710 f i libucrtd:output.obj
 0001:0003b710       ??$extract_argument_from_va_list@_J_J@?$standard_base@DV?$string_output_adapter@D@__crt_stdio_output@@@__crt_stdio_output@@IEAA_NAEA_J@Z 000000018003c710 f i libucrtd:output.obj
 0001:0003b710       ??$extract_argument_from_va_list@PEAXPEAX@?$standard_base@_WV?$stream_output_adapter@_W@__crt_stdio_output@@@__crt_stdio_output@@IEAA_NAEAPEAX@Z 000000018003c710 f i libucrtd:output.obj
 0001:0003b710       ??$extract_argument_from_va_list@PEAXPEAX@?$standard_base@DV?$string_output_adapter@D@__crt_stdio_output@@@__crt_stdio_output@@IEAA_NAEAPEAX@Z 000000018003c710 f i libucrtd:output.obj
 0001:0003b710       ??$extract_argument_from_va_list@PEAUansi_string@?1??type_case_Z@?$output_processor@_WV?$stream_output_adapter@_W@__crt_stdio_output@@V?$standard_base@_WV?$stream_output_adapter@_W@__crt_stdio_output@@@2@@__crt_stdio_output@@AEAA_NXZ@PEAU1?1??234@AEAA_NXZ@@?$standard_base@_WV?$stream_output_adapter@_W@__crt_stdio_output@@@__crt_stdio_output@@IEAA_NAEAPEAUansi_string@?1??type_case_Z@?$output_processor@_WV?$stream_output_adapter@_W@__crt_stdio_output@@V?$standard_base@_WV?$stream_output_adapter@_W@__crt_stdio_output@@@2@@1@AEAA_NXZ@@Z 000000018003c710 f i libucrtd:output.obj
 0001:0003b710       ??$extract_argument_from_va_list@PEADPEAD@?$standard_base@_WV?$stream_output_adapter@_W@__crt_stdio_output@@@__crt_stdio_output@@IEAA_NAEAPEAD@Z 000000018003c710 f i libucrtd:output.obj
 0001:0003b740       ??$extract_argument_from_va_list@U_CRT_DOUBLE@@U1@@?$standard_base@_WV?$string_output_adapter@_W@__crt_stdio_output@@@__crt_stdio_output@@IEAA_NAEAU_CRT_DOUBLE@@@Z 000000018003c740 f i libucrtd:output.obj
 0001:0003b740       ??$extract_argument_from_va_list@U_CRT_DOUBLE@@U1@@?$standard_base@DV?$string_output_adapter@D@__crt_stdio_output@@@__crt_stdio_output@@IEAA_NAEAU_CRT_DOUBLE@@@Z 000000018003c740 f i libucrtd:output.obj
 0001:0003b740       ??$extract_argument_from_va_list@U_CRT_DOUBLE@@U1@@?$standard_base@_WV?$stream_output_adapter@_W@__crt_stdio_output@@@__crt_stdio_output@@IEAA_NAEAU_CRT_DOUBLE@@@Z 000000018003c740 f i libucrtd:output.obj
 0001:0003b790       ??$extract_argument_from_va_list@_W_W@?$standard_base@_WV?$string_output_adapter@_W@__crt_stdio_output@@@__crt_stdio_output@@IEAA_NAEA_W@Z 000000018003c790 f i libucrtd:output.obj
 0001:0003b790       ??$extract_argument_from_va_list@_W_W@?$standard_base@_WV?$stream_output_adapter@_W@__crt_stdio_output@@@__crt_stdio_output@@IEAA_NAEA_W@Z 000000018003c790 f i libucrtd:output.obj
 0001:0003b790       ??$extract_argument_from_va_list@_W_W@?$standard_base@DV?$string_output_adapter@D@__crt_stdio_output@@@__crt_stdio_output@@IEAA_NAEA_W@Z 000000018003c790 f i libucrtd:output.obj
 0001:0003b7c0       ??$is_wide_character_specifier@D@__crt_stdio_output@@YA_N_KDW4length_modifier@0@@Z 000000018003c7c0 f i libucrtd:output.obj
 0001:0003b860       ??$is_wide_character_specifier@_W@__crt_stdio_output@@YA_N_K_WW4length_modifier@0@@Z 000000018003c860 f i libucrtd:output.obj
 0001:0003b930       ??$puttc_nolock@AEB_WPEAU_iobuf@@@?$__crt_char_traits@_W@@SAGAEB_W$$QEAPEAU_iobuf@@@Z 000000018003c930 f i libucrtd:output.obj
 0001:0003b960       ??$read_va_arg@E@__crt_stdio_output@@YAEAEAPEAD@Z 000000018003c960 f i libucrtd:output.obj
 0001:0003b960       ??$read_va_arg@C@__crt_stdio_output@@YACAEAPEAD@Z 000000018003c960 f i libucrtd:output.obj
 0001:0003b9d0       ??$read_va_arg@F@__crt_stdio_output@@YAFAEAPEAD@Z 000000018003c9d0 f i libucrtd:output.obj
 0001:0003b9d0       ??$read_va_arg@_W@__crt_stdio_output@@YA_WAEAPEAD@Z 000000018003c9d0 f i libucrtd:output.obj
 0001:0003b9d0       ??$read_va_arg@G@__crt_stdio_output@@YAGAEAPEAD@Z 000000018003c9d0 f i libucrtd:output.obj
 0001:0003ba40       ??$read_va_arg@H@__crt_stdio_output@@YAHAEAPEAD@Z 000000018003ca40 f i libucrtd:output.obj
 0001:0003ba40       ??$read_va_arg@I@__crt_stdio_output@@YAIAEAPEAD@Z 000000018003ca40 f i libucrtd:output.obj
 0001:0003baa0       ??$read_va_arg@PEAUansi_string@?1??type_case_Z@?$output_processor@_WV?$string_output_adapter@_W@__crt_stdio_output@@V?$standard_base@_WV?$string_output_adapter@_W@__crt_stdio_output@@@2@@__crt_stdio_output@@AEAA_NXZ@@__crt_stdio_output@@YAPEAUansi_string@?1??type_case_Z@?$output_processor@_WV?$string_output_adapter@_W@__crt_stdio_output@@V?$standard_base@_WV?$string_output_adapter@_W@__crt_stdio_output@@@2@@0@AEAA_NXZ@AEAPEAD@Z 000000018003caa0 f i libucrtd:output.obj
 0001:0003baa0       ??$read_va_arg@_K@__crt_stdio_output@@YA_KAEAPEAD@Z 000000018003caa0 f i libucrtd:output.obj
 0001:0003baa0       ??$read_va_arg@U_CRT_DOUBLE@@@__crt_stdio_output@@YA?AU_CRT_DOUBLE@@AEAPEAD@Z 000000018003caa0 f i libucrtd:output.obj
 0001:0003baa0       ??$read_va_arg@PEAD@__crt_stdio_output@@YAPEADAEAPEAD@Z 000000018003caa0 f i libucrtd:output.obj
 0001:0003baa0       ??$read_va_arg@PEAUansi_string@?1??type_case_Z@?$output_processor@_WV?$stream_output_adapter@_W@__crt_stdio_output@@V?$standard_base@_WV?$stream_output_adapter@_W@__crt_stdio_output@@@2@@__crt_stdio_output@@AEAA_NXZ@@__crt_stdio_output@@YAPEAUansi_string@?1??type_case_Z@?$output_processor@_WV?$stream_output_adapter@_W@__crt_stdio_output@@V?$standard_base@_WV?$stream_output_adapter@_W@__crt_stdio_output@@@2@@0@AEAA_NXZ@AEAPEAD@Z 000000018003caa0 f i libucrtd:output.obj
 0001:0003baa0       ??$read_va_arg@_J@__crt_stdio_output@@YA_JAEAPEAD@Z 000000018003caa0 f i libucrtd:output.obj
 0001:0003baa0       ??$read_va_arg@PEAUansi_string@?1??type_case_Z@?$output_processor@_WV?$string_output_adapter@_W@__crt_stdio_output@@V?$format_validation_base@_WV?$string_output_adapter@_W@__crt_stdio_output@@@2@@__crt_stdio_output@@AEAA_NXZ@@__crt_stdio_output@@YAPEAUansi_string@?1??type_case_Z@?$output_processor@_WV?$string_output_adapter@_W@__crt_stdio_output@@V?$format_validation_base@_WV?$string_output_adapter@_W@__crt_stdio_output@@@2@@0@AEAA_NXZ@AEAPEAD@Z 000000018003caa0 f i libucrtd:output.obj
 0001:0003baa0       ??$read_va_arg@PEAX@__crt_stdio_output@@YAPEAXAEAPEAD@Z 000000018003caa0 f i libucrtd:output.obj
 0001:0003baa0       ??$read_va_arg@PEAUansi_string@?1??type_case_Z@?$output_processor@DV?$string_output_adapter@D@__crt_stdio_output@@V?$format_validation_base@DV?$string_output_adapter@D@__crt_stdio_output@@@2@@__crt_stdio_output@@AEAA_NXZ@@__crt_stdio_output@@YAPEAUansi_string@?1??type_case_Z@?$output_processor@DV?$string_output_adapter@D@__crt_stdio_output@@V?$format_validation_base@DV?$string_output_adapter@D@__crt_stdio_output@@@2@@0@AEAA_NXZ@AEAPEAD@Z 000000018003caa0 f i libucrtd:output.obj
 0001:0003bb10       ??$scratch_count@D@formatting_buffer@__crt_stdio_output@@QEBA_KXZ 000000018003cb10 f i libucrtd:output.obj
 0001:0003bb30       ??$scratch_data@D@formatting_buffer@__crt_stdio_output@@QEAAPEADXZ 000000018003cb30 f i libucrtd:output.obj
 0001:0003bba0       ??$tcstol@PEBDPEAPEADH@?$__crt_char_traits@D@@SAJ$$QEAPEBD$$QEAPEAPEAD$$QEAH@Z 000000018003cba0 f i libucrtd:output.obj
 0001:0003bbe0       ??$tcstol@PEB_WPEAPEA_WH@?$__crt_char_traits@_W@@SAJ$$QEAPEB_W$$QEAPEAPEA_W$$QEAH@Z 000000018003cbe0 f i libucrtd:output.obj
 0001:0003bc20       ??$type_case_integer_parse_into_buffer@I@?$output_processor@DV?$string_output_adapter@D@__crt_stdio_output@@V?$format_validation_base@DV?$string_output_adapter@D@__crt_stdio_output@@@2@@__crt_stdio_output@@AEAAXII_N@Z 000000018003cc20 f i libucrtd:output.obj
 0001:0003bd40       ??$type_case_integer_parse_into_buffer@I@?$output_processor@_WV?$string_output_adapter@_W@__crt_stdio_output@@V?$format_validation_base@_WV?$string_output_adapter@_W@__crt_stdio_output@@@2@@__crt_stdio_output@@AEAAXII_N@Z 000000018003cd40 f i libucrtd:output.obj
 0001:0003bd40       ??$type_case_integer_parse_into_buffer@I@?$output_processor@_WV?$stream_output_adapter@_W@__crt_stdio_output@@V?$standard_base@_WV?$stream_output_adapter@_W@__crt_stdio_output@@@2@@__crt_stdio_output@@AEAAXII_N@Z 000000018003cd40 f i libucrtd:output.obj
 0001:0003bd40       ??$type_case_integer_parse_into_buffer@I@?$output_processor@_WV?$string_output_adapter@_W@__crt_stdio_output@@V?$standard_base@_WV?$string_output_adapter@_W@__crt_stdio_output@@@2@@__crt_stdio_output@@AEAAXII_N@Z 000000018003cd40 f i libucrtd:output.obj
 0001:0003be70       ??$type_case_integer_parse_into_buffer@_K@?$output_processor@DV?$string_output_adapter@D@__crt_stdio_output@@V?$format_validation_base@DV?$string_output_adapter@D@__crt_stdio_output@@@2@@__crt_stdio_output@@AEAAX_KI_N@Z 000000018003ce70 f i libucrtd:output.obj
 0001:0003bfc0       ??$type_case_integer_parse_into_buffer@_K@?$output_processor@_WV?$string_output_adapter@_W@__crt_stdio_output@@V?$standard_base@_WV?$string_output_adapter@_W@__crt_stdio_output@@@2@@__crt_stdio_output@@AEAAX_KI_N@Z 000000018003cfc0 f i libucrtd:output.obj
 0001:0003bfc0       ??$type_case_integer_parse_into_buffer@_K@?$output_processor@_WV?$string_output_adapter@_W@__crt_stdio_output@@V?$format_validation_base@_WV?$string_output_adapter@_W@__crt_stdio_output@@@2@@__crt_stdio_output@@AEAAX_KI_N@Z 000000018003cfc0 f i libucrtd:output.obj
 0001:0003bfc0       ??$type_case_integer_parse_into_buffer@_K@?$output_processor@_WV?$stream_output_adapter@_W@__crt_stdio_output@@V?$standard_base@_WV?$stream_output_adapter@_W@__crt_stdio_output@@@2@@__crt_stdio_output@@AEAAX_KI_N@Z 000000018003cfc0 f i libucrtd:output.obj
 0001:0003c110       ??$write_multiple_characters@V?$stream_output_adapter@_W@__crt_stdio_output@@D@__crt_stdio_output@@YAXAEBV?$stream_output_adapter@_W@0@DHQEAH@Z 000000018003d110 f i libucrtd:output.obj
 0001:0003c170       ??$write_multiple_characters@V?$string_output_adapter@D@__crt_stdio_output@@D@__crt_stdio_output@@YAXAEBV?$string_output_adapter@D@0@DHQEAH@Z 000000018003d170 f i libucrtd:output.obj
 0001:0003c1d0       ??$write_multiple_characters@V?$string_output_adapter@_W@__crt_stdio_output@@D@__crt_stdio_output@@YAXAEBV?$string_output_adapter@_W@0@DHQEAH@Z 000000018003d1d0 f i libucrtd:output.obj
 0001:0003c2b0       ??0?$common_data@D@__crt_stdio_output@@IEAA@XZ 000000018003d2b0 f i libucrtd:output.obj
 0001:0003c380       ??0?$common_data@_W@__crt_stdio_output@@IEAA@XZ 000000018003d380 f i libucrtd:output.obj
 0001:0003c450       ??0?$output_adapter_data@DV?$string_output_adapter@D@__crt_stdio_output@@@__crt_stdio_output@@IEAA@AEBV?$string_output_adapter@D@1@_KQEBDQEAU__crt_locale_pointers@@QEAD@Z 000000018003d450 f i libucrtd:output.obj
 0001:0003c4d0       ??0?$output_adapter_data@_WV?$string_output_adapter@_W@__crt_stdio_output@@@__crt_stdio_output@@IEAA@AEBV?$string_output_adapter@_W@1@_KQEB_WQEAU__crt_locale_pointers@@QEAD@Z 000000018003d4d0 f i libucrtd:output.obj
 0001:0003c4d0       ??0?$output_adapter_data@_WV?$stream_output_adapter@_W@__crt_stdio_output@@@__crt_stdio_output@@IEAA@AEBV?$stream_output_adapter@_W@1@_KQEB_WQEAU__crt_locale_pointers@@QEAD@Z 000000018003d4d0 f i libucrtd:output.obj
 0001:0003c550       ??0?$output_processor@DV?$string_output_adapter@D@__crt_stdio_output@@V?$format_validation_base@DV?$string_output_adapter@D@__crt_stdio_output@@@2@@__crt_stdio_output@@QEAA@AEBV?$string_output_adapter@D@1@_KQEBDQEAU__crt_locale_pointers@@QEAD@Z 000000018003d550 f i libucrtd:output.obj
 0001:0003c5b0       ??0?$output_processor@_WV?$string_output_adapter@_W@__crt_stdio_output@@V?$format_validation_base@_WV?$string_output_adapter@_W@__crt_stdio_output@@@2@@__crt_stdio_output@@QEAA@AEBV?$string_output_adapter@_W@1@_KQEB_WQEAU__crt_locale_pointers@@QEAD@Z 000000018003d5b0 f i libucrtd:output.obj
 0001:0003c610       ??0?$output_processor@_WV?$stream_output_adapter@_W@__crt_stdio_output@@V?$standard_base@_WV?$stream_output_adapter@_W@__crt_stdio_output@@@2@@__crt_stdio_output@@QEAA@AEBV?$stream_output_adapter@_W@1@_KQEB_WQEAU__crt_locale_pointers@@QEAD@Z 000000018003d610 f i libucrtd:output.obj
 0001:0003c610       ??0?$output_processor@_WV?$string_output_adapter@_W@__crt_stdio_output@@V?$standard_base@_WV?$string_output_adapter@_W@__crt_stdio_output@@@2@@__crt_stdio_output@@QEAA@AEBV?$string_output_adapter@_W@1@_KQEB_WQEAU__crt_locale_pointers@@QEAD@Z 000000018003d610 f i libucrtd:output.obj
 0001:0003c670       ??0?$stream_output_adapter@_W@__crt_stdio_output@@QEAA@QEAU_iobuf@@@Z 000000018003d670 f i libucrtd:output.obj
 0001:0003c6a0       ??0__acrt_stdio_temporary_buffering_guard@@QEAA@QEAU_iobuf@@@Z 000000018003d6a0 f i libucrtd:output.obj
 0001:0003c6e0       ??0__crt_errno_guard@@QEAA@QEAH@Z 000000018003d6e0 f i libucrtd:output.obj
 0001:0003c720       ??0formatting_buffer@__crt_stdio_output@@QEAA@XZ 000000018003d720 f i libucrtd:output.obj
 0001:0003c760       ??1?$common_data@D@__crt_stdio_output@@QEAA@XZ 000000018003d760 f i libucrtd:output.obj
 0001:0003c760       ??1?$common_data@_W@__crt_stdio_output@@QEAA@XZ 000000018003d760 f i libucrtd:output.obj
 0001:0003c780       ??1?$output_adapter_data@_WV?$string_output_adapter@_W@__crt_stdio_output@@@__crt_stdio_output@@QEAA@XZ 000000018003d780 f i libucrtd:output.obj
 0001:0003c780       ??1?$output_adapter_data@DV?$string_output_adapter@D@__crt_stdio_output@@@__crt_stdio_output@@QEAA@XZ 000000018003d780 f i libucrtd:output.obj
 0001:0003c780       ??1?$output_adapter_data@_WV?$stream_output_adapter@_W@__crt_stdio_output@@@__crt_stdio_output@@QEAA@XZ 000000018003d780 f i libucrtd:output.obj
 0001:0003c7a0       ??1?$output_processor@_WV?$string_output_adapter@_W@__crt_stdio_output@@V?$format_validation_base@_WV?$string_output_adapter@_W@__crt_stdio_output@@@2@@__crt_stdio_output@@QEAA@XZ 000000018003d7a0 f i libucrtd:output.obj
 0001:0003c7a0       ??1?$output_processor@DV?$string_output_adapter@D@__crt_stdio_output@@V?$format_validation_base@DV?$string_output_adapter@D@__crt_stdio_output@@@2@@__crt_stdio_output@@QEAA@XZ 000000018003d7a0 f i libucrtd:output.obj
 0001:0003c7c0       ??1?$format_validation_base@DV?$string_output_adapter@D@__crt_stdio_output@@@__crt_stdio_output@@QEAA@XZ 000000018003d7c0 f i libucrtd:output.obj
 0001:0003c7c0       ??1?$format_validation_base@_WV?$string_output_adapter@_W@__crt_stdio_output@@@__crt_stdio_output@@QEAA@XZ 000000018003d7c0 f i libucrtd:output.obj
 0001:0003c7c0       ??1?$output_processor@_WV?$string_output_adapter@_W@__crt_stdio_output@@V?$standard_base@_WV?$string_output_adapter@_W@__crt_stdio_output@@@2@@__crt_stdio_output@@QEAA@XZ 000000018003d7c0 f i libucrtd:output.obj
 0001:0003c7c0       ??1?$output_processor@_WV?$stream_output_adapter@_W@__crt_stdio_output@@V?$standard_base@_WV?$stream_output_adapter@_W@__crt_stdio_output@@@2@@__crt_stdio_output@@QEAA@XZ 000000018003d7c0 f i libucrtd:output.obj
 0001:0003c7e0       ??1?$standard_base@_WV?$string_output_adapter@_W@__crt_stdio_output@@@__crt_stdio_output@@QEAA@XZ 000000018003d7e0 f i libucrtd:output.obj
 0001:0003c7e0       ??1?$standard_base@_WV?$stream_output_adapter@_W@__crt_stdio_output@@@__crt_stdio_output@@QEAA@XZ 000000018003d7e0 f i libucrtd:output.obj
 0001:0003c7e0       ??1?$standard_base@DV?$string_output_adapter@D@__crt_stdio_output@@@__crt_stdio_output@@QEAA@XZ 000000018003d7e0 f i libucrtd:output.obj
 0001:0003c800       ??1__acrt_stdio_temporary_buffering_guard@@QEAA@XZ 000000018003d800 f i libucrtd:output.obj
 0001:0003c830       ??1__crt_errno_guard@@QEAA@XZ 000000018003d830 f i libucrtd:output.obj
 0001:0003c860       ??1formatting_buffer@__crt_stdio_output@@QEAA@XZ 000000018003d860 f i libucrtd:output.obj
 0001:0003c890       ??4?$__crt_unique_heap_ptr@DU__crt_internal_free_policy@@@@QEAAAEAV0@$$QEAV0@@Z 000000018003d890 f i libucrtd:output.obj
 0001:0003ca00       ?adjust_hexit@?$output_processor@_WV?$stream_output_adapter@_W@__crt_stdio_output@@V?$standard_base@_WV?$stream_output_adapter@_W@__crt_stdio_output@@@2@@__crt_stdio_output@@CADH_N@Z 000000018003da00 f i libucrtd:output.obj
 0001:0003ca00       ?adjust_hexit@?$output_processor@_WV?$string_output_adapter@_W@__crt_stdio_output@@V?$standard_base@_WV?$string_output_adapter@_W@__crt_stdio_output@@@2@@__crt_stdio_output@@CADH_N@Z 000000018003da00 f i libucrtd:output.obj
 0001:0003ca00       ?adjust_hexit@?$output_processor@DV?$string_output_adapter@D@__crt_stdio_output@@V?$format_validation_base@DV?$string_output_adapter@D@__crt_stdio_output@@@2@@__crt_stdio_output@@CADH_N@Z 000000018003da00 f i libucrtd:output.obj
 0001:0003ca00       ?adjust_hexit@?$output_processor@_WV?$string_output_adapter@_W@__crt_stdio_output@@V?$format_validation_base@_WV?$string_output_adapter@_W@__crt_stdio_output@@@2@@__crt_stdio_output@@CADH_N@Z 000000018003da00 f i libucrtd:output.obj
 0001:0003ca50       ?advance_to_next_pass@?$standard_base@DV?$string_output_adapter@D@__crt_stdio_output@@@__crt_stdio_output@@IEAA_NXZ 000000018003da50 f i libucrtd:output.obj
 0001:0003ca50       ?advance_to_next_pass@?$standard_base@_WV?$string_output_adapter@_W@__crt_stdio_output@@@__crt_stdio_output@@IEAA_NXZ 000000018003da50 f i libucrtd:output.obj
 0001:0003ca50       ?advance_to_next_pass@?$standard_base@_WV?$stream_output_adapter@_W@__crt_stdio_output@@@__crt_stdio_output@@IEAA_NXZ 000000018003da50 f i libucrtd:output.obj
 0001:0003caa0       ?crop_zeroes@__crt_stdio_output@@YAXPEADQEAU__crt_locale_pointers@@@Z 000000018003daa0 f i libucrtd:output.obj
 0001:0003cbe0       ?find_next_state@?$output_processor@DV?$string_output_adapter@D@__crt_stdio_output@@V?$format_validation_base@DV?$string_output_adapter@D@__crt_stdio_output@@@2@@__crt_stdio_output@@AEBA?AW4state@2@DW432@@Z 000000018003dbe0 f i libucrtd:output.obj
 0001:0003cc80       ?find_next_state@?$output_processor@_WV?$string_output_adapter@_W@__crt_stdio_output@@V?$format_validation_base@_WV?$string_output_adapter@_W@__crt_stdio_output@@@2@@__crt_stdio_output@@AEBA?AW4state@2@_WW432@@Z 000000018003dc80 f i libucrtd:output.obj
 0001:0003cd20       ?find_next_state@?$output_processor@_WV?$string_output_adapter@_W@__crt_stdio_output@@V?$standard_base@_WV?$string_output_adapter@_W@__crt_stdio_output@@@2@@__crt_stdio_output@@AEBA?AW4state@2@_WW432@@Z 000000018003dd20 f i libucrtd:output.obj
 0001:0003cd20       ?find_next_state@?$output_processor@_WV?$stream_output_adapter@_W@__crt_stdio_output@@V?$standard_base@_WV?$stream_output_adapter@_W@__crt_stdio_output@@@2@@__crt_stdio_output@@AEBA?AW4state@2@_WW432@@Z 000000018003dd20 f i libucrtd:output.obj
 0001:0003cdc0       ?force_decimal_point@__crt_stdio_output@@YAXPEADQEAU__crt_locale_pointers@@@Z 000000018003ddc0 f i libucrtd:output.obj
 0001:0003cea0       ?has_flag@?$output_processor@_WV?$stream_output_adapter@_W@__crt_stdio_output@@V?$standard_base@_WV?$stream_output_adapter@_W@__crt_stdio_output@@@2@@__crt_stdio_output@@AEBA_NI@Z 000000018003dea0 f i libucrtd:output.obj
 0001:0003cea0       ?has_flag@?$output_processor@_WV?$string_output_adapter@_W@__crt_stdio_output@@V?$format_validation_base@_WV?$string_output_adapter@_W@__crt_stdio_output@@@2@@__crt_stdio_output@@AEBA_NI@Z 000000018003dea0 f i libucrtd:output.obj
 0001:0003cea0       ?has_flag@?$output_processor@DV?$string_output_adapter@D@__crt_stdio_output@@V?$format_validation_base@DV?$string_output_adapter@D@__crt_stdio_output@@@2@@__crt_stdio_output@@AEBA_NI@Z 000000018003dea0 f i libucrtd:output.obj
 0001:0003cea0       ?has_flag@?$output_processor@_WV?$string_output_adapter@_W@__crt_stdio_output@@V?$standard_base@_WV?$string_output_adapter@_W@__crt_stdio_output@@@2@@__crt_stdio_output@@AEBA_NI@Z 000000018003dea0 f i libucrtd:output.obj
 0001:0003cee0       ?narrow_null_string@?$output_processor@DV?$string_output_adapter@D@__crt_stdio_output@@V?$format_validation_base@DV?$string_output_adapter@D@__crt_stdio_output@@@2@@__crt_stdio_output@@CAPEADXZ 000000018003dee0 f i libucrtd:output.obj
 0001:0003cee0       ?narrow_null_string@?$output_processor@_WV?$string_output_adapter@_W@__crt_stdio_output@@V?$standard_base@_WV?$string_output_adapter@_W@__crt_stdio_output@@@2@@__crt_stdio_output@@CAPEADXZ 000000018003dee0 f i libucrtd:output.obj
 0001:0003cee0       ?narrow_null_string@?$output_processor@_WV?$stream_output_adapter@_W@__crt_stdio_output@@V?$standard_base@_WV?$stream_output_adapter@_W@__crt_stdio_output@@@2@@__crt_stdio_output@@CAPEADXZ 000000018003dee0 f i libucrtd:output.obj
 0001:0003cee0       ?narrow_null_string@?$output_processor@_WV?$string_output_adapter@_W@__crt_stdio_output@@V?$format_validation_base@_WV?$string_output_adapter@_W@__crt_stdio_output@@@2@@__crt_stdio_output@@CAPEADXZ 000000018003dee0 f i libucrtd:output.obj
 0001:0003cef0       ?parse_int_from_format_string@?$output_processor@DV?$string_output_adapter@D@__crt_stdio_output@@V?$format_validation_base@DV?$string_output_adapter@D@__crt_stdio_output@@@2@@__crt_stdio_output@@AEAA_NQEAH@Z 000000018003def0 f i libucrtd:output.obj
 0001:0003cfd0       ?parse_int_from_format_string@?$output_processor@_WV?$stream_output_adapter@_W@__crt_stdio_output@@V?$standard_base@_WV?$stream_output_adapter@_W@__crt_stdio_output@@@2@@__crt_stdio_output@@AEAA_NQEAH@Z 000000018003dfd0 f i libucrtd:output.obj
 0001:0003cfd0       ?parse_int_from_format_string@?$output_processor@_WV?$string_output_adapter@_W@__crt_stdio_output@@V?$standard_base@_WV?$string_output_adapter@_W@__crt_stdio_output@@@2@@__crt_stdio_output@@AEAA_NQEAH@Z 000000018003dfd0 f i libucrtd:output.obj
 0001:0003cfd0       ?parse_int_from_format_string@?$output_processor@_WV?$string_output_adapter@_W@__crt_stdio_output@@V?$format_validation_base@_WV?$string_output_adapter@_W@__crt_stdio_output@@@2@@__crt_stdio_output@@AEAA_NQEAH@Z 000000018003dfd0 f i libucrtd:output.obj
 0001:0003d0b0       ?process@?$output_processor@DV?$string_output_adapter@D@__crt_stdio_output@@V?$format_validation_base@DV?$string_output_adapter@D@__crt_stdio_output@@@2@@__crt_stdio_output@@QEAAHXZ 000000018003e0b0 f i libucrtd:output.obj
 0001:0003d410       ?process@?$output_processor@_WV?$stream_output_adapter@_W@__crt_stdio_output@@V?$standard_base@_WV?$stream_output_adapter@_W@__crt_stdio_output@@@2@@__crt_stdio_output@@QEAAHXZ 000000018003e410 f i libucrtd:output.obj
 0001:0003d770       ?process@?$output_processor@_WV?$string_output_adapter@_W@__crt_stdio_output@@V?$format_validation_base@_WV?$string_output_adapter@_W@__crt_stdio_output@@@2@@__crt_stdio_output@@QEAAHXZ 000000018003e770 f i libucrtd:output.obj
 0001:0003dad0       ?process@?$output_processor@_WV?$string_output_adapter@_W@__crt_stdio_output@@V?$standard_base@_WV?$string_output_adapter@_W@__crt_stdio_output@@@2@@__crt_stdio_output@@QEAAHXZ 000000018003ead0 f i libucrtd:output.obj
 0001:0003de30       ?set_flag@?$output_processor@_WV?$string_output_adapter@_W@__crt_stdio_output@@V?$format_validation_base@_WV?$string_output_adapter@_W@__crt_stdio_output@@@2@@__crt_stdio_output@@AEAAXI@Z 000000018003ee30 f i libucrtd:output.obj
 0001:0003de30       ?set_flag@?$output_processor@DV?$string_output_adapter@D@__crt_stdio_output@@V?$format_validation_base@DV?$string_output_adapter@D@__crt_stdio_output@@@2@@__crt_stdio_output@@AEAAXI@Z 000000018003ee30 f i libucrtd:output.obj
 0001:0003de30       ?set_flag@?$output_processor@_WV?$stream_output_adapter@_W@__crt_stdio_output@@V?$standard_base@_WV?$stream_output_adapter@_W@__crt_stdio_output@@@2@@__crt_stdio_output@@AEAAXI@Z 000000018003ee30 f i libucrtd:output.obj
 0001:0003de30       ?set_flag@?$output_processor@_WV?$string_output_adapter@_W@__crt_stdio_output@@V?$standard_base@_WV?$string_output_adapter@_W@__crt_stdio_output@@@2@@__crt_stdio_output@@AEAAXI@Z 000000018003ee30 f i libucrtd:output.obj
 0001:0003de50       ?should_skip_normal_state_processing@?$standard_base@DV?$string_output_adapter@D@__crt_stdio_output@@@__crt_stdio_output@@IEAA_NXZ 000000018003ee50 f i libucrtd:output.obj
 0001:0003de50       ?should_skip_type_state_output@?$standard_base@DV?$string_output_adapter@D@__crt_stdio_output@@@__crt_stdio_output@@IEBA_NXZ 000000018003ee50 f i libucrtd:output.obj
 0001:0003de50       ?should_skip_normal_state_processing@?$standard_base@_WV?$stream_output_adapter@_W@__crt_stdio_output@@@__crt_stdio_output@@IEAA_NXZ 000000018003ee50 f i libucrtd:output.obj
 0001:0003de50       ?should_skip_normal_state_processing@?$standard_base@_WV?$string_output_adapter@_W@__crt_stdio_output@@@__crt_stdio_output@@IEAA_NXZ 000000018003ee50 f i libucrtd:output.obj
 0001:0003de50       ?should_skip_type_state_output@?$standard_base@_WV?$string_output_adapter@_W@__crt_stdio_output@@@__crt_stdio_output@@IEBA_NXZ 000000018003ee50 f i libucrtd:output.obj
 0001:0003de50       ?should_skip_type_state_output@?$standard_base@_WV?$stream_output_adapter@_W@__crt_stdio_output@@@__crt_stdio_output@@IEBA_NXZ 000000018003ee50 f i libucrtd:output.obj
 0001:0003de60       ?state_case_dot@?$output_processor@_WV?$string_output_adapter@_W@__crt_stdio_output@@V?$standard_base@_WV?$string_output_adapter@_W@__crt_stdio_output@@@2@@__crt_stdio_output@@AEAA_NXZ 000000018003ee60 f i libucrtd:output.obj
 0001:0003de60       ?state_case_dot@?$output_processor@_WV?$string_output_adapter@_W@__crt_stdio_output@@V?$format_validation_base@_WV?$string_output_adapter@_W@__crt_stdio_output@@@2@@__crt_stdio_output@@AEAA_NXZ 000000018003ee60 f i libucrtd:output.obj
 0001:0003de60       ?state_case_dot@?$output_processor@_WV?$stream_output_adapter@_W@__crt_stdio_output@@V?$standard_base@_WV?$stream_output_adapter@_W@__crt_stdio_output@@@2@@__crt_stdio_output@@AEAA_NXZ 000000018003ee60 f i libucrtd:output.obj
 0001:0003de60       ?state_case_dot@?$output_processor@DV?$string_output_adapter@D@__crt_stdio_output@@V?$format_validation_base@DV?$string_output_adapter@D@__crt_stdio_output@@@2@@__crt_stdio_output@@AEAA_NXZ 000000018003ee60 f i libucrtd:output.obj
 0001:0003de80       ?state_case_flag@?$output_processor@DV?$string_output_adapter@D@__crt_stdio_output@@V?$format_validation_base@DV?$string_output_adapter@D@__crt_stdio_output@@@2@@__crt_stdio_output@@AEAA_NXZ 000000018003ee80 f i libucrtd:output.obj
 0001:0003df20       ?state_case_flag@?$output_processor@_WV?$stream_output_adapter@_W@__crt_stdio_output@@V?$standard_base@_WV?$stream_output_adapter@_W@__crt_stdio_output@@@2@@__crt_stdio_output@@AEAA_NXZ 000000018003ef20 f i libucrtd:output.obj
 0001:0003df20       ?state_case_flag@?$output_processor@_WV?$string_output_adapter@_W@__crt_stdio_output@@V?$standard_base@_WV?$string_output_adapter@_W@__crt_stdio_output@@@2@@__crt_stdio_output@@AEAA_NXZ 000000018003ef20 f i libucrtd:output.obj
 0001:0003df20       ?state_case_flag@?$output_processor@_WV?$string_output_adapter@_W@__crt_stdio_output@@V?$format_validation_base@_WV?$string_output_adapter@_W@__crt_stdio_output@@@2@@__crt_stdio_output@@AEAA_NXZ 000000018003ef20 f i libucrtd:output.obj
 0001:0003dfc0       ?state_case_normal@?$output_processor@DV?$string_output_adapter@D@__crt_stdio_output@@V?$format_validation_base@DV?$string_output_adapter@D@__crt_stdio_output@@@2@@__crt_stdio_output@@AEAA_NXZ 000000018003efc0 f i libucrtd:output.obj
 0001:0003e0a0       ?state_case_normal@?$output_processor@_WV?$stream_output_adapter@_W@__crt_stdio_output@@V?$standard_base@_WV?$stream_output_adapter@_W@__crt_stdio_output@@@2@@__crt_stdio_output@@AEAA_NXZ 000000018003f0a0 f i libucrtd:output.obj
 0001:0003e180       ?state_case_normal@?$output_processor@_WV?$string_output_adapter@_W@__crt_stdio_output@@V?$format_validation_base@_WV?$string_output_adapter@_W@__crt_stdio_output@@@2@@__crt_stdio_output@@AEAA_NXZ 000000018003f180 f i libucrtd:output.obj
 0001:0003e260       ?state_case_normal@?$output_processor@_WV?$string_output_adapter@_W@__crt_stdio_output@@V?$standard_base@_WV?$string_output_adapter@_W@__crt_stdio_output@@@2@@__crt_stdio_output@@AEAA_NXZ 000000018003f260 f i libucrtd:output.obj
 0001:0003e340       ?state_case_normal_common@?$output_processor@DV?$string_output_adapter@D@__crt_stdio_output@@V?$format_validation_base@DV?$string_output_adapter@D@__crt_stdio_output@@@2@@__crt_stdio_output@@AEAA_NXZ 000000018003f340 f i libucrtd:output.obj
 0001:0003e390       ?state_case_normal_common@?$output_processor@_WV?$stream_output_adapter@_W@__crt_stdio_output@@V?$standard_base@_WV?$stream_output_adapter@_W@__crt_stdio_output@@@2@@__crt_stdio_output@@AEAA_NXZ 000000018003f390 f i libucrtd:output.obj
 0001:0003e3e0       ?state_case_normal_common@?$output_processor@_WV?$string_output_adapter@_W@__crt_stdio_output@@V?$standard_base@_WV?$string_output_adapter@_W@__crt_stdio_output@@@2@@__crt_stdio_output@@AEAA_NXZ 000000018003f3e0 f i libucrtd:output.obj
 0001:0003e3e0       ?state_case_normal_common@?$output_processor@_WV?$string_output_adapter@_W@__crt_stdio_output@@V?$format_validation_base@_WV?$string_output_adapter@_W@__crt_stdio_output@@@2@@__crt_stdio_output@@AEAA_NXZ 000000018003f3e0 f i libucrtd:output.obj
 0001:0003e430       ?state_case_normal_tchar@?$output_processor@DV?$string_output_adapter@D@__crt_stdio_output@@V?$format_validation_base@DV?$string_output_adapter@D@__crt_stdio_output@@@2@@__crt_stdio_output@@AEAA_ND@Z 000000018003f430 f i libucrtd:output.obj
 0001:0003e570       ?state_case_normal_tchar@?$output_processor@_WV?$string_output_adapter@_W@__crt_stdio_output@@V?$standard_base@_WV?$string_output_adapter@_W@__crt_stdio_output@@@2@@__crt_stdio_output@@AEAA_N_W@Z 000000018003f570 f i libucrtd:output.obj
 0001:0003e570       ?state_case_normal_tchar@?$output_processor@_WV?$stream_output_adapter@_W@__crt_stdio_output@@V?$standard_base@_WV?$stream_output_adapter@_W@__crt_stdio_output@@@2@@__crt_stdio_output@@AEAA_N_W@Z 000000018003f570 f i libucrtd:output.obj
 0001:0003e570       ?state_case_normal_tchar@?$output_processor@_WV?$string_output_adapter@_W@__crt_stdio_output@@V?$format_validation_base@_WV?$string_output_adapter@_W@__crt_stdio_output@@@2@@__crt_stdio_output@@AEAA_N_W@Z 000000018003f570 f i libucrtd:output.obj
 0001:0003e590       ?state_case_percent@?$output_processor@_WV?$stream_output_adapter@_W@__crt_stdio_output@@V?$standard_base@_WV?$stream_output_adapter@_W@__crt_stdio_output@@@2@@__crt_stdio_output@@AEAA_NXZ 000000018003f590 f i libucrtd:output.obj
 0001:0003e590       ?state_case_percent@?$output_processor@DV?$string_output_adapter@D@__crt_stdio_output@@V?$format_validation_base@DV?$string_output_adapter@D@__crt_stdio_output@@@2@@__crt_stdio_output@@AEAA_NXZ 000000018003f590 f i libucrtd:output.obj
 0001:0003e590       ?state_case_percent@?$output_processor@_WV?$string_output_adapter@_W@__crt_stdio_output@@V?$format_validation_base@_WV?$string_output_adapter@_W@__crt_stdio_output@@@2@@__crt_stdio_output@@AEAA_NXZ 000000018003f590 f i libucrtd:output.obj
 0001:0003e590       ?state_case_percent@?$output_processor@_WV?$string_output_adapter@_W@__crt_stdio_output@@V?$standard_base@_WV?$string_output_adapter@_W@__crt_stdio_output@@@2@@__crt_stdio_output@@AEAA_NXZ 000000018003f590 f i libucrtd:output.obj
 0001:0003e5e0       ?state_case_precision@?$output_processor@DV?$string_output_adapter@D@__crt_stdio_output@@V?$format_validation_base@DV?$string_output_adapter@D@__crt_stdio_output@@@2@@__crt_stdio_output@@AEAA_NXZ 000000018003f5e0 f i libucrtd:output.obj
 0001:0003e660       ?state_case_precision@?$output_processor@_WV?$string_output_adapter@_W@__crt_stdio_output@@V?$format_validation_base@_WV?$string_output_adapter@_W@__crt_stdio_output@@@2@@__crt_stdio_output@@AEAA_NXZ 000000018003f660 f i libucrtd:output.obj
 0001:0003e660       ?state_case_precision@?$output_processor@_WV?$stream_output_adapter@_W@__crt_stdio_output@@V?$standard_base@_WV?$stream_output_adapter@_W@__crt_stdio_output@@@2@@__crt_stdio_output@@AEAA_NXZ 000000018003f660 f i libucrtd:output.obj
 0001:0003e660       ?state_case_precision@?$output_processor@_WV?$string_output_adapter@_W@__crt_stdio_output@@V?$standard_base@_WV?$string_output_adapter@_W@__crt_stdio_output@@@2@@__crt_stdio_output@@AEAA_NXZ 000000018003f660 f i libucrtd:output.obj
 0001:0003e6e0       ?state_case_size@?$output_processor@DV?$string_output_adapter@D@__crt_stdio_output@@V?$format_validation_base@DV?$string_output_adapter@D@__crt_stdio_output@@@2@@__crt_stdio_output@@AEAA_NXZ 000000018003f6e0 f i libucrtd:output.obj
 0001:0003eb60       ?state_case_size@?$output_processor@_WV?$stream_output_adapter@_W@__crt_stdio_output@@V?$standard_base@_WV?$stream_output_adapter@_W@__crt_stdio_output@@@2@@__crt_stdio_output@@AEAA_NXZ 000000018003fb60 f i libucrtd:output.obj
 0001:0003efe0       ?state_case_size@?$output_processor@_WV?$string_output_adapter@_W@__crt_stdio_output@@V?$format_validation_base@_WV?$string_output_adapter@_W@__crt_stdio_output@@@2@@__crt_stdio_output@@AEAA_NXZ 000000018003ffe0 f i libucrtd:output.obj
 0001:0003f460       ?state_case_size@?$output_processor@_WV?$string_output_adapter@_W@__crt_stdio_output@@V?$standard_base@_WV?$string_output_adapter@_W@__crt_stdio_output@@@2@@__crt_stdio_output@@AEAA_NXZ 0000000180040460 f i libucrtd:output.obj
 0001:0003f8e0       ?state_case_type@?$output_processor@DV?$string_output_adapter@D@__crt_stdio_output@@V?$format_validation_base@DV?$string_output_adapter@D@__crt_stdio_output@@@2@@__crt_stdio_output@@AEAA_NXZ 00000001800408e0 f i libucrtd:output.obj
 0001:0003fd70       ?state_case_type@?$output_processor@_WV?$stream_output_adapter@_W@__crt_stdio_output@@V?$standard_base@_WV?$stream_output_adapter@_W@__crt_stdio_output@@@2@@__crt_stdio_output@@AEAA_NXZ 0000000180040d70 f i libucrtd:output.obj
 0001:00040240       ?state_case_type@?$output_processor@_WV?$string_output_adapter@_W@__crt_stdio_output@@V?$format_validation_base@_WV?$string_output_adapter@_W@__crt_stdio_output@@@2@@__crt_stdio_output@@AEAA_NXZ 0000000180041240 f i libucrtd:output.obj
 0001:00040710       ?state_case_type@?$output_processor@_WV?$string_output_adapter@_W@__crt_stdio_output@@V?$standard_base@_WV?$string_output_adapter@_W@__crt_stdio_output@@@2@@__crt_stdio_output@@AEAA_NXZ 0000000180041710 f i libucrtd:output.obj
 0001:00040be0       ?state_case_width@?$output_processor@DV?$string_output_adapter@D@__crt_stdio_output@@V?$format_validation_base@DV?$string_output_adapter@D@__crt_stdio_output@@@2@@__crt_stdio_output@@AEAA_NXZ 0000000180041be0 f i libucrtd:output.obj
 0001:00040c70       ?state_case_width@?$output_processor@_WV?$stream_output_adapter@_W@__crt_stdio_output@@V?$standard_base@_WV?$stream_output_adapter@_W@__crt_stdio_output@@@2@@__crt_stdio_output@@AEAA_NXZ 0000000180041c70 f i libucrtd:output.obj
 0001:00040c70       ?state_case_width@?$output_processor@_WV?$string_output_adapter@_W@__crt_stdio_output@@V?$standard_base@_WV?$string_output_adapter@_W@__crt_stdio_output@@@2@@__crt_stdio_output@@AEAA_NXZ 0000000180041c70 f i libucrtd:output.obj
 0001:00040c70       ?state_case_width@?$output_processor@_WV?$string_output_adapter@_W@__crt_stdio_output@@V?$format_validation_base@_WV?$string_output_adapter@_W@__crt_stdio_output@@@2@@__crt_stdio_output@@AEAA_NXZ 0000000180041c70 f i libucrtd:output.obj
 0001:00040d00       ?state_count@?$format_validation_base@DV?$string_output_adapter@D@__crt_stdio_output@@@__crt_stdio_output@@KAIXZ 0000000180041d00 f i libucrtd:output.obj
 0001:00040d00       ?state_count@?$format_validation_base@_WV?$string_output_adapter@_W@__crt_stdio_output@@@__crt_stdio_output@@KAIXZ 0000000180041d00 f i libucrtd:output.obj
 0001:00040d10       ?state_count@?$standard_base@_WV?$stream_output_adapter@_W@__crt_stdio_output@@@__crt_stdio_output@@KAIXZ 0000000180041d10 f i libucrtd:output.obj
 0001:00040d10       ?state_count@?$standard_base@_WV?$string_output_adapter@_W@__crt_stdio_output@@@__crt_stdio_output@@KAIXZ 0000000180041d10 f i libucrtd:output.obj
 0001:00040d20       ?state_transition_table@?$format_validation_base@_WV?$string_output_adapter@_W@__crt_stdio_output@@@__crt_stdio_output@@KAPEBEXZ 0000000180041d20 f i libucrtd:output.obj
 0001:00040d20       ?state_transition_table@?$format_validation_base@DV?$string_output_adapter@D@__crt_stdio_output@@@__crt_stdio_output@@KAPEBEXZ 0000000180041d20 f i libucrtd:output.obj
 0001:00040d30       ?state_transition_table@?$standard_base@_WV?$stream_output_adapter@_W@__crt_stdio_output@@@__crt_stdio_output@@KAPEBEXZ 0000000180041d30 f i libucrtd:output.obj
 0001:00040d30       ?state_transition_table@?$standard_base@_WV?$string_output_adapter@_W@__crt_stdio_output@@@__crt_stdio_output@@KAPEBEXZ 0000000180041d30 f i libucrtd:output.obj
 0001:00040d40       ?to_integer_size@__crt_stdio_output@@YA_KW4length_modifier@1@@Z 0000000180041d40 f i libucrtd:output.obj
 0001:00040df0       ?type_case_X@?$output_processor@DV?$string_output_adapter@D@__crt_stdio_output@@V?$format_validation_base@DV?$string_output_adapter@D@__crt_stdio_output@@@2@@__crt_stdio_output@@AEAA_NXZ 0000000180041df0 f i libucrtd:output.obj
 0001:00040e10       ?type_case_X@?$output_processor@_WV?$stream_output_adapter@_W@__crt_stdio_output@@V?$standard_base@_WV?$stream_output_adapter@_W@__crt_stdio_output@@@2@@__crt_stdio_output@@AEAA_NXZ 0000000180041e10 f i libucrtd:output.obj
 0001:00040e30       ?type_case_X@?$output_processor@_WV?$string_output_adapter@_W@__crt_stdio_output@@V?$format_validation_base@_WV?$string_output_adapter@_W@__crt_stdio_output@@@2@@__crt_stdio_output@@AEAA_NXZ 0000000180041e30 f i libucrtd:output.obj
 0001:00040e50       ?type_case_X@?$output_processor@_WV?$string_output_adapter@_W@__crt_stdio_output@@V?$standard_base@_WV?$string_output_adapter@_W@__crt_stdio_output@@@2@@__crt_stdio_output@@AEAA_NXZ 0000000180041e50 f i libucrtd:output.obj
 0001:00040e70       ?type_case_Z@?$output_processor@DV?$string_output_adapter@D@__crt_stdio_output@@V?$format_validation_base@DV?$string_output_adapter@D@__crt_stdio_output@@@2@@__crt_stdio_output@@AEAA_NXZ 0000000180041e70 f i libucrtd:output.obj
 0001:00040f90       ?type_case_Z@?$output_processor@_WV?$string_output_adapter@_W@__crt_stdio_output@@V?$format_validation_base@_WV?$string_output_adapter@_W@__crt_stdio_output@@@2@@__crt_stdio_output@@AEAA_NXZ 0000000180041f90 f i libucrtd:output.obj
 0001:00040f90       ?type_case_Z@?$output_processor@_WV?$string_output_adapter@_W@__crt_stdio_output@@V?$standard_base@_WV?$string_output_adapter@_W@__crt_stdio_output@@@2@@__crt_stdio_output@@AEAA_NXZ 0000000180041f90 f i libucrtd:output.obj
 0001:00040f90       ?type_case_Z@?$output_processor@_WV?$stream_output_adapter@_W@__crt_stdio_output@@V?$standard_base@_WV?$stream_output_adapter@_W@__crt_stdio_output@@@2@@__crt_stdio_output@@AEAA_NXZ 0000000180041f90 f i libucrtd:output.obj
 0001:000410b0       ?type_case_a@?$output_processor@DV?$string_output_adapter@D@__crt_stdio_output@@V?$format_validation_base@DV?$string_output_adapter@D@__crt_stdio_output@@@2@@__crt_stdio_output@@AEAA_NXZ 00000001800420b0 f i libucrtd:output.obj
 0001:00041460       ?type_case_a@?$output_processor@_WV?$string_output_adapter@_W@__crt_stdio_output@@V?$standard_base@_WV?$string_output_adapter@_W@__crt_stdio_output@@@2@@__crt_stdio_output@@AEAA_NXZ 0000000180042460 f i libucrtd:output.obj
 0001:00041460       ?type_case_a@?$output_processor@_WV?$string_output_adapter@_W@__crt_stdio_output@@V?$format_validation_base@_WV?$string_output_adapter@_W@__crt_stdio_output@@@2@@__crt_stdio_output@@AEAA_NXZ 0000000180042460 f i libucrtd:output.obj
 0001:00041460       ?type_case_a@?$output_processor@_WV?$stream_output_adapter@_W@__crt_stdio_output@@V?$standard_base@_WV?$stream_output_adapter@_W@__crt_stdio_output@@@2@@__crt_stdio_output@@AEAA_NXZ 0000000180042460 f i libucrtd:output.obj
 0001:00041810       ?type_case_c@?$output_processor@DV?$string_output_adapter@D@__crt_stdio_output@@V?$format_validation_base@DV?$string_output_adapter@D@__crt_stdio_output@@@2@@__crt_stdio_output@@AEAA_NXZ 0000000180042810 f i libucrtd:output.obj
 0001:00041830       ?type_case_c@?$output_processor@_WV?$string_output_adapter@_W@__crt_stdio_output@@V?$standard_base@_WV?$string_output_adapter@_W@__crt_stdio_output@@@2@@__crt_stdio_output@@AEAA_NXZ 0000000180042830 f i libucrtd:output.obj
 0001:00041830       ?type_case_c@?$output_processor@_WV?$stream_output_adapter@_W@__crt_stdio_output@@V?$standard_base@_WV?$stream_output_adapter@_W@__crt_stdio_output@@@2@@__crt_stdio_output@@AEAA_NXZ 0000000180042830 f i libucrtd:output.obj
 0001:00041830       ?type_case_c@?$output_processor@_WV?$string_output_adapter@_W@__crt_stdio_output@@V?$format_validation_base@_WV?$string_output_adapter@_W@__crt_stdio_output@@@2@@__crt_stdio_output@@AEAA_NXZ 0000000180042830 f i libucrtd:output.obj
 0001:00041850       ?type_case_c_tchar@?$output_processor@DV?$string_output_adapter@D@__crt_stdio_output@@V?$format_validation_base@DV?$string_output_adapter@D@__crt_stdio_output@@@2@@__crt_stdio_output@@AEAA_ND@Z 0000000180042850 f i libucrtd:output.obj
 0001:000419a0       ?type_case_c_tchar@?$output_processor@_WV?$string_output_adapter@_W@__crt_stdio_output@@V?$format_validation_base@_WV?$string_output_adapter@_W@__crt_stdio_output@@@2@@__crt_stdio_output@@AEAA_N_W@Z 00000001800429a0 f i libucrtd:output.obj
 0001:000419a0       ?type_case_c_tchar@?$output_processor@_WV?$stream_output_adapter@_W@__crt_stdio_output@@V?$standard_base@_WV?$stream_output_adapter@_W@__crt_stdio_output@@@2@@__crt_stdio_output@@AEAA_N_W@Z 00000001800429a0 f i libucrtd:output.obj
 0001:000419a0       ?type_case_c_tchar@?$output_processor@_WV?$string_output_adapter@_W@__crt_stdio_output@@V?$standard_base@_WV?$string_output_adapter@_W@__crt_stdio_output@@@2@@__crt_stdio_output@@AEAA_N_W@Z 00000001800429a0 f i libucrtd:output.obj
 0001:00041ad0       ?type_case_d@?$output_processor@DV?$string_output_adapter@D@__crt_stdio_output@@V?$format_validation_base@DV?$string_output_adapter@D@__crt_stdio_output@@@2@@__crt_stdio_output@@AEAA_NXZ 0000000180042ad0 f i libucrtd:output.obj
 0001:00041b00       ?type_case_d@?$output_processor@_WV?$stream_output_adapter@_W@__crt_stdio_output@@V?$standard_base@_WV?$stream_output_adapter@_W@__crt_stdio_output@@@2@@__crt_stdio_output@@AEAA_NXZ 0000000180042b00 f i libucrtd:output.obj
 0001:00041b30       ?type_case_d@?$output_processor@_WV?$string_output_adapter@_W@__crt_stdio_output@@V?$format_validation_base@_WV?$string_output_adapter@_W@__crt_stdio_output@@@2@@__crt_stdio_output@@AEAA_NXZ 0000000180042b30 f i libucrtd:output.obj
 0001:00041b60       ?type_case_d@?$output_processor@_WV?$string_output_adapter@_W@__crt_stdio_output@@V?$standard_base@_WV?$string_output_adapter@_W@__crt_stdio_output@@@2@@__crt_stdio_output@@AEAA_NXZ 0000000180042b60 f i libucrtd:output.obj
 0001:00041b90       ?type_case_integer@?$output_processor@DV?$string_output_adapter@D@__crt_stdio_output@@V?$format_validation_base@DV?$string_output_adapter@D@__crt_stdio_output@@@2@@__crt_stdio_output@@AEAA_NI_N@Z 0000000180042b90 f i libucrtd:output.obj
 0001:00041fc0       ?type_case_integer@?$output_processor@_WV?$stream_output_adapter@_W@__crt_stdio_output@@V?$standard_base@_WV?$stream_output_adapter@_W@__crt_stdio_output@@@2@@__crt_stdio_output@@AEAA_NI_N@Z 0000000180042fc0 f i libucrtd:output.obj
 0001:000423f0       ?type_case_integer@?$output_processor@_WV?$string_output_adapter@_W@__crt_stdio_output@@V?$format_validation_base@_WV?$string_output_adapter@_W@__crt_stdio_output@@@2@@__crt_stdio_output@@AEAA_NI_N@Z 00000001800433f0 f i libucrtd:output.obj
 0001:00042820       ?type_case_integer@?$output_processor@_WV?$string_output_adapter@_W@__crt_stdio_output@@V?$standard_base@_WV?$string_output_adapter@_W@__crt_stdio_output@@@2@@__crt_stdio_output@@AEAA_NI_N@Z 0000000180043820 f i libucrtd:output.obj
 0001:00042c50       ?type_case_n@?$output_processor@DV?$string_output_adapter@D@__crt_stdio_output@@V?$format_validation_base@DV?$string_output_adapter@D@__crt_stdio_output@@@2@@__crt_stdio_output@@AEAA_NXZ 0000000180043c50 f i libucrtd:output.obj
 0001:00042e90       ?type_case_n@?$output_processor@_WV?$stream_output_adapter@_W@__crt_stdio_output@@V?$standard_base@_WV?$stream_output_adapter@_W@__crt_stdio_output@@@2@@__crt_stdio_output@@AEAA_NXZ 0000000180043e90 f i libucrtd:output.obj
 0001:000430d0       ?type_case_n@?$output_processor@_WV?$string_output_adapter@_W@__crt_stdio_output@@V?$format_validation_base@_WV?$string_output_adapter@_W@__crt_stdio_output@@@2@@__crt_stdio_output@@AEAA_NXZ 00000001800440d0 f i libucrtd:output.obj
 0001:00043310       ?type_case_n@?$output_processor@_WV?$string_output_adapter@_W@__crt_stdio_output@@V?$standard_base@_WV?$string_output_adapter@_W@__crt_stdio_output@@@2@@__crt_stdio_output@@AEAA_NXZ 0000000180044310 f i libucrtd:output.obj
 0001:00043550       ?type_case_o@?$output_processor@DV?$string_output_adapter@D@__crt_stdio_output@@V?$format_validation_base@DV?$string_output_adapter@D@__crt_stdio_output@@@2@@__crt_stdio_output@@AEAA_NXZ 0000000180044550 f i libucrtd:output.obj
 0001:000435a0       ?type_case_o@?$output_processor@_WV?$stream_output_adapter@_W@__crt_stdio_output@@V?$standard_base@_WV?$stream_output_adapter@_W@__crt_stdio_output@@@2@@__crt_stdio_output@@AEAA_NXZ 00000001800445a0 f i libucrtd:output.obj
 0001:000435f0       ?type_case_o@?$output_processor@_WV?$string_output_adapter@_W@__crt_stdio_output@@V?$format_validation_base@_WV?$string_output_adapter@_W@__crt_stdio_output@@@2@@__crt_stdio_output@@AEAA_NXZ 00000001800445f0 f i libucrtd:output.obj
 0001:00043640       ?type_case_o@?$output_processor@_WV?$string_output_adapter@_W@__crt_stdio_output@@V?$standard_base@_WV?$string_output_adapter@_W@__crt_stdio_output@@@2@@__crt_stdio_output@@AEAA_NXZ 0000000180044640 f i libucrtd:output.obj
 0001:00043690       ?type_case_p@?$output_processor@DV?$string_output_adapter@D@__crt_stdio_output@@V?$format_validation_base@DV?$string_output_adapter@D@__crt_stdio_output@@@2@@__crt_stdio_output@@AEAA_NXZ 0000000180044690 f i libucrtd:output.obj
 0001:000436d0       ?type_case_p@?$output_processor@_WV?$stream_output_adapter@_W@__crt_stdio_output@@V?$standard_base@_WV?$stream_output_adapter@_W@__crt_stdio_output@@@2@@__crt_stdio_output@@AEAA_NXZ 00000001800446d0 f i libucrtd:output.obj
 0001:00043710       ?type_case_p@?$output_processor@_WV?$string_output_adapter@_W@__crt_stdio_output@@V?$format_validation_base@_WV?$string_output_adapter@_W@__crt_stdio_output@@@2@@__crt_stdio_output@@AEAA_NXZ 0000000180044710 f i libucrtd:output.obj
 0001:00043750       ?type_case_p@?$output_processor@_WV?$string_output_adapter@_W@__crt_stdio_output@@V?$standard_base@_WV?$string_output_adapter@_W@__crt_stdio_output@@@2@@__crt_stdio_output@@AEAA_NXZ 0000000180044750 f i libucrtd:output.obj
 0001:00043790       ?type_case_s@?$output_processor@DV?$string_output_adapter@D@__crt_stdio_output@@V?$format_validation_base@DV?$string_output_adapter@D@__crt_stdio_output@@@2@@__crt_stdio_output@@AEAA_NXZ 0000000180044790 f i libucrtd:output.obj
 0001:000438b0       ?type_case_s@?$output_processor@_WV?$stream_output_adapter@_W@__crt_stdio_output@@V?$standard_base@_WV?$stream_output_adapter@_W@__crt_stdio_output@@@2@@__crt_stdio_output@@AEAA_NXZ 00000001800448b0 f i libucrtd:output.obj
 0001:000438b0       ?type_case_s@?$output_processor@_WV?$string_output_adapter@_W@__crt_stdio_output@@V?$format_validation_base@_WV?$string_output_adapter@_W@__crt_stdio_output@@@2@@__crt_stdio_output@@AEAA_NXZ 00000001800448b0 f i libucrtd:output.obj
 0001:000438b0       ?type_case_s@?$output_processor@_WV?$string_output_adapter@_W@__crt_stdio_output@@V?$standard_base@_WV?$string_output_adapter@_W@__crt_stdio_output@@@2@@__crt_stdio_output@@AEAA_NXZ 00000001800448b0 f i libucrtd:output.obj
 0001:000439d0       ?type_case_s_compute_narrow_string_length@?$output_processor@DV?$string_output_adapter@D@__crt_stdio_output@@V?$format_validation_base@DV?$string_output_adapter@D@__crt_stdio_output@@@2@@__crt_stdio_output@@AEBAHHD@Z 00000001800449d0 f i libucrtd:output.obj
 0001:00043a00       ?type_case_s_compute_narrow_string_length@?$output_processor@_WV?$string_output_adapter@_W@__crt_stdio_output@@V?$format_validation_base@_WV?$string_output_adapter@_W@__crt_stdio_output@@@2@@__crt_stdio_output@@AEBAHH_W@Z 0000000180044a00 f i libucrtd:output.obj
 0001:00043a00       ?type_case_s_compute_narrow_string_length@?$output_processor@_WV?$string_output_adapter@_W@__crt_stdio_output@@V?$standard_base@_WV?$string_output_adapter@_W@__crt_stdio_output@@@2@@__crt_stdio_output@@AEBAHH_W@Z 0000000180044a00 f i libucrtd:output.obj
 0001:00043a00       ?type_case_s_compute_narrow_string_length@?$output_processor@_WV?$stream_output_adapter@_W@__crt_stdio_output@@V?$standard_base@_WV?$stream_output_adapter@_W@__crt_stdio_output@@@2@@__crt_stdio_output@@AEBAHH_W@Z 0000000180044a00 f i libucrtd:output.obj
 0001:00043a90       ?type_case_u@?$output_processor@DV?$string_output_adapter@D@__crt_stdio_output@@V?$format_validation_base@DV?$string_output_adapter@D@__crt_stdio_output@@@2@@__crt_stdio_output@@AEAA_NXZ 0000000180044a90 f i libucrtd:output.obj
 0001:00043ab0       ?type_case_u@?$output_processor@_WV?$stream_output_adapter@_W@__crt_stdio_output@@V?$standard_base@_WV?$stream_output_adapter@_W@__crt_stdio_output@@@2@@__crt_stdio_output@@AEAA_NXZ 0000000180044ab0 f i libucrtd:output.obj
 0001:00043ad0       ?type_case_u@?$output_processor@_WV?$string_output_adapter@_W@__crt_stdio_output@@V?$format_validation_base@_WV?$string_output_adapter@_W@__crt_stdio_output@@@2@@__crt_stdio_output@@AEAA_NXZ 0000000180044ad0 f i libucrtd:output.obj
 0001:00043af0       ?type_case_u@?$output_processor@_WV?$string_output_adapter@_W@__crt_stdio_output@@V?$standard_base@_WV?$string_output_adapter@_W@__crt_stdio_output@@@2@@__crt_stdio_output@@AEAA_NXZ 0000000180044af0 f i libucrtd:output.obj
 0001:00043b10       ?type_case_x@?$output_processor@DV?$string_output_adapter@D@__crt_stdio_output@@V?$format_validation_base@DV?$string_output_adapter@D@__crt_stdio_output@@@2@@__crt_stdio_output@@AEAA_NXZ 0000000180044b10 f i libucrtd:output.obj
 0001:00043b30       ?type_case_x@?$output_processor@_WV?$stream_output_adapter@_W@__crt_stdio_output@@V?$standard_base@_WV?$stream_output_adapter@_W@__crt_stdio_output@@@2@@__crt_stdio_output@@AEAA_NXZ 0000000180044b30 f i libucrtd:output.obj
 0001:00043b50       ?type_case_x@?$output_processor@_WV?$string_output_adapter@_W@__crt_stdio_output@@V?$format_validation_base@_WV?$string_output_adapter@_W@__crt_stdio_output@@@2@@__crt_stdio_output@@AEAA_NXZ 0000000180044b50 f i libucrtd:output.obj
 0001:00043b70       ?type_case_x@?$output_processor@_WV?$string_output_adapter@_W@__crt_stdio_output@@V?$standard_base@_WV?$string_output_adapter@_W@__crt_stdio_output@@@2@@__crt_stdio_output@@AEAA_NXZ 0000000180044b70 f i libucrtd:output.obj
 0001:00043b90       ?unset_flag@?$output_processor@_WV?$stream_output_adapter@_W@__crt_stdio_output@@V?$standard_base@_WV?$stream_output_adapter@_W@__crt_stdio_output@@@2@@__crt_stdio_output@@AEAAXI@Z 0000000180044b90 f i libucrtd:output.obj
 0001:00043b90       ?unset_flag@?$output_processor@_WV?$string_output_adapter@_W@__crt_stdio_output@@V?$format_validation_base@_WV?$string_output_adapter@_W@__crt_stdio_output@@@2@@__crt_stdio_output@@AEAAXI@Z 0000000180044b90 f i libucrtd:output.obj
 0001:00043b90       ?unset_flag@?$output_processor@_WV?$string_output_adapter@_W@__crt_stdio_output@@V?$standard_base@_WV?$string_output_adapter@_W@__crt_stdio_output@@@2@@__crt_stdio_output@@AEAAXI@Z 0000000180044b90 f i libucrtd:output.obj
 0001:00043b90       ?unset_flag@?$output_processor@DV?$string_output_adapter@D@__crt_stdio_output@@V?$format_validation_base@DV?$string_output_adapter@D@__crt_stdio_output@@@2@@__crt_stdio_output@@AEAAXI@Z 0000000180044b90 f i libucrtd:output.obj
 0001:00043bc0       ?update_field_width@?$standard_base@_WV?$stream_output_adapter@_W@__crt_stdio_output@@@__crt_stdio_output@@IEAA_NXZ 0000000180044bc0 f i libucrtd:output.obj
 0001:00043bc0       ?update_field_width@?$standard_base@_WV?$string_output_adapter@_W@__crt_stdio_output@@@__crt_stdio_output@@IEAA_NXZ 0000000180044bc0 f i libucrtd:output.obj
 0001:00043bc0       ?update_field_width@?$standard_base@DV?$string_output_adapter@D@__crt_stdio_output@@@__crt_stdio_output@@IEAA_NXZ 0000000180044bc0 f i libucrtd:output.obj
 0001:00043bf0       ?update_precision@?$standard_base@_WV?$string_output_adapter@_W@__crt_stdio_output@@@__crt_stdio_output@@IEAA_NXZ 0000000180044bf0 f i libucrtd:output.obj
 0001:00043bf0       ?update_precision@?$standard_base@DV?$string_output_adapter@D@__crt_stdio_output@@@__crt_stdio_output@@IEAA_NXZ 0000000180044bf0 f i libucrtd:output.obj
 0001:00043bf0       ?update_precision@?$standard_base@_WV?$stream_output_adapter@_W@__crt_stdio_output@@@__crt_stdio_output@@IEAA_NXZ 0000000180044bf0 f i libucrtd:output.obj
 0001:00043c20       ?validate@?$stream_output_adapter@_W@__crt_stdio_output@@QEBA_NXZ 0000000180044c20 f i libucrtd:output.obj
 0001:00043d00       ?validate@?$string_output_adapter@D@__crt_stdio_output@@QEBA_NXZ 0000000180044d00 f i libucrtd:output.obj
 0001:00043dc0       ?validate@?$string_output_adapter@_W@__crt_stdio_output@@QEBA_NXZ 0000000180044dc0 f i libucrtd:output.obj
 0001:00043e80       ?validate_and_update_state_at_end_of_format_string@?$format_validation_base@DV?$string_output_adapter@D@__crt_stdio_output@@@__crt_stdio_output@@IEBA_NXZ 0000000180044e80 f i libucrtd:output.obj
 0001:00043f40       ?validate_and_update_state_at_end_of_format_string@?$format_validation_base@_WV?$string_output_adapter@_W@__crt_stdio_output@@@__crt_stdio_output@@IEBA_NXZ 0000000180044f40 f i libucrtd:output.obj
 0001:00044000       ?should_format@?$standard_base@DV?$string_output_adapter@D@__crt_stdio_output@@@__crt_stdio_output@@IEAA_NXZ 0000000180045000 f i libucrtd:output.obj
 0001:00044000       ?validate_and_update_state_at_beginning_of_format_character@?$standard_base@DV?$string_output_adapter@D@__crt_stdio_output@@@__crt_stdio_output@@IEAA_NXZ 0000000180045000 f i libucrtd:output.obj
 0001:00044000       ?validate_state_for_type_case_a@?$standard_base@_WV?$stream_output_adapter@_W@__crt_stdio_output@@@__crt_stdio_output@@IEBA_NXZ 0000000180045000 f i libucrtd:output.obj
 0001:00044000       ?validate_and_update_state_at_beginning_of_format_character@?$standard_base@_WV?$stream_output_adapter@_W@__crt_stdio_output@@@__crt_stdio_output@@IEAA_NXZ 0000000180045000 f i libucrtd:output.obj
 0001:00044000       ?validate_and_update_state_at_beginning_of_format_character@?$standard_base@_WV?$string_output_adapter@_W@__crt_stdio_output@@@__crt_stdio_output@@IEAA_NXZ 0000000180045000 f i libucrtd:output.obj
 0001:00044000       ?validate_and_update_state_at_end_of_format_string@?$standard_base@_WV?$string_output_adapter@_W@__crt_stdio_output@@@__crt_stdio_output@@IEBA_NXZ 0000000180045000 f i libucrtd:output.obj
 0001:00044000       ?validate_stream_is_ansi_if_required@?$__acrt_stdio_char_traits@_W@@SA_NQEAU_iobuf@@@Z 0000000180045000 f i libucrtd:output.obj
 0001:00044000       ?validate_state_for_type_case_a@?$standard_base@_WV?$string_output_adapter@_W@__crt_stdio_output@@@__crt_stdio_output@@IEBA_NXZ 0000000180045000 f i libucrtd:output.obj
 0001:00044000       ?should_format@?$standard_base@_WV?$stream_output_adapter@_W@__crt_stdio_output@@@__crt_stdio_output@@IEAA_NXZ 0000000180045000 f i libucrtd:output.obj
 0001:00044000       ?should_format@?$standard_base@_WV?$string_output_adapter@_W@__crt_stdio_output@@@__crt_stdio_output@@IEAA_NXZ 0000000180045000 f i libucrtd:output.obj
 0001:00044000       ?validate_and_update_state_at_end_of_format_string@?$standard_base@_WV?$stream_output_adapter@_W@__crt_stdio_output@@@__crt_stdio_output@@IEBA_NXZ 0000000180045000 f i libucrtd:output.obj
 0001:00044000       ?validate_state_for_type_case_a@?$standard_base@DV?$string_output_adapter@D@__crt_stdio_output@@@__crt_stdio_output@@IEBA_NXZ 0000000180045000 f i libucrtd:output.obj
 0001:00044010       ?wide_null_string@?$output_processor@_WV?$string_output_adapter@_W@__crt_stdio_output@@V?$standard_base@_WV?$string_output_adapter@_W@__crt_stdio_output@@@2@@__crt_stdio_output@@CAPEA_WXZ 0000000180045010 f i libucrtd:output.obj
 0001:00044010       ?wide_null_string@?$output_processor@_WV?$stream_output_adapter@_W@__crt_stdio_output@@V?$standard_base@_WV?$stream_output_adapter@_W@__crt_stdio_output@@@2@@__crt_stdio_output@@CAPEA_WXZ 0000000180045010 f i libucrtd:output.obj
 0001:00044010       ?wide_null_string@?$output_processor@DV?$string_output_adapter@D@__crt_stdio_output@@V?$format_validation_base@DV?$string_output_adapter@D@__crt_stdio_output@@@2@@__crt_stdio_output@@CAPEA_WXZ 0000000180045010 f i libucrtd:output.obj
 0001:00044010       ?wide_null_string@?$output_processor@_WV?$string_output_adapter@_W@__crt_stdio_output@@V?$format_validation_base@_WV?$string_output_adapter@_W@__crt_stdio_output@@@2@@__crt_stdio_output@@CAPEA_WXZ 0000000180045010 f i libucrtd:output.obj
 0001:00044020       ?write_character@?$stream_output_adapter@_W@__crt_stdio_output@@QEBAX_WQEAH@Z 0000000180045020 f i libucrtd:output.obj
 0001:000440c0       ?write_character@?$string_output_adapter@D@__crt_stdio_output@@QEBA_NDQEAH@Z 00000001800450c0 f i libucrtd:output.obj
 0001:00044180       ?write_character@?$string_output_adapter@_W@__crt_stdio_output@@QEBA_N_WQEAH@Z 0000000180045180 f i libucrtd:output.obj
 0001:00044240       ?write_stored_string_tchar@?$output_processor@DV?$string_output_adapter@D@__crt_stdio_output@@V?$format_validation_base@DV?$string_output_adapter@D@__crt_stdio_output@@@2@@__crt_stdio_output@@AEAA_ND@Z 0000000180045240 f i libucrtd:output.obj
 0001:000443a0       ?write_stored_string_tchar@?$output_processor@_WV?$stream_output_adapter@_W@__crt_stdio_output@@V?$standard_base@_WV?$stream_output_adapter@_W@__crt_stdio_output@@@2@@__crt_stdio_output@@AEAA_N_W@Z 00000001800453a0 f i libucrtd:output.obj
 0001:000444e0       ?write_stored_string_tchar@?$output_processor@_WV?$string_output_adapter@_W@__crt_stdio_output@@V?$format_validation_base@_WV?$string_output_adapter@_W@__crt_stdio_output@@@2@@__crt_stdio_output@@AEAA_N_W@Z 00000001800454e0 f i libucrtd:output.obj
 0001:000444e0       ?write_stored_string_tchar@?$output_processor@_WV?$string_output_adapter@_W@__crt_stdio_output@@V?$standard_base@_WV?$string_output_adapter@_W@__crt_stdio_output@@@2@@__crt_stdio_output@@AEAA_N_W@Z 00000001800454e0 f i libucrtd:output.obj
 0001:00044620       ?write_string@?$stream_output_adapter@_W@__crt_stdio_output@@QEBAXQEB_WHQEAH1@Z 0000000180045620 f i libucrtd:output.obj
 0001:00044720       ?write_string@?$string_output_adapter@D@__crt_stdio_output@@QEBAXQEBDHQEAH1@Z 0000000180045720 f i libucrtd:output.obj
 0001:000448a0       ?write_string@?$string_output_adapter@_W@__crt_stdio_output@@QEBAXQEB_WHQEAH1@Z 00000001800458a0 f i libucrtd:output.obj
 0001:00044a30       __acrt_isleadbyte_l_noupdate 0000000180045a30 f i libucrtd:output.obj
 0001:00044a60       __stdio_common_vfwprintf   0000000180045a60 f   libucrtd:output.obj
 0001:00044aa0       __stdio_common_vsnprintf_s 0000000180045aa0 f   libucrtd:output.obj
 0001:00044b00       __stdio_common_vsnwprintf_s 0000000180045b00 f   libucrtd:output.obj
 0001:00044b60       __stdio_common_vsprintf_s  0000000180045b60 f   libucrtd:output.obj
 0001:00044bb0       __stdio_common_vswprintf   0000000180045bb0 f   libucrtd:output.obj
 0001:00044c00       ??$__crt_fast_decode_pointer@PEAX@@YAPEAXQEAX@Z 0000000180045c00 f i libvcruntimed:winapi_downlevel.obj
 0001:00044c00       ??$__crt_fast_decode_pointer@P6AXPEAXK0@Z@@YAP6AXPEAXK0@ZQ6AX0K0@Z@Z 0000000180045c00 f i libucrtd:exit.obj
 0001:00044c00       ??$__crt_fast_decode_pointer@P6AXPEB_W00I_K@Z@@YAP6AXPEB_W00I_K@ZQ6AX000I1@Z@Z 0000000180045c00 f i libucrtd:invalid_parameter.obj
 0001:00044c00       ??$__crt_fast_decode_pointer@PEAP6AXXZ@@YAPEAP6AXXZQEAP6AXXZ@Z 0000000180045c00 f i LIBCMTD:utility.obj
 0001:00044c00       ??$__crt_fast_decode_pointer@P6AXH@Z@@YAP6AXH@ZQ6AXH@Z@Z 0000000180045c00 f i libucrtd:signal.obj
 0001:00044c00       ??$__crt_fast_decode_pointer@P6AH_K@Z@@YAP6AH_K@ZQ6AH0@Z@Z 0000000180045c00 f i libucrtd:new_handler.obj
 0001:00044c00       ??$__crt_fast_decode_pointer@P6AXXZ@@YAP6AXXZQ6AXXZ@Z 0000000180045c00 f i libvcruntimed:purevirt.obj
 0001:00044c00       ??$__crt_fast_decode_pointer@P6AHPEAU_exception@@@Z@@YAP6AHPEAU_exception@@@ZQ6AH0@Z@Z 0000000180045c00 f i libucrtd:matherr.obj
 0001:00044ce0       __acrt_call_reportfault    0000000180045ce0 f   libucrtd:invalid_parameter.obj
 0001:00044e10       __acrt_initialize_invalid_parameter_handler 0000000180045e10 f   libucrtd:invalid_parameter.obj
 0001:00044e30       _invalid_parameter         0000000180045e30 f   libucrtd:invalid_parameter.obj
 0001:00044f40       _invalid_parameter_noinfo  0000000180045f40 f   libucrtd:invalid_parameter.obj
 0001:00044f70       _invoke_watson             0000000180045f70 f   libucrtd:invalid_parameter.obj
 0001:000451a0       __acrt_report_runtime_error 00000001800461a0 f   libucrtd:report_runtime_error.obj
 0001:00045420       _query_app_type            0000000180046420 f   libucrtd:report_runtime_error.obj
 0001:00045430       __acrt_errno_from_os_error 0000000180046430 f   libucrtd:errno.obj
 0001:000454c0       __acrt_errno_map_os_error  00000001800464c0 f   libucrtd:errno.obj
 0001:000454f0       __doserrno                 00000001800464f0 f   libucrtd:errno.obj
 0001:00045520       _errno                     0000000180046520 f   libucrtd:errno.obj
 0001:00046140       _itoa_s                    0000000180047140 f   libucrtd:xtoa.obj
 0001:000461a0       _itow_s                    00000001800471a0 f   libucrtd:xtoa.obj
 0001:00046200       _set_error_mode            0000000180047200 f   libucrtd:set_error_mode.obj
 0001:00046980       wcscat_s                   0000000180047980 f   libucrtd:wcscat_s.obj
 0001:00046e90       wcscpy_s                   0000000180047e90 f   libucrtd:wcscpy_s.obj
 0001:00047650       wcsncat_s                  0000000180048650 f   libucrtd:wcsncat_s.obj
 0001:00047cf0       strcat_s                   0000000180048cf0 f   libucrtd:strcat_s.obj
 0001:00047f10       ??$message_box@$$TAEAPEB_WAEAPEB_WAEAI@?$__crt_char_traits@_W@@SAH$$QEA$$TAEAPEB_W1AEAI@Z 0000000180048f10 f i libucrtd:crtmbox.obj
 0001:00047f10       ??$message_box@$$TAEBQEB_WAEBQEB_WK@?$__crt_char_traits@_W@@SAH$$QEA$$TAEBQEB_W1$$QEAK@Z 0000000180048f10 f i libucrtd:crtmbox.obj
 0001:00047f10       ??$message_box@PEAUHWND__@@AEBQEB_WAEBQEB_WAEBI@?$__crt_char_traits@_W@@SAH$$QEAPEAUHWND__@@AEBQEB_W1AEBI@Z 0000000180048f10 f i libucrtd:crtmbox.obj
 0001:00047fc0       ??$output_debug_string@AEBQEB_W@?$__crt_char_traits@_W@@SAXAEBQEB_W@Z 0000000180048fc0 f i libucrtd:crtmbox.obj
 0001:00047fe0       ??1?$__crt_unique_handle_t@U__crt_handle_traits@@@@QEAA@XZ 0000000180048fe0 f i libucrtd:crtmbox.obj
 0001:00048000       ??B?$__crt_unique_handle_t@U__crt_handle_traits@@@@QEBA_NXZ 0000000180049000 f i libucrtd:crtmbox.obj
 0001:00048020       ?close@?$__crt_unique_handle_t@U__crt_handle_traits@@@@QEAAXXZ 0000000180049020 f i libucrtd:crtmbox.obj
 0001:00048060       ?close@__crt_handle_traits@@SA_NPEAX@Z 0000000180049060 f i libucrtd:crtmbox.obj
 0001:000480a0       ?is_valid@?$__crt_unique_handle_t@U__crt_handle_traits@@@@QEBA_NXZ 00000001800490a0 f i libucrtd:crtmbox.obj
 0001:000480e0       __acrt_show_wide_message_box 00000001800490e0 f   libucrtd:crtmbox.obj
 0001:00048110       ??0?$__crt_unique_handle_t@U__crt_hmodule_traits@@@@QEAA@QEAUHINSTANCE__@@@Z 0000000180049110 f i libucrtd:exit.obj
 0001:00048110       ??0?$__crt_unique_heap_ptr@P6AXXZU__crt_internal_free_policy@@@@QEAA@QEAP6AXXZ@Z 0000000180049110 f i libucrtd:onexit.obj
 0001:00048110       ??0?$__crt_unique_heap_ptr@U__crt_multibyte_data@@U__crt_internal_free_policy@@@@QEAA@QEAU__crt_multibyte_data@@@Z 0000000180049110 f i libucrtd:wsetlocale.obj
 0001:00048110       ??0?$__crt_unique_heap_ptr@DU__crt_internal_free_policy@@@@QEAA@QEAD@Z 0000000180049110 f i libvcruntimed:std_type_info.obj
 0001:00048110       ??0?$string_output_adapter@D@__crt_stdio_output@@QEAA@QEAU?$string_output_adapter_context@D@1@@Z 0000000180049110 f i libucrtd:output.obj
 0001:00048110       ??0?$__crt_unique_heap_ptr@DU__crt_public_free_policy@@@@QEAA@QEAD@Z 0000000180049110 f i libvcruntimed:std_exception.obj
 0001:00048110       ??0?$__crt_unique_heap_ptr@U__crt_stdio_stream_data@@U__crt_internal_free_policy@@@@QEAA@QEAU__crt_stdio_stream_data@@@Z 0000000180049110 f i libucrtd:stream.obj
 0001:00048110       ??0?$string_output_adapter@_W@__crt_stdio_output@@QEAA@QEAU?$string_output_adapter_context@_W@1@@Z 0000000180049110 f i libucrtd:output.obj
 0001:00048110       ??0__crt_stdio_stream@@QEAA@QEAU__crt_stdio_stream_data@@@Z 0000000180049110 f i libucrtd:fflush.obj
 0001:00048110       ??0?$__crt_scoped_stack_ptr@_W@@QEAA@U?$__crt_scoped_stack_ptr_tag@_W@@@Z 0000000180049110 f i libucrtd:getstringtypea.obj
 0001:00048110       ??0?$__crt_unique_heap_ptr@PEAU__crt_stdio_stream_data@@U__crt_internal_free_policy@@@@QEAA@QEAPEAU__crt_stdio_stream_data@@@Z 0000000180049110 f i libucrtd:_file.obj
 0001:00048110       ??0__crt_stdio_stream@@QEAA@QEAU_iobuf@@@Z 0000000180049110 f i libucrtd:assert.obj
 0001:00048110       ??0?$__crt_unique_heap_ptr@U__acrt_ptd@@U__crt_internal_free_policy@@@@QEAA@QEAU__acrt_ptd@@@Z 0000000180049110 f i libucrtd:per_thread_data.obj
 0001:00048110       ??0?$__crt_unique_heap_ptr@U__vcrt_ptd@@U__crt_internal_free_policy@@@@QEAA@QEAU__vcrt_ptd@@@Z 0000000180049110 f i libvcruntimed:per_thread_data.obj
 0001:00048110       ??0?$__crt_scoped_stack_ptr_tag@_W@@QEAA@QEA_W@Z 0000000180049110 f i libucrtd:getstringtypea.obj
 0001:00048110       ??0?$__crt_unique_heap_ptr@U__crt_lowio_handle_data@@U__crt_internal_free_policy@@@@QEAA@QEAU__crt_lowio_handle_data@@@Z 0000000180049110 f i libucrtd:osfinfo.obj
 0001:00048110       ??0?$__crt_unique_handle_t@U__crt_handle_traits@@@@QEAA@QEAX@Z 0000000180049110 f i libucrtd:crtmbox.obj
 0001:00048130       __acrt_initialize_stdio    0000000180049130 f   libucrtd:_file.obj
 0001:00048320       __acrt_iob_func            0000000180049320 f   libucrtd:_file.obj
 0001:00048340       __acrt_uninitialize_stdio  0000000180049340 f   libucrtd:_file.obj
 0001:000483d0       _lock_file                 00000001800493d0 f   libucrtd:_file.obj
 0001:00048410       _unlock_file               0000000180049410 f   libucrtd:_file.obj
 0001:00048450       __acrt_stdio_flush_nolock  0000000180049450 f   libucrtd:fflush.obj
 0001:00048570       _fflush_nolock             0000000180049570 f   libucrtd:fflush.obj
 0001:00048600       _flushall                  0000000180049600 f   libucrtd:fflush.obj
 0001:00048790       fflush                     0000000180049790 f   libucrtd:fflush.obj
 0001:000487e0       ??$?RV<lambda_e8c63f3eaa5b5d1d090047a93e563945>@@AEAV<lambda_108d78a972a15edee025c8b3efe121dc>@@V<lambda_d99a45a39bf155923106577f928afec0>@@@?$__crt_seh_guarded_call@H@@QEAAH$$QEAV<lambda_e8c63f3eaa5b5d1d090047a93e563945>@@AEAV<lambda_108d78a972a15edee025c8b3efe121dc>@@$$QEAV<lambda_d99a45a39bf155923106577f928afec0>@@@Z 00000001800497e0 f i libucrtd:setvbuf.obj
 0001:00048830       ??$__acrt_lock_stream_and_call@V<lambda_108d78a972a15edee025c8b3efe121dc>@@@@YAHQEAU_iobuf@@$$QEAV<lambda_108d78a972a15edee025c8b3efe121dc>@@@Z 0000000180049830 f i libucrtd:setvbuf.obj
 0001:00048b30       setvbuf                    0000000180049b30 f   libucrtd:setvbuf.obj
 0001:00048df0       ??$?RV<lambda_c36588078e9f5dfd39652860aa6b3aaf>@@AEAV<lambda_ec61778202f4f5fc7e7711acc23c3bca>@@V<lambda_dc9d2797ccde5d239b4a0efae8ebd7db>@@@?$__crt_seh_guarded_call@P6AXH@Z@@QEAAP6AXH@Z$$QEAV<lambda_c36588078e9f5dfd39652860aa6b3aaf>@@AEAV<lambda_ec61778202f4f5fc7e7711acc23c3bca>@@$$QEAV<lambda_dc9d2797ccde5d239b4a0efae8ebd7db>@@@Z 0000000180049df0 f i libucrtd:signal.obj
 0001:00048e40       ??$__acrt_lock_and_call@V<lambda_ec61778202f4f5fc7e7711acc23c3bca>@@@@YAP6AXH@ZW4__acrt_lock_id@@$$QEAV<lambda_ec61778202f4f5fc7e7711acc23c3bca>@@@Z 0000000180049e40 f i libucrtd:signal.obj
 0001:00048f90       ?initialize@?$dual_state_global@P6AXPEB_W00I_K@Z@__crt_state_management@@QEAAXQ6AXPEB_W00I_K@Z@Z 0000000180049f90 f i libucrtd:invalid_parameter.obj
 0001:00048f90       ?initialize@?$dual_state_global@P6AHPEAU_exception@@@Z@__crt_state_management@@QEAAXQ6AHPEAU_exception@@@Z@Z 0000000180049f90 f i libucrtd:matherr.obj
 0001:00048f90       ?initialize@?$dual_state_global@PEAU__crt_locale_data@@@__crt_state_management@@QEAAXQEAU__crt_locale_data@@@Z 0000000180049f90 f i libucrtd:initialization.obj
 0001:00048f90       ?initialize@?$dual_state_global@P6AXH@Z@__crt_state_management@@QEAAXQ6AXH@Z@Z 0000000180049f90 f i libucrtd:signal.obj
 0001:00048f90       ?initialize@?$dual_state_global@P6AH_K@Z@__crt_state_management@@QEAAXQ6AH_K@Z@Z 0000000180049f90 f i libucrtd:new_handler.obj
 0001:00049040       __acrt_get_sigabrt_handler 000000018004a040 f   libucrtd:signal.obj
 0001:00049060       __acrt_initialize_signal_handlers 000000018004a060 f   libucrtd:signal.obj
 0001:000490c0       __fpecode                  000000018004a0c0 f   libucrtd:signal.obj
 0001:000490e0       raise                      000000018004a0e0 f   libucrtd:signal.obj
 0001:000495c0       ??0__crt_stdio_stream@@QEAA@XZ 000000018004a5c0 f i libucrtd:stream.obj
 0001:000495e0       ?__acrt_stdio_allocate_stream@@YA?AV__crt_stdio_stream@@XZ 000000018004a5e0 f   libucrtd:stream.obj
 0001:000496a0       ?__acrt_stdio_free_stream@@YAXV__crt_stdio_stream@@@Z 000000018004a6a0 f   libucrtd:stream.obj
 0001:00049740       ?deallocate@__crt_stdio_stream@@QEAAXXZ 000000018004a740 f i libucrtd:stream.obj
 0001:00049760       ?detach@?$__crt_unique_heap_ptr@U__acrt_ptd@@U__crt_internal_free_policy@@@@QEAAPEAU__acrt_ptd@@XZ 000000018004a760 f i libucrtd:per_thread_data.obj
 0001:00049760       ?detach@?$__crt_unique_heap_ptr@P6AXXZU__crt_internal_free_policy@@@@QEAAPEAP6AXXZXZ 000000018004a760 f i libucrtd:onexit.obj
 0001:00049760       ?detach@?$__crt_unique_heap_ptr@DU__crt_public_free_policy@@@@QEAAPEADXZ 000000018004a760 f i libvcruntimed:std_exception.obj
 0001:00049760       ?detach@?$__crt_unique_heap_ptr@U__vcrt_ptd@@U__crt_internal_free_policy@@@@QEAAPEAU__vcrt_ptd@@XZ 000000018004a760 f i libvcruntimed:per_thread_data.obj
 0001:00049760       ?detach@?$__crt_unique_heap_ptr@U__crt_multibyte_data@@U__crt_internal_free_policy@@@@QEAAPEAU__crt_multibyte_data@@XZ 000000018004a760 f i libucrtd:wsetlocale.obj
 0001:00049760       ?detach@?$__crt_unique_heap_ptr@U__crt_stdio_stream_data@@U__crt_internal_free_policy@@@@QEAAPEAU__crt_stdio_stream_data@@XZ 000000018004a760 f i libucrtd:stream.obj
 0001:00049760       ?detach@?$__crt_unique_heap_ptr@PEAU__crt_stdio_stream_data@@U__crt_internal_free_policy@@@@QEAAPEAPEAU__crt_stdio_stream_data@@XZ 000000018004a760 f i libucrtd:_file.obj
 0001:00049760       ?detach@?$__crt_unique_heap_ptr@U__crt_lowio_handle_data@@U__crt_internal_free_policy@@@@QEAAPEAU__crt_lowio_handle_data@@XZ 000000018004a760 f i libucrtd:osfinfo.obj
 0001:00049940       ?lock@__crt_stdio_stream@@QEBAXXZ 000000018004a940 f i libucrtd:stream.obj
 0001:00049960       ?try_allocate@__crt_stdio_stream@@QEAA_NXZ 000000018004a960 f i libucrtd:stream.obj
 0001:000499d0       ??$__acrt_stdio_parse_mode@D@@YA?AU__acrt_stdio_stream_mode@@QEBD@Z 000000018004a9d0 f i libucrtd:openfile.obj
 0001:0004a720       ??$tcsncmp@AEAPEBDAEAY02$$CBD_K@?$__crt_char_traits@D@@SAHAEAPEBDAEAY02$$CBD$$QEA_K@Z 000000018004b720 f i libucrtd:openfile.obj
 0001:0004a760       ??$tcsnicmp@AEAPEBDAEAY04$$CBD_K@?$__crt_char_traits@D@@SAHAEAPEBDAEAY04$$CBD$$QEA_K@Z 000000018004b760 f i libucrtd:openfile.obj
 0001:0004a760       ??$tcsnicmp@AEAPEBDAEAY06$$CBD_K@?$__crt_char_traits@D@@SAHAEAPEBDAEAY06$$CBD$$QEA_K@Z 000000018004b760 f i libucrtd:openfile.obj
 0001:0004a760       ??$tcsnicmp@AEAPEBDAEAY07$$CBD_K@?$__crt_char_traits@D@@SAHAEAPEBDAEAY07$$CBD$$QEA_K@Z 000000018004b760 f i libucrtd:openfile.obj
 0001:0004a7a0       ??$tsopen_s@PEAHAEBQEBDAEBHAEBHH@?$__crt_char_traits@D@@SAH$$QEAPEAHAEBQEBDAEBH2$$QEAH@Z 000000018004b7a0 f i libucrtd:openfile.obj
 0001:0004a7f0       ?__acrt_stdio_parse_mode_D@@YA_NAEAU__acrt_stdio_stream_mode@@@Z 000000018004b7f0 f i libucrtd:openfile.obj
 0001:0004a820       ?__acrt_stdio_parse_mode_N@@YA_NAEAU__acrt_stdio_stream_mode@@@Z 000000018004b820 f i libucrtd:openfile.obj
 0001:0004a840       ?__acrt_stdio_parse_mode_R@@YA_NAEAU__acrt_stdio_stream_mode@@AEA_N@Z 000000018004b840 f i libucrtd:openfile.obj
 0001:0004a880       ?__acrt_stdio_parse_mode_S@@YA_NAEAU__acrt_stdio_stream_mode@@AEA_N@Z 000000018004b880 f i libucrtd:openfile.obj
 0001:0004a8c0       ?__acrt_stdio_parse_mode_T@@YA_NAEAU__acrt_stdio_stream_mode@@@Z 000000018004b8c0 f i libucrtd:openfile.obj
 0001:0004a8f0       ?__acrt_stdio_parse_mode_b@@YA_NAEAU__acrt_stdio_stream_mode@@@Z 000000018004b8f0 f i libucrtd:openfile.obj
 0001:0004a920       ?__acrt_stdio_parse_mode_c@@YA_NAEAU__acrt_stdio_stream_mode@@AEA_N@Z 000000018004b920 f i libucrtd:openfile.obj
 0001:0004a960       ?__acrt_stdio_parse_mode_n@@YA_NAEAU__acrt_stdio_stream_mode@@AEA_N@Z 000000018004b960 f i libucrtd:openfile.obj
 0001:0004a9a0       ?__acrt_stdio_parse_mode_plus@@YA_NAEAU__acrt_stdio_stream_mode@@AEA_N@Z 000000018004b9a0 f i libucrtd:openfile.obj
 0001:0004aa20       ?__acrt_stdio_parse_mode_t@@YA_NAEAU__acrt_stdio_stream_mode@@@Z 000000018004ba20 f i libucrtd:openfile.obj
 0001:0004aa50       _openfile                  000000018004ba50 f   libucrtd:openfile.obj
 0001:0004aaa0       ??$?RV<lambda_4f1f1a84956f0d44b74de224c960ff76>@@AEAV<lambda_a8f98972ebaa5f7148d35bffe53bd70d>@@V<lambda_f6ca65dda28655a1cf758c1c4e38e52a>@@@?$__crt_seh_guarded_call@H@@QEAAH$$QEAV<lambda_4f1f1a84956f0d44b74de224c960ff76>@@AEAV<lambda_a8f98972ebaa5f7148d35bffe53bd70d>@@$$QEAV<lambda_f6ca65dda28655a1cf758c1c4e38e52a>@@@Z 000000018004baa0 f i libucrtd:close.obj
 0001:0004aaf0       ??$__acrt_lowio_lock_fh_and_call@V<lambda_a8f98972ebaa5f7148d35bffe53bd70d>@@@@YAHH$$QEAV<lambda_a8f98972ebaa5f7148d35bffe53bd70d>@@@Z 000000018004baf0 f i libucrtd:close.obj
 0001:0004ad30       _close                     000000018004bd30 f   libucrtd:close.obj
 0001:0004af20       _close_nolock              000000018004bf20 f   libucrtd:close.obj
 0001:0004af90       _fileno                    000000018004bf90 f   libucrtd:fileno.obj
 0001:0004b070       __acrt_stdio_free_buffer_nolock 000000018004c070 f   libucrtd:_freebuf.obj
 0001:0004bf70       _read                      000000018004cf70 f   libucrtd:read.obj
 0001:0004c2c0       _read_nolock               000000018004d2c0 f   libucrtd:read.obj
 0001:0004d510       __acrt_stdio_refill_and_read_narrow_nolock 000000018004e510 f   libucrtd:_filbuf.obj
 0001:0004d950       _lseeki64                  000000018004e950 f   libucrtd:lseek.obj
 0001:0004d980       _lseeki64_nolock           000000018004e980 f   libucrtd:lseek.obj
 0001:0004dd50       __acrt_initialize_lowio    000000018004ed50 f   libucrtd:ioinit.obj
 0001:0004dda0       __acrt_uninitialize_lowio  000000018004eda0 f   libucrtd:ioinit.obj
 0001:0004de20       _copysign                  000000018004ee20 f   libucrtd:_copysign.obj
 0001:0004deb0       _decomp                    000000018004eeb0 f   libucrtd:util.obj
 0001:0004e000       _set_exp                   000000018004f000 f   libucrtd:util.obj
 0001:0004e050       _sptype                    000000018004f050 f   libucrtd:util.obj
 0001:0004e0d0       _errcode                   000000018004f0d0 f   libucrtd:fpexcept.obj
 0001:0004e150       _except2                   000000018004f150 f   libucrtd:fpexcept.obj
 0001:0004e310       _handle_exc                000000018004f310 f   libucrtd:fpexcept.obj
 0001:0004e770       _handle_qnan2              000000018004f770 f   libucrtd:fpexcept.obj
 0001:0004e7a0       _raise_exc                 000000018004f7a0 f   libucrtd:fpexcept.obj
 0001:0004e800       _raise_exc_ex              000000018004f800 f   libucrtd:fpexcept.obj
 0001:0004ee80       _raise_excf                000000018004fe80 f   libucrtd:fpexcept.obj
 0001:0004eee0       _set_errno_from_matherr    000000018004fee0 f   libucrtd:fpexcept.obj
 0001:0004ef30       _umatherr                  000000018004ff30 f   libucrtd:fpexcept.obj
 0001:0004f000       _clrfp                     0000000180050000 f   libucrtd:fpctrl.obj
 0001:0004f030       _ctrlfp                    0000000180050030 f   libucrtd:fpctrl.obj
 0001:0004f0e0       _set_statfp                00000001800500e0 f   libucrtd:fpctrl.obj
 0001:0004f120       _statfp                    0000000180050120 f   libucrtd:fpctrl.obj
 0001:0004f150       _fd_int                    0000000180050150 f   libucrtd:_test.obj
 0001:0004f380       iswctype                   0000000180050380 f   libucrtd:iswctype.obj
 0001:0004f410       _chvalidator               0000000180050410 f   libucrtd:isctype.obj
 0001:0004f480       _chvalidator_l             0000000180050480 f   libucrtd:isctype.obj
 0001:0004f550       _isctype_l                 0000000180050550 f   libucrtd:isctype.obj
 0001:0004f780       ??$?RU__vcrt_ptd@@@__crt_internal_free_policy@@QEBAXQEBU__vcrt_ptd@@@Z 0000000180050780 f i libvcruntimed:per_thread_data.obj
 0001:0004f780       ??$?RD@__crt_internal_free_policy@@QEBAXQEBD@Z 0000000180050780 f i libvcruntimed:std_type_info.obj
 0001:0004f780       ??$?RU__crt_lowio_handle_data@@@__crt_internal_free_policy@@QEBAXQEBU__crt_lowio_handle_data@@@Z 0000000180050780 f i libucrtd:osfinfo.obj
 0001:0004f780       ??$?RU__crt_multibyte_data@@@__crt_internal_free_policy@@QEBAXQEBU__crt_multibyte_data@@@Z 0000000180050780 f i libucrtd:wsetlocale.obj
 0001:0004f780       ??$?RU__crt_stdio_stream_data@@@__crt_internal_free_policy@@QEBAXQEBU__crt_stdio_stream_data@@@Z 0000000180050780 f i libucrtd:stream.obj
 0001:0004f780       ??$?RU__acrt_ptd@@@__crt_internal_free_policy@@QEBAXQEBU__acrt_ptd@@@Z 0000000180050780 f i libucrtd:per_thread_data.obj
 0001:0004f780       ??$?RP6AXXZ@__crt_internal_free_policy@@QEBAXQEBQ6AXXZ@Z 0000000180050780 f i libucrtd:onexit.obj
 0001:0004f780       ??$?RPEAU__crt_stdio_stream_data@@@__crt_internal_free_policy@@QEBAXQEBQEAU__crt_stdio_stream_data@@@Z 0000000180050780 f i libucrtd:_file.obj
 0001:0004f7b0       ??$?RV<lambda_5e887d1dcbef67a5eb4283622ba103bf>@@AEAV<lambda_4466841279450cc726390878d4a41900>@@V<lambda_341c25c0346d94847f1f3c463c57e077>@@@?$__crt_seh_guarded_call@X@@QEAAX$$QEAV<lambda_5e887d1dcbef67a5eb4283622ba103bf>@@AEAV<lambda_4466841279450cc726390878d4a41900>@@$$QEAV<lambda_341c25c0346d94847f1f3c463c57e077>@@@Z 00000001800507b0 f i libucrtd:per_thread_data.obj
 0001:0004f7f0       ??$?RV<lambda_72d1df2b273a38828b1ce30cbf4cdab5>@@AEAV<lambda_876a65b173b8412d3a47c70a915b0cf4>@@V<lambda_41932305e351933ebe8f8be3ed8bb5dc>@@@?$__crt_seh_guarded_call@X@@QEAAX$$QEAV<lambda_72d1df2b273a38828b1ce30cbf4cdab5>@@AEAV<lambda_876a65b173b8412d3a47c70a915b0cf4>@@$$QEAV<lambda_41932305e351933ebe8f8be3ed8bb5dc>@@@Z 00000001800507f0 f i libucrtd:per_thread_data.obj
 0001:0004f830       ??$?RV<lambda_8773731b9ba2edf4362dda13ebc82854>@@AEAV<lambda_6ac21da2756cd333d25ba1adc9a0001e>@@V<lambda_2c95662d60720604e97e3009a1ee1859>@@@?$__crt_seh_guarded_call@X@@QEAAX$$QEAV<lambda_8773731b9ba2edf4362dda13ebc82854>@@AEAV<lambda_6ac21da2756cd333d25ba1adc9a0001e>@@$$QEAV<lambda_2c95662d60720604e97e3009a1ee1859>@@@Z 0000000180050830 f i libucrtd:per_thread_data.obj
 0001:0004f870       ??$?RV<lambda_fb3a7dec4e47f37f22dae91bb15c9095>@@AEAV<lambda_698284760c8add0bfb0756c19673e34b>@@V<lambda_dfb8eca1e75fef3034a8fb18dd509707>@@@?$__crt_seh_guarded_call@X@@QEAAX$$QEAV<lambda_fb3a7dec4e47f37f22dae91bb15c9095>@@AEAV<lambda_698284760c8add0bfb0756c19673e34b>@@$$QEAV<lambda_dfb8eca1e75fef3034a8fb18dd509707>@@@Z 0000000180050870 f i libucrtd:per_thread_data.obj
 0001:0004f8b0       ??$__acrt_lock_and_call@V<lambda_4466841279450cc726390878d4a41900>@@@@YAXW4__acrt_lock_id@@$$QEAV<lambda_4466841279450cc726390878d4a41900>@@@Z 00000001800508b0 f i libucrtd:per_thread_data.obj
 0001:0004f920       ??$__acrt_lock_and_call@V<lambda_698284760c8add0bfb0756c19673e34b>@@@@YAXW4__acrt_lock_id@@$$QEAV<lambda_698284760c8add0bfb0756c19673e34b>@@@Z 0000000180050920 f i libucrtd:per_thread_data.obj
 0001:0004f990       ??$__acrt_lock_and_call@V<lambda_6ac21da2756cd333d25ba1adc9a0001e>@@@@YAXW4__acrt_lock_id@@$$QEAV<lambda_6ac21da2756cd333d25ba1adc9a0001e>@@@Z 0000000180050990 f i libucrtd:per_thread_data.obj
 0001:0004fa00       ??$__acrt_lock_and_call@V<lambda_876a65b173b8412d3a47c70a915b0cf4>@@@@YAXW4__acrt_lock_id@@$$QEAV<lambda_876a65b173b8412d3a47c70a915b0cf4>@@@Z 0000000180050a00 f i libucrtd:per_thread_data.obj
 0001:0004faa0       ??0__crt_scoped_get_last_error_reset@@QEAA@XZ 0000000180050aa0 f i libucrtd:per_thread_data.obj
 0001:0004fac0       ??1?$__crt_unique_heap_ptr@PEAU__crt_stdio_stream_data@@U__crt_internal_free_policy@@@@QEAA@XZ 0000000180050ac0 f i libucrtd:_file.obj
 0001:0004fac0       ??1?$__crt_unique_heap_ptr@U__crt_stdio_stream_data@@U__crt_internal_free_policy@@@@QEAA@XZ 0000000180050ac0 f i libucrtd:stream.obj
 0001:0004fac0       ??1?$__crt_unique_heap_ptr@U__crt_lowio_handle_data@@U__crt_internal_free_policy@@@@QEAA@XZ 0000000180050ac0 f i libucrtd:osfinfo.obj
 0001:0004fac0       ??1?$__crt_unique_heap_ptr@U__crt_multibyte_data@@U__crt_internal_free_policy@@@@QEAA@XZ 0000000180050ac0 f i libucrtd:wsetlocale.obj
 0001:0004fac0       ??1?$__crt_unique_heap_ptr@P6AXXZU__crt_internal_free_policy@@@@QEAA@XZ 0000000180050ac0 f i libucrtd:onexit.obj
 0001:0004fac0       ??1?$__crt_unique_heap_ptr@U__acrt_ptd@@U__crt_internal_free_policy@@@@QEAA@XZ 0000000180050ac0 f i libucrtd:per_thread_data.obj
 0001:0004fae0       ??1__crt_scoped_get_last_error_reset@@QEAA@XZ 0000000180050ae0 f i libucrtd:per_thread_data.obj
 0001:0004fd70       ?dangerous_get_state_array@?$dual_state_global@PEAU__crt_locale_data@@@__crt_state_management@@QEAAPEAPEAU__crt_locale_data@@XZ 0000000180050d70 f i libucrtd:per_thread_data.obj
 0001:0004fd70       ?get_address_of@?$__crt_unique_handle_t@U__crt_hmodule_traits@@@@QEAAPEAPEAUHINSTANCE__@@XZ 0000000180050d70 f i libucrtd:exit.obj
 0001:00050090       ?release@?$__crt_unique_heap_ptr@U__acrt_ptd@@U__crt_internal_free_policy@@@@QEAAXXZ 0000000180051090 f i libucrtd:per_thread_data.obj
 0001:00050090       ?release@?$__crt_unique_heap_ptr@U__crt_multibyte_data@@U__crt_internal_free_policy@@@@QEAAXXZ 0000000180051090 f i libucrtd:wsetlocale.obj
 0001:00050090       ?release@?$__crt_unique_heap_ptr@U__crt_lowio_handle_data@@U__crt_internal_free_policy@@@@QEAAXXZ 0000000180051090 f i libucrtd:osfinfo.obj
 0001:00050090       ?release@?$__crt_unique_heap_ptr@U__crt_stdio_stream_data@@U__crt_internal_free_policy@@@@QEAAXXZ 0000000180051090 f i libucrtd:stream.obj
 0001:00050090       ?release@?$__crt_unique_heap_ptr@P6AXXZU__crt_internal_free_policy@@@@QEAAXXZ 0000000180051090 f i libucrtd:onexit.obj
 0001:00050090       ?release@?$__crt_unique_heap_ptr@PEAU__crt_stdio_stream_data@@U__crt_internal_free_policy@@@@QEAAXXZ 0000000180051090 f i libucrtd:_file.obj
 0001:000501d0       ?value@?$dual_state_global@P6AH_K@Z@__crt_state_management@@QEAAAEAP6AH_K@ZXZ 00000001800511d0 f i libucrtd:new_handler.obj
 0001:000501d0       ?value@?$dual_state_global@P6AXH@Z@__crt_state_management@@QEAAAEAP6AXH@ZXZ 00000001800511d0 f i libucrtd:signal.obj
 0001:000501d0       ?value@?$dual_state_global@P6AHPEAU_exception@@@Z@__crt_state_management@@QEAAAEAP6AHPEAU_exception@@@ZXZ 00000001800511d0 f i libucrtd:matherr.obj
 0001:000501d0       ?value@?$dual_state_global@PEAU__crt_locale_data@@@__crt_state_management@@QEAAAEAPEAU__crt_locale_data@@XZ 00000001800511d0 f i libucrtd:per_thread_data.obj
 0001:000501d0       ?value@?$dual_state_global@P6AXPEB_W00I_K@Z@__crt_state_management@@QEAAAEAP6AXPEB_W00I_K@ZXZ 00000001800511d0 f i libucrtd:invalid_parameter.obj
 0001:000501f0       __acrt_freeptd             00000001800511f0 f   libucrtd:per_thread_data.obj
 0001:00050230       __acrt_getptd              0000000180051230 f   libucrtd:per_thread_data.obj
 0001:00050260       __acrt_getptd_noexit       0000000180051260 f   libucrtd:per_thread_data.obj
 0001:00050270       __acrt_initialize_ptd      0000000180051270 f   libucrtd:per_thread_data.obj
 0001:000502b0       __acrt_uninitialize_ptd    00000001800512b0 f   libucrtd:per_thread_data.obj
 0001:000502e0       __acrt_update_locale_info  00000001800512e0 f   libucrtd:locale_update.obj
 0001:00050330       __acrt_update_multibyte_info 0000000180051330 f   libucrtd:locale_update.obj
 0001:00050380       ??B?$__crt_unique_heap_ptr@U__acrt_ptd@@U__crt_internal_free_policy@@@@QEBA_NXZ 0000000180051380 f i libucrtd:per_thread_data.obj
 0001:00050380       ??B?$__crt_unique_heap_ptr@U__vcrt_ptd@@U__crt_internal_free_policy@@@@QEBA_NXZ 0000000180051380 f i libvcruntimed:per_thread_data.obj
 0001:00050380       ??B?$__crt_unique_heap_ptr@DU__crt_internal_free_policy@@@@QEBA_NXZ 0000000180051380 f i libvcruntimed:std_type_info.obj
 0001:00050380       ??B?$__crt_unique_heap_ptr@U__crt_multibyte_data@@U__crt_internal_free_policy@@@@QEBA_NXZ 0000000180051380 f i libucrtd:wsetlocale.obj
 0001:00050380       ??B?$__crt_unique_heap_ptr@DU__crt_public_free_policy@@@@QEBA_NXZ 0000000180051380 f i libvcruntimed:std_exception.obj
 0001:00050380       ??B?$__crt_unique_heap_ptr@U__crt_lowio_handle_data@@U__crt_internal_free_policy@@@@QEBA_NXZ 0000000180051380 f i libucrtd:osfinfo.obj
 0001:000503a0       ?get@?$__crt_unique_heap_ptr@DU__crt_public_free_policy@@@@QEBAPEADXZ 00000001800513a0 f i libvcruntimed:std_exception.obj
 0001:000503a0       ?get@?$__crt_unique_heap_ptr@U__crt_lowio_handle_data@@U__crt_internal_free_policy@@@@QEBAPEAU__crt_lowio_handle_data@@XZ 00000001800513a0 f i libucrtd:osfinfo.obj
 0001:000503a0       ?get@?$__crt_unique_heap_ptr@U__vcrt_ptd@@U__crt_internal_free_policy@@@@QEBAPEAU__vcrt_ptd@@XZ 00000001800513a0 f i libvcruntimed:per_thread_data.obj
 0001:000503a0       ?get@?$__crt_unique_handle_t@U__crt_hmodule_traits@@@@QEBAPEAUHINSTANCE__@@XZ 00000001800513a0 f i libucrtd:exit.obj
 0001:000503a0       ?get@?$__crt_unique_handle_t@U__crt_handle_traits@@@@QEBAPEAXXZ 00000001800513a0 f i libucrtd:crtmbox.obj
 0001:000503a0       ?get@?$__crt_scoped_stack_ptr@_W@@QEBAPEA_WXZ 00000001800513a0 f i libucrtd:getstringtypea.obj
 0001:000503a0       ?public_stream@__crt_stdio_stream@@QEBAPEAU_iobuf@@XZ 00000001800513a0 f i libucrtd:fopen.obj
 0001:000503a0       ?get@?$__crt_unique_heap_ptr@U__acrt_ptd@@U__crt_internal_free_policy@@@@QEBAPEAU__acrt_ptd@@XZ 00000001800513a0 f i libucrtd:per_thread_data.obj
 0001:000503a0       ?get@?$__crt_unique_heap_ptr@DU__crt_internal_free_policy@@@@QEBAPEADXZ 00000001800513a0 f i libvcruntimed:std_type_info.obj
 0001:000503a0       ?get@?$__crt_unique_heap_ptr@U__crt_multibyte_data@@U__crt_internal_free_policy@@@@QEBAPEAU__crt_multibyte_data@@XZ 00000001800513a0 f i libucrtd:wsetlocale.obj
 0001:000503a0       ??C__crt_stdio_stream@@QEBAPEAU__crt_stdio_stream_data@@XZ 00000001800513a0 f i libucrtd:fclose.obj
 0001:000503a0       ?save_state@?$c_string_character_source@_W@__crt_strtox@@QEBAPEB_WXZ 00000001800513a0 f i libucrtd:strtox.obj
 0001:000503a0       ?save_state@?$c_string_character_source@D@__crt_strtox@@QEBAPEBDXZ 00000001800513a0 f i libucrtd:strtox.obj
 0001:000503b0       __acrt_set_locale_changed  00000001800513b0 f   libucrtd:wsetlocale.obj
 0001:000503c0       __acrt_uninitialize_locale 00000001800513c0 f   libucrtd:wsetlocale.obj
 0001:00050600       _handle_error              0000000180051600 f   libucrtd:libm_error.obj
 0001:00050790       _handle_errorf             0000000180051790 f   libucrtd:libm_error.obj
 0001:00050920       _handle_nan                0000000180051920 f   libucrtd:libm_error.obj
 0001:00050970       _handle_nanf               0000000180051970 f   libucrtd:libm_error.obj
 0001:000509b0       __acrt_initialize_fma3     00000001800519b0 f   libucrtd:fma3_available.obj
 0001:00050a60       _pow_special               0000000180051a60 f   libucrtd:pow_special.obj
 0001:00050ce0       __acrt_initialize_locks    0000000180051ce0 f   libucrtd:locks.obj
 0001:00050d50       __acrt_lock                0000000180051d50 f   libucrtd:locks.obj
 0001:00050d80       __acrt_uninitialize_locks  0000000180051d80 f   libucrtd:locks.obj
 0001:00050de0       __acrt_unlock              0000000180051de0 f   libucrtd:locks.obj
 0001:00050e10       ?get_invalid_value@__crt_handle_traits@@SAPEAXXZ 0000000180051e10 f   libucrtd:crtmbox.obj
 0001:000514a0       __acrt_AreFileApisANSI     00000001800524a0 f   libucrtd:winapi_thunks.obj
 0001:000514e0       __acrt_FlsAlloc            00000001800524e0 f   libucrtd:winapi_thunks.obj
 0001:00051530       __acrt_FlsFree             0000000180052530 f   libucrtd:winapi_thunks.obj
 0001:00051580       __acrt_FlsGetValue         0000000180052580 f   libucrtd:winapi_thunks.obj
 0001:000515d0       __acrt_FlsSetValue         00000001800525d0 f   libucrtd:winapi_thunks.obj
 0001:00051630       __acrt_InitializeCriticalSectionEx 0000000180052630 f   libucrtd:winapi_thunks.obj
 0001:000516a0       __acrt_LCMapStringEx       00000001800526a0 f   libucrtd:winapi_thunks.obj
 0001:00051790       __acrt_LocaleNameToLCID    0000000180052790 f   libucrtd:winapi_thunks.obj
 0001:000517f0       __acrt_MessageBoxW         00000001800527f0 f   libucrtd:winapi_thunks.obj
 0001:00051860       __acrt_can_show_message_box 0000000180052860 f   libucrtd:winapi_thunks.obj
 0001:000518a0       __acrt_get_parent_window   00000001800528a0 f   libucrtd:winapi_thunks.obj
 0001:00051920       __acrt_initialize_winapi_thunks 0000000180052920 f   libucrtd:winapi_thunks.obj
 0001:000519a0       __acrt_is_interactive      00000001800529a0 f   libucrtd:winapi_thunks.obj
 0001:00051a90       __acrt_is_packaged_app     0000000180052a90 f   libucrtd:winapi_thunks.obj
 0001:00051bd0       __acrt_uninitialize_winapi_thunks 0000000180052bd0 f   libucrtd:winapi_thunks.obj
 0001:00051c70       ??$?RV<lambda_441f2315ac0f593d45428a8fceb6abe6>@@AEAV<lambda_2f900415df1f7f624cdaaefe86d0b1c0>@@V<lambda_1d10a5a8ccb596b49763520e59d5af47>@@@?$__crt_seh_guarded_call@X@@QEAAX$$QEAV<lambda_441f2315ac0f593d45428a8fceb6abe6>@@AEAV<lambda_2f900415df1f7f624cdaaefe86d0b1c0>@@$$QEAV<lambda_1d10a5a8ccb596b49763520e59d5af47>@@@Z 0000000180052c70 f i libucrtd:mbctype.obj
 0001:00051cb0       ??$__acrt_lock_and_call@V<lambda_2f900415df1f7f624cdaaefe86d0b1c0>@@@@YAXW4__acrt_lock_id@@$$QEAV<lambda_2f900415df1f7f624cdaaefe86d0b1c0>@@@Z 0000000180052cb0 f i libucrtd:mbctype.obj
 0001:00052710       __acrt_initialize_multibyte 0000000180053710 f   libucrtd:mbctype.obj
 0001:00052740       __acrt_update_thread_multibyte_data 0000000180053740 f   libucrtd:mbctype.obj
 0001:00052850       _setmbcp_nolock            0000000180053850 f   libucrtd:mbctype.obj
 0001:00052c9c       __dcrt_get_narrow_environment_from_os 0000000180053c9c f   libucrtd:get_environment_from_os.obj
 0001:00052dc0       __acrt_initialize_heap     0000000180053dc0 f   libucrtd:heap_handle.obj
 0001:00052df0       __acrt_uninitialize_heap   0000000180053df0 f   libucrtd:heap_handle.obj
 0001:00052e10       __acrt_initialize_command_line 0000000180053e10 f   libucrtd:argv_data.obj
 0001:00052e40       __acrt_execute_initializers 0000000180053e40 f   libucrtd:shared_initialization.obj
 0001:00052f30       __acrt_execute_uninitializers 0000000180053f30 f   libucrtd:shared_initialization.obj
 0001:00052fb0       __acrt_initialize_new_handler 0000000180053fb0 f   libucrtd:new_handler.obj
 0001:00052fd0       _callnewh                  0000000180053fd0 f   libucrtd:new_handler.obj
 0001:00053020       _query_new_handler         0000000180054020 f   libucrtd:new_handler.obj
 0001:00053060       __acrt_has_user_matherr    0000000180054060 f   libucrtd:matherr.obj
 0001:000530a0       __acrt_initialize_user_matherr 00000001800540a0 f   libucrtd:matherr.obj
 0001:000530c0       __acrt_invoke_user_matherr 00000001800540c0 f   libucrtd:matherr.obj
 0001:00053120       ?has_temporary_buffer@__crt_stdio_stream@@QEBA_NXZ 0000000180054120 f i libucrtd:_sftbuf.obj
 0001:00053140       __acrt_stdio_begin_temporary_buffering_nolock 0000000180054140 f   libucrtd:_sftbuf.obj
 0001:00053380       __acrt_stdio_end_temporary_buffering_nolock 0000000180054380 f   libucrtd:_sftbuf.obj
 0001:00053430       _free_base                 0000000180054430 f   libucrtd:free_base.obj
 0001:00053490       _msize                     0000000180054490 f   libucrtd:msize.obj
 0001:000534b0       _realloc_base              00000001800544b0 f   libucrtd:realloc_base.obj
 0001:000535c0       _expand_base               00000001800545c0 f   libucrtd:expand.obj
 0001:00053750       ?value@?$dual_state_global@J@__crt_state_management@@QEAAAEAJXZ 0000000180054750 f i libucrtd:new_mode.obj
 0001:00053770       _query_new_mode            0000000180054770 f   libucrtd:new_mode.obj
 0001:00053790       _CrtDefaultAllocHook       0000000180054790 f   libucrtd:debug_heap_hook.obj
 0001:000537b0       _CrtGetDebugFillThreshold  00000001800547b0 f   libucrtd:debug_fill_threshold.obj
 0001:000537c0       _VCrtDbgReportA            00000001800547c0 f   libucrtd:dbgrptt.obj
 0001:000541e0       _VCrtDbgReportW            00000001800551e0 f   libucrtd:dbgrptt.obj
 0001:00054d80       _snprintf_s                0000000180055d80 f i libucrtd:dbgrptt.obj
 0001:00054df0       _vsnprintf_s               0000000180055df0 f i libucrtd:dbgrptt.obj
 0001:00054e40       _vsnprintf_s_l             0000000180055e40 f i libucrtd:dbgrptt.obj
 0001:00054ec0       _vsnwprintf_s              0000000180055ec0 f i libucrtd:dbgrptt.obj
 0001:00054f30       _isdigit_l                 0000000180055f30 f i libucrtd:_ctype.obj
 0001:00054f80       isdigit                    0000000180055f80 f i libucrtd:_ctype.obj
 0001:00055350       _tolower_l                 0000000180056350 f   libucrtd:tolower_toupper.obj
 0001:00055380       tolower                    0000000180056380 f   libucrtd:tolower_toupper.obj
 0001:000553e0       _mbtowc_l                  00000001800563e0 f   libucrtd:mbtowc.obj
 0001:00055710       mbtowc                     0000000180056710 f   libucrtd:mbtowc.obj
 0001:00055740       _wctomb_s_l                0000000180056740 f   libucrtd:wctomb.obj
 0001:00055be0       wctomb_s                   0000000180056be0 f   libucrtd:wctomb.obj
 0001:00056870       ??1?$__crt_simd_cleanup_guard@$00@@QEAA@XZ 0000000180057870 f i libucrtd:strnlen.obj
 0001:00056880       ?compare_equals@?$__crt_simd_traits@$00E@@SA?AT__m256i@@T2@0@Z 0000000180057880 f i libucrtd:strnlen.obj
 0001:000568c0       ?compare_equals@?$__crt_simd_traits@$00G@@SA?AT__m256i@@T2@0@Z 00000001800578c0 f i libucrtd:strnlen.obj
 0001:00056900       ?compare_equals@?$__crt_simd_traits@$0A@E@@SA?AT__m128i@@T2@0@Z 0000000180057900 f i libucrtd:strnlen.obj
 0001:00056930       ?compare_equals@?$__crt_simd_traits@$0A@G@@SA?AT__m128i@@T2@0@Z 0000000180057930 f i libucrtd:strnlen.obj
 0001:00056960       ?compute_byte_mask@?$__crt_simd_pack_traits@$00@@SAHT__m256i@@@Z 0000000180057960 f i libucrtd:strnlen.obj
 0001:00056980       ?compute_byte_mask@?$__crt_simd_pack_traits@$0A@@@SAHT__m128i@@@Z 0000000180057980 f i libucrtd:strnlen.obj
 0001:000569a0       ?get_zero_pack@?$__crt_simd_pack_traits@$00@@SA?AT__m256i@@XZ 00000001800579a0 f i libucrtd:strnlen.obj
 0001:000569d0       ?get_zero_pack@?$__crt_simd_pack_traits@$0A@@@SA?AT__m128i@@XZ 00000001800579d0 f i libucrtd:strnlen.obj
 0001:000569f0       strnlen                    00000001800579f0 f   libucrtd:strnlen.obj
 0001:00056a20       wcsnlen                    0000000180057a20 f   libucrtd:strnlen.obj
 0001:00056a50       ?__acrt_fp_classify@@YA?AW4__acrt_fp_class@@AEBN@Z 0000000180057a50 f i libucrtd:cvt.obj
 0001:00056b50       ?__acrt_fp_is_negative@@YA_NAEBN@Z 0000000180057b50 f i libucrtd:cvt.obj
 0001:000582d0       ?strrchr@@YAPEADQEADH@Z    00000001800592d0 f i libucrtd:cvt.obj
 0001:000582f0       __acrt_fp_format           00000001800592f0 f   libucrtd:cvt.obj
 0001:00058960       _fputwc_nolock             0000000180059960 f   libucrtd:fputwc.obj
 0001:00058bd0       _fputc_nolock              0000000180059bd0 f   libucrtd:fputc.obj
 0001:00058c80       _get_printf_count_output   0000000180059c80 f   libucrtd:printf_count_output.obj
 0001:00059340       wcsncpy_s                  000000018005a340 f   libucrtd:wcsncpy_s.obj
 0001:00059380       _fcloseall                 000000018005a380 f   libucrtd:closeall.obj
 0001:00059490       ??$?RV<lambda_2ce24b26f23dade10250ef086380d911>@@AEAV<lambda_e9ab68cc08dfd839979545c079379e6e>@@V<lambda_6262c464c96e4c69799ed44814c7c457>@@@?$__crt_seh_guarded_call@H@@QEAAH$$QEAV<lambda_2ce24b26f23dade10250ef086380d911>@@AEAV<lambda_e9ab68cc08dfd839979545c079379e6e>@@$$QEAV<lambda_6262c464c96e4c69799ed44814c7c457>@@@Z 000000018005a490 f i libucrtd:commit.obj
 0001:000594e0       ??$__acrt_lowio_lock_fh_and_call@V<lambda_e9ab68cc08dfd839979545c079379e6e>@@@@YAHH$$QEAV<lambda_e9ab68cc08dfd839979545c079379e6e>@@@Z 000000018005a4e0 f i libucrtd:commit.obj
 0001:00059620       _commit                    000000018005a620 f   libucrtd:commit.obj
 0001:0005a8b0       _write                     000000018005b8b0 f   libucrtd:write.obj
 0001:0005ab50       _write_nolock              000000018005bb50 f   libucrtd:write.obj
 0001:0005b130       __ascii_strnicmp           000000018005c130 f   libucrtd:strnicmp.obj
 0001:0005b210       _strnicmp                  000000018005c210 f   libucrtd:strnicmp.obj
 0001:0005b460       _strnicmp_l                000000018005c460 f   libucrtd:strnicmp.obj
 0001:0005bb60       ??$tsopen_nolock@PEAHAEBQEAHAEBQEBDAEBHAEBHAEBHAEBH@?$__crt_char_traits@D@@SAH$$QEAPEAHAEBQEAHAEBQEBDAEBH333@Z 000000018005cb60 f i libucrtd:open.obj
 0001:0005c8b0       _sopen_dispatch            000000018005d8b0 f   libucrtd:open.obj
 0001:0005c900       _sopen_nolock              000000018005d900 f   libucrtd:open.obj
 0001:0005c9b0       _sopen_s                   000000018005d9b0 f   libucrtd:open.obj
 0001:0005ca00       _wsopen_nolock             000000018005da00 f   libucrtd:open.obj
 0001:0005d170       __acrt_lowio_create_handle_array 000000018005e170 f   libucrtd:osfinfo.obj
 0001:0005d300       __acrt_lowio_destroy_handle_array 000000018005e300 f   libucrtd:osfinfo.obj
 0001:0005d380       __acrt_lowio_ensure_fh_exists 000000018005e380 f   libucrtd:osfinfo.obj
 0001:0005d4e0       __acrt_lowio_lock_fh       000000018005e4e0 f   libucrtd:osfinfo.obj
 0001:0005d520       __acrt_lowio_set_os_handle 000000018005e520 f   libucrtd:osfinfo.obj
 0001:0005d630       __acrt_lowio_unlock_fh     000000018005e630 f   libucrtd:osfinfo.obj
 0001:0005d670       _alloc_osfhnd              000000018005e670 f   libucrtd:osfinfo.obj
 0001:0005d870       _free_osfhnd               000000018005e870 f   libucrtd:osfinfo.obj
 0001:0005d9a0       _get_osfhandle             000000018005e9a0 f   libucrtd:osfinfo.obj
 0001:0005dba0       _isatty                    000000018005eba0 f   libucrtd:isatty.obj
 0001:0005dcb0       __acrt_stdio_allocate_buffer_nolock 000000018005ecb0 f   libucrtd:_getbuf.obj
 0001:0005de30       _get_fpsr                  000000018005ee30 f   libucrtd:fpsr.obj
 0001:0005de40       _set_fpsr                  000000018005ee40 f   libucrtd:fpsr.obj
 0001:0005de4a       _fclrf                     000000018005ee4a f   libucrtd:fpsr.obj
 0001:0005de5e       _frnd                      000000018005ee5e f   libucrtd:fpsr.obj
 0001:0005df10       _getfpcontrolword          000000018005ef10 f   libucrtd:_fenvutils.obj
 0001:0005df30       _getfpstatusword           000000018005ef30 f   libucrtd:_fenvutils.obj
 0001:0005df50       _setfpcontrolword          000000018005ef50 f   libucrtd:_fenvutils.obj
 0001:0005df70       _setfpstatusword           000000018005ef70 f   libucrtd:_fenvutils.obj
 0001:0005dfd0       __pctype_func              000000018005efd0 f   libucrtd:ctype.obj
 0001:0005e010       _isleadbyte_l              000000018005f010 f i libucrtd:_wctype.obj
 0001:0005e070       ??1?$__crt_scoped_stack_ptr@_W@@QEAA@XZ 000000018005f070 f i libucrtd:getstringtypea.obj
 0001:0005e090       _MallocaComputeSize        000000018005f090 f i libucrtd:getstringtypea.obj
 0001:0005e0d0       _MarkAllocaS               000000018005f0d0 f i libucrtd:getstringtypea.obj
 0001:0005e100       __acrt_GetStringTypeA      000000018005f100 f   libucrtd:getstringtypea.obj
 0001:0005e360       _freea_crt                 000000018005f360 f i libucrtd:getstringtypea.obj
 0001:0005e400       __acrt_add_locale_ref      000000018005f400 f   libucrtd:locale_refcounting.obj
 0001:0005e560       __acrt_free_locale         000000018005f560 f   libucrtd:locale_refcounting.obj
 0001:0005e8d0       __acrt_locale_add_lc_time_reference 000000018005f8d0 f   libucrtd:locale_refcounting.obj
 0001:0005e910       __acrt_locale_free_lc_time_if_unreferenced 000000018005f910 f   libucrtd:locale_refcounting.obj
 0001:0005e970       __acrt_locale_release_lc_time_reference 000000018005f970 f   libucrtd:locale_refcounting.obj
 0001:0005e9b0       __acrt_release_locale_ref  000000018005f9b0 f   libucrtd:locale_refcounting.obj
 0001:0005eb10       __acrt_update_thread_locale_data 000000018005fb10 f   libucrtd:locale_refcounting.obj
 0001:0005ebc0       _updatetlocinfoEx_nolock   000000018005fbc0 f   libucrtd:locale_refcounting.obj
 0001:0005ec60       __acrt_locale_free_monetary 000000018005fc60 f   libucrtd:initmon.obj
 0001:0005ee70       __acrt_locale_free_numeric 000000018005fe70 f   libucrtd:initnum.obj
 0001:0005f010       __acrt_locale_free_time    0000000180060010 f   libucrtd:inittime.obj
 0001:0005f340       __acrt_DownlevelLocaleNameToLCID 0000000180060340 f   libucrtd:lcidtoname_downlevel.obj
 0001:0005f9c0       __acrt_LCMapStringA        00000001800609c0 f   libucrtd:lcmapstringa.obj
 0001:0005fa70       _malloc_base               0000000180060a70 f   libucrtd:malloc_base.obj
 0001:00060080       _mbstowcs_s_l              0000000180061080 f   libucrtd:mbstowcs.obj
 0001:00060650       mbstowcs_s                 0000000180061650 f   libucrtd:mbstowcs.obj
 0001:00060f70       _wcstombs_s_l              0000000180061f70 f   libucrtd:wcstombs.obj
 0001:000614b0       wcstombs_s                 00000001800624b0 f   libucrtd:wcstombs.obj
 0001:00061500       __acrt_fp_strflt_to_string 0000000180062500 f   libucrtd:_fptostr.obj
 0001:00061f90       ??4big_integer@__crt_strtox@@QEAAAEAU01@AEBU01@@Z 0000000180062f90 f i libucrtd:cfout.obj
 0001:00061f90       ??0big_integer@__crt_strtox@@QEAA@AEBU01@@Z 0000000180062f90 f i libucrtd:cfout.obj
 0001:00061ff0       ??0big_integer@__crt_strtox@@QEAA@XZ 0000000180062ff0 f i libucrtd:cfout.obj
 0001:00062030       ??0scoped_fp_state_reset@?A0x22020a54@@QEAA@XZ 0000000180063030 f i libucrtd:cfout.obj
 0001:00062080       ??1scoped_fp_state_reset@?A0x22020a54@@QEAA@XZ 0000000180063080 f i libucrtd:cfout.obj
 0001:000620b0       ??8__crt_strtox@@YA_NAEBUbig_integer@0@0@Z 00000001800630b0 f i libucrtd:cfout.obj
 0001:00062120       ??9__crt_strtox@@YA_NAEBUbig_integer@0@0@Z 0000000180063120 f i libucrtd:cfout.obj
 0001:00062160       ?add_carry@__crt_strtox@@YAIAEAIII@Z 0000000180063160 f i libucrtd:cfout.obj
 0001:000621b0       ?add_multiply_carry@__crt_strtox@@YAIAEAIIII@Z 00000001800631b0 f i libucrtd:cfout.obj
 0001:00062210       ?bit_scan_reverse@__crt_strtox@@YAII@Z 0000000180063210 f i libucrtd:cfout.obj
 0001:00062250       ?count_sequential_high_zeroes@__crt_strtox@@YAII@Z 0000000180063250 f i libucrtd:cfout.obj
 0001:00062290       ?divide@__crt_strtox@@YA_KAEAUbig_integer@1@AEBU21@@Z 0000000180063290 f i libucrtd:cfout.obj
 0001:00062c50       ?is_zero@__crt_strtox@@YA_NAEBUbig_integer@1@@Z 0000000180063c50 f i libucrtd:cfout.obj
 0001:00062c80       ?make_big_integer@__crt_strtox@@YA?AUbig_integer@1@_K@Z 0000000180063c80 f i libucrtd:cfout.obj
 0001:00062d50       ?make_big_integer_power_of_two@__crt_strtox@@YA?AUbig_integer@1@I@Z 0000000180063d50 f i libucrtd:cfout.obj
 0001:00062e20       ?multiply@__crt_strtox@@YA_NAEAUbig_integer@1@AEBU21@@Z 0000000180063e20 f i libucrtd:cfout.obj
 0001:000631a0       ?multiply@__crt_strtox@@YA_NAEAUbig_integer@1@I@Z 00000001800641a0 f i libucrtd:cfout.obj
 0001:000632c0       ?multiply_64_32@__crt_strtox@@YA_K_KI@Z 00000001800642c0 f i libucrtd:cfout.obj
 0001:000632e0       ?multiply_by_power_of_ten@__crt_strtox@@YA_NAEAUbig_integer@1@I@Z 00000001800642e0 f i libucrtd:cfout.obj
 0001:00063490       ?multiply_core@__crt_strtox@@YAIQEAIII@Z 0000000180064490 f i libucrtd:cfout.obj
 0001:00063510       ?shift_left@__crt_strtox@@YA_NAEAUbig_integer@1@I@Z 0000000180064510 f i libucrtd:cfout.obj
 0001:00063840       __acrt_fltout              0000000180064840 f   libucrtd:cfout.obj
 0001:00064550       __acrt_stdio_flush_and_write_narrow_nolock 0000000180065550 f   libucrtd:_flsbuf.obj
 0001:00064580       __acrt_stdio_flush_and_write_wide_nolock 0000000180065580 f   libucrtd:_flsbuf.obj
 0001:000645b0       _putwch_nolock             00000001800655b0 f   libucrtd:putwch.obj
 0001:00064610       _get_fmode                 0000000180065610 f   libucrtd:setmode.obj
 0001:000646e0       _setmode_nolock            00000001800656e0 f   libucrtd:setmode.obj
 0001:000649a0       __acrt_copy_path_to_wide_string 00000001800659a0 f   libucrtd:string_utilities.obj
 0001:00064c80       _chsize_nolock             0000000180065c80 f   libucrtd:chsize.obj
 0001:000650e0       _clearfp                   00000001800660e0 f   libucrtd:ieee.obj
 0001:00065100       _controlfp                 0000000180066100 f   libucrtd:ieee.obj
 0001:00065280       _statusfp                  0000000180066280 f   libucrtd:ieee.obj
 0001:000653c0       __strncnt                  00000001800663c0 f   libucrtd:strncnt.obj
 0001:00065420       log10                      0000000180066420 f   libucrtd:log10.obj
 0001:000659d0       fegetenv                   00000001800669d0 f   libucrtd:fegetenv.obj
 0001:00065a00       fesetenv                   0000000180066a00 f   libucrtd:fesetenv.obj
 0001:00065a70       feholdexcept               0000000180066a70 f   libucrtd:feholdexcept.obj
 0001:00065ad8       __dcrt_lowio_initialize_console_output 0000000180066ad8 f   libucrtd:initcon.obj
 0001:00065b14       __dcrt_terminate_console_output 0000000180066b14 f   libucrtd:initcon.obj
 0001:00065b40       _log10_special             0000000180066b40 f   libucrtd:log_special.obj
 0001:00065cb0       _FindPESection             0000000180066cb0 f   LIBCMTD:pesect.obj
 0001:00065d60       _IsNonwritableInCurrentImage 0000000180066d60 f   LIBCMTD:pesect.obj
 0001:00065df0       _ValidateImageBase         0000000180066df0 f   LIBCMTD:pesect.obj
 0001:00065e70       ??1type_info@@UEAA@XZ      0000000180066e70 f   LIBCMTD:std_type_info_static.obj
 0001:00065e90       ??_Etype_info@@UEAAPEAXI@Z 0000000180066e90 f i LIBCMTD:std_type_info_static.obj
 0001:00065e90       ??_Gtype_info@@UEAAPEAXI@Z 0000000180066e90 f i LIBCMTD:std_type_info_static.obj
 0001:00065ed0       __GSHandlerCheck_SEH       0000000180066ed0 f   LIBCMTD:_gshandlerseh_.obj
 0001:00065f90       __GSHandlerCheck_EH        0000000180066f90 f   LIBCMTD:gshandlereh.obj
 0001:00066040       ??3@YAXPEAX_K@Z            0000000180067040 f   LIBCMTD:delete_scalar_size.obj
 0001:00066060       ??3@YAXPEAX@Z              0000000180067060 f   LIBCMTD:delete_scalar.obj
 0001:0006607e       RtlUnwindEx                000000018006707e f   kernel32:KERNEL32.dll
 0001:00066084       SystemFunction036          0000000180067084 f   advapi32:ADVAPI32.dll
 0001:000660a0       memcpy                     00000001800670a0 f   libvcruntimed:memcpy.obj
 0001:000660a0       memmove                    00000001800670a0 f   libvcruntimed:memcpy.obj
 0001:000664f0       memset                     00000001800674f0 f   libvcruntimed:memset.obj
 0001:000666a0       memcmp                     00000001800676a0 f   libvcruntimed:memcmp.obj
 0001:00066770       strrchr                    0000000180067770 f   libvcruntimed:strrchr.obj
 0001:00066c20       ?_GetEstablisherFrame@@YAPEA_KPEA_KPEAU_xDISPATCHER_CONTEXT@@PEBU_s_FuncInfo@@0@Z 0000000180067c20 f   libvcruntimed:trnsctrl.obj
 0001:00066d90       ?_GetRangeOfTrysToCheck@@YAPEBU_s_TryBlockMapEntry@@PEA_KPEBU_s_FuncInfo@@HHPEAI2PEAU_xDISPATCHER_CONTEXT@@@Z 0000000180067d90 f   libvcruntimed:trnsctrl.obj
 0001:00066fb0       ?__FrameUnwindToEmptyState@@YAXPEA_KPEAU_xDISPATCHER_CONTEXT@@PEBU_s_FuncInfo@@@Z 0000000180067fb0 f   libvcruntimed:trnsctrl.obj
 0001:00067050       ?__SehTransFilter@@YAHPEAU_EXCEPTION_POINTERS@@PEAUEHExceptionRecord@@PEA_KPEAU_CONTEXT@@PEAU_xDISPATCHER_CONTEXT@@PEBU_s_FuncInfo@@PEAH@Z 0000000180068050 f   libvcruntimed:trnsctrl.obj
 0001:00067100       _CallSETranslator          0000000180068100 f   libvcruntimed:trnsctrl.obj
 0001:00067190       _CreateFrameInfo           0000000180068190 f   libvcruntimed:trnsctrl.obj
 0001:00067200       _FindAndUnlinkFrame        0000000180068200 f   libvcruntimed:trnsctrl.obj
 0001:00067280       _GetImageBase              0000000180068280 f   libvcruntimed:trnsctrl.obj
 0001:000672a0       _GetThrowImageBase         00000001800682a0 f   libvcruntimed:trnsctrl.obj
 0001:000672c0       _IsExceptionObjectToBeDestroyed 00000001800682c0 f   libvcruntimed:trnsctrl.obj
 0001:00067310       _SetImageBase              0000000180068310 f   libvcruntimed:trnsctrl.obj
 0001:00067330       _SetThrowImageBase         0000000180068330 f   libvcruntimed:trnsctrl.obj
 0001:00067350       _UnwindNestedFrames        0000000180068350 f   libvcruntimed:trnsctrl.obj
 0001:000674c0       __CxxFrameHandler3         00000001800684c0 f   libvcruntimed:trnsctrl.obj
 0001:00067580       ?__GetCurrentState@@YAHPEA_KPEAU_xDISPATCHER_CONTEXT@@PEBU_s_FuncInfo@@@Z 0000000180068580 f   libvcruntimed:ehstate.obj
 0001:000675e0       ?__GetUnwindTryBlock@@YAHPEA_KPEAU_xDISPATCHER_CONTEXT@@PEBU_s_FuncInfo@@@Z 00000001800685e0 f   libvcruntimed:ehstate.obj
 0001:00067630       ?__SetState@@YAXPEA_KPEAU_xDISPATCHER_CONTEXT@@PEBU_s_FuncInfo@@H@Z 0000000180068630 f   libvcruntimed:ehstate.obj
 0001:00067660       ?__SetUnwindTryBlock@@YAXPEA_KPEAU_xDISPATCHER_CONTEXT@@PEBU_s_FuncInfo@@H@Z 0000000180068660 f   libvcruntimed:ehstate.obj
 0001:000676d0       ?__StateFromControlPc@@YAHPEBU_s_FuncInfo@@PEAU_xDISPATCHER_CONTEXT@@@Z 00000001800686d0 f   libvcruntimed:ehstate.obj
 0001:00067700       ?__StateFromIp@@YAHPEBU_s_FuncInfo@@PEAU_xDISPATCHER_CONTEXT@@_J@Z 0000000180068700 f   libvcruntimed:ehstate.obj
 0001:000677e0       __DestructExceptionObject  00000001800687e0 f   libvcruntimed:frame.obj
 0001:000678e0       ??0bad_exception@std@@QEAA@AEBV01@@Z 00000001800688e0 f i libvcruntimed:frame.obj
 0001:00067920       ??0bad_exception@std@@QEAA@XZ 0000000180068920 f i libvcruntimed:frame.obj
 0001:00067960       ??0exception@std@@QEAA@AEBV01@@Z 0000000180068960 f i libvcruntimed:frame.obj
 0001:000679c0       ??0exception@std@@QEAA@QEBDH@Z 00000001800689c0 f i libvcruntimed:frame.obj
 0001:00067a10       ??1bad_exception@std@@UEAA@XZ 0000000180068a10 f i libvcruntimed:frame.obj
 0001:00067a30       ??1exception@std@@UEAA@XZ  0000000180068a30 f i libvcruntimed:frame.obj
 0001:00067a60       ??8type_info@@QEBA_NAEBV0@@Z 0000000180068a60 f i libvcruntimed:frame.obj
 0001:00067ab0       ??_Gbad_exception@std@@UEAAPEAXI@Z 0000000180068ab0 f i libvcruntimed:frame.obj
 0001:00067ab0       ??_Ebad_exception@std@@UEAAPEAXI@Z 0000000180068ab0 f i libvcruntimed:frame.obj
 0001:00067af0       ??_Eexception@std@@UEAAPEAXI@Z 0000000180068af0 f i libvcruntimed:frame.obj
 0001:00067af0       ??_Gexception@std@@UEAAPEAXI@Z 0000000180068af0 f i libvcruntimed:frame.obj
 0001:00068a70       ?_CallMemberFunction0@@YAXPEAXP6AX0@Z@Z 0000000180069a70 f i libvcruntimed:frame.obj
 0001:00068a90       ?_CallMemberFunction1@@YAXPEAXP6AX0@Z0@Z 0000000180069a90 f i libvcruntimed:frame.obj
 0001:00068ac0       ?_CallMemberFunction2@@YAXPEAXP6AX0@Z0H@Z 0000000180069ac0 f i libvcruntimed:frame.obj
 0001:00068af0       ?_ValidateExecute@@YA_NP6A_JXZ@Z 0000000180069af0 f i libvcruntimed:frame.obj
 0001:00068b10       ?_ValidateRead@@YA_NPEBXI@Z 0000000180069b10 f i libvcruntimed:frame.obj
 0001:00068b10       ?_ValidateWrite@@YA_NPEAXI@Z 0000000180069b10 f i libvcruntimed:frame.obj
 0001:00068b70       ?what@exception@std@@UEBAPEBDXZ 0000000180069b70 f i libvcruntimed:frame.obj
 0001:00068bb0       __AdjustPointer            0000000180069bb0 f   libvcruntimed:frame.obj
 0001:00068c30       __BuildCatchObject         0000000180069c30 f   libvcruntimed:frame.obj
 0001:00068d70       __BuildCatchObjectHelper   0000000180069d70 f   libvcruntimed:frame.obj
 0001:00069200       __CxxCallCatchBlock        000000018006a200 f   libvcruntimed:frame.obj
 0001:00069460       __FrameUnwindFilter        000000018006a460 f   libvcruntimed:frame.obj
 0001:000694f0       __FrameUnwindToState       000000018006a4f0 f   libvcruntimed:frame.obj
 0001:00069740       __InternalCxxFrameHandler  000000018006a740 f   libvcruntimed:frame.obj
 0001:00069bc0       __TypeMatch                000000018006abc0 f   libvcruntimed:frame.obj
 0001:00069dc0       _CallSettingFrame          000000018006adc0 f   libvcruntimed:handlers.obj
 0001:00069e00       ??$?RD@__crt_public_free_policy@@QEBAXQEBD@Z 000000018006ae00 f i libvcruntimed:std_exception.obj
 0001:00069e20       ??1?$__crt_unique_heap_ptr@DU__crt_public_free_policy@@@@QEAA@XZ 000000018006ae20 f i libvcruntimed:std_exception.obj
 0001:00069e40       ??B?$__crt_scoped_stack_ptr@_W@@QEBA_NXZ 000000018006ae40 f i libucrtd:lcmapstringa.obj
 0001:00069e40       ?is_valid@?$__crt_unique_heap_ptr@U__crt_lowio_handle_data@@U__crt_internal_free_policy@@@@QEBA_NXZ 000000018006ae40 f i libucrtd:osfinfo.obj
 0001:00069e40       ?is_valid@?$__crt_unique_heap_ptr@U__vcrt_ptd@@U__crt_internal_free_policy@@@@QEBA_NXZ 000000018006ae40 f i libvcruntimed:per_thread_data.obj
 0001:00069e40       ?is_valid@?$__crt_unique_heap_ptr@U__acrt_ptd@@U__crt_internal_free_policy@@@@QEBA_NXZ 000000018006ae40 f i libucrtd:per_thread_data.obj
 0001:00069e40       ?is_valid@?$__crt_unique_heap_ptr@DU__crt_internal_free_policy@@@@QEBA_NXZ 000000018006ae40 f i libvcruntimed:std_type_info.obj
 0001:00069e40       ?is_valid@?$__crt_unique_heap_ptr@U__crt_multibyte_data@@U__crt_internal_free_policy@@@@QEBA_NXZ 000000018006ae40 f i libucrtd:wsetlocale.obj
 0001:00069e40       ?valid@__crt_stdio_stream@@QEBA_NXZ 000000018006ae40 f i libucrtd:fopen.obj
 0001:00069e40       ?is_valid@?$__crt_unique_heap_ptr@DU__crt_public_free_policy@@@@QEBA_NXZ 000000018006ae40 f i libvcruntimed:std_exception.obj
 0001:00069e70       ?release@?$__crt_unique_heap_ptr@DU__crt_public_free_policy@@@@QEAAXXZ 000000018006ae70 f i libvcruntimed:std_exception.obj
 0001:00069ea0       __std_exception_copy       000000018006aea0 f   libvcruntimed:std_exception.obj
 0001:00069fd0       __std_exception_destroy    000000018006afd0 f   libvcruntimed:std_exception.obj
 0001:0006a010       _CxxThrowException         000000018006b010 f   libvcruntimed:throw.obj
 0001:0006a160       _guard_dispatch_icall_nop  000000018006b160 f   LIBCMTD:_guard_dispatch_.obj
 0002:00000000       __imp_SystemFunction036    000000018006c000     advapi32:ADVAPI32.dll
 0002:00000008       \177ADVAPI32_NULL_THUNK_DATA 000000018006c008     advapi32:ADVAPI32.dll
 0002:00000010       __imp_RtlVirtualUnwind     000000018006c010     kernel32:KERNEL32.dll
 0002:00000018       __imp_UnhandledExceptionFilter 000000018006c018     kernel32:KERNEL32.dll
 0002:00000020       __imp_SetUnhandledExceptionFilter 000000018006c020     kernel32:KERNEL32.dll
 0002:00000028       __imp_GetCurrentProcess    000000018006c028     kernel32:KERNEL32.dll
 0002:00000030       __imp_TerminateProcess     000000018006c030     kernel32:KERNEL32.dll
 0002:00000038       __imp_IsProcessorFeaturePresent 000000018006c038     kernel32:KERNEL32.dll
 0002:00000040       __imp_QueryPerformanceCounter 000000018006c040     kernel32:KERNEL32.dll
 0002:00000048       __imp_GetCurrentProcessId  000000018006c048     kernel32:KERNEL32.dll
 0002:00000050       __imp_GetCurrentThreadId   000000018006c050     kernel32:KERNEL32.dll
 0002:00000058       __imp_GetSystemTimeAsFileTime 000000018006c058     kernel32:KERNEL32.dll
 0002:00000060       __imp_InitializeSListHead  000000018006c060     kernel32:KERNEL32.dll
 0002:00000068       __imp_IsDebuggerPresent    000000018006c068     kernel32:KERNEL32.dll
 0002:00000070       __imp_GetStartupInfoW      000000018006c070     kernel32:KERNEL32.dll
 0002:00000078       __imp_GetModuleHandleW     000000018006c078     kernel32:KERNEL32.dll
 0002:00000080       __imp_GetLastError         000000018006c080     kernel32:KERNEL32.dll
 0002:00000088       __imp_GetModuleFileNameW   000000018006c088     kernel32:KERNEL32.dll
 0002:00000090       __imp_RtlUnwindEx          000000018006c090     kernel32:KERNEL32.dll
 0002:00000098       __imp_InterlockedFlushSList 000000018006c098     kernel32:KERNEL32.dll
 0002:000000a0       __imp_InitializeCriticalSectionAndSpinCount 000000018006c0a0     kernel32:KERNEL32.dll
 0002:000000a8       __imp_TlsAlloc             000000018006c0a8     kernel32:KERNEL32.dll
 0002:000000b0       __imp_TlsGetValue          000000018006c0b0     kernel32:KERNEL32.dll
 0002:000000b8       __imp_TlsSetValue          000000018006c0b8     kernel32:KERNEL32.dll
 0002:000000c0       __imp_TlsFree              000000018006c0c0     kernel32:KERNEL32.dll
 0002:000000c8       __imp_FreeLibrary          000000018006c0c8     kernel32:KERNEL32.dll
 0002:000000d0       __imp_GetProcAddress       000000018006c0d0     kernel32:KERNEL32.dll
 0002:000000d8       __imp_LoadLibraryExW       000000018006c0d8     kernel32:KERNEL32.dll
 0002:000000e0       __imp_SetLastError         000000018006c0e0     kernel32:KERNEL32.dll
 0002:000000e8       __imp_EnterCriticalSection 000000018006c0e8     kernel32:KERNEL32.dll
 0002:000000f0       __imp_LeaveCriticalSection 000000018006c0f0     kernel32:KERNEL32.dll
 0002:000000f8       __imp_DeleteCriticalSection 000000018006c0f8     kernel32:KERNEL32.dll
 0002:00000100       __imp_GetStdHandle         000000018006c100     kernel32:KERNEL32.dll
 0002:00000108       __imp_GetFileType          000000018006c108     kernel32:KERNEL32.dll
 0002:00000110       __imp_GetModuleFileNameA   000000018006c110     kernel32:KERNEL32.dll
 0002:00000118       __imp_GetModuleHandleExW   000000018006c118     kernel32:KERNEL32.dll
 0002:00000120       __imp_WriteConsoleW        000000018006c120     kernel32:KERNEL32.dll
 0002:00000128       __imp_ReadFile             000000018006c128     kernel32:KERNEL32.dll
 0002:00000130       __imp_ExitProcess          000000018006c130     kernel32:KERNEL32.dll
 0002:00000138       __imp_MultiByteToWideChar  000000018006c138     kernel32:KERNEL32.dll
 0002:00000140       __imp_WideCharToMultiByte  000000018006c140     kernel32:KERNEL32.dll
 0002:00000148       __imp_HeapAlloc            000000018006c148     kernel32:KERNEL32.dll
 0002:00000150       __imp_RtlLookupFunctionEntry 000000018006c150     kernel32:KERNEL32.dll
 0002:00000158       __imp_HeapValidate         000000018006c158     kernel32:KERNEL32.dll
 0002:00000160       __imp_GetSystemInfo        000000018006c160     kernel32:KERNEL32.dll
 0002:00000168       __imp_WriteFile            000000018006c168     kernel32:KERNEL32.dll
 0002:00000170       __imp_OutputDebugStringA   000000018006c170     kernel32:KERNEL32.dll
 0002:00000178       __imp_OutputDebugStringW   000000018006c178     kernel32:KERNEL32.dll
 0002:00000180       __imp_CloseHandle          000000018006c180     kernel32:KERNEL32.dll
 0002:00000188       __imp_WaitForSingleObjectEx 000000018006c188     kernel32:KERNEL32.dll
 0002:00000190       __imp_CreateThread         000000018006c190     kernel32:KERNEL32.dll
 0002:00000198       __imp_GetConsoleMode       000000018006c198     kernel32:KERNEL32.dll
 0002:000001a0       __imp_ReadConsoleW         000000018006c1a0     kernel32:KERNEL32.dll
 0002:000001a8       __imp_SetFilePointerEx     000000018006c1a8     kernel32:KERNEL32.dll
 0002:000001b0       __imp_RaiseException       000000018006c1b0     kernel32:KERNEL32.dll
 0002:000001b8       __imp_GetStringTypeW       000000018006c1b8     kernel32:KERNEL32.dll
 0002:000001c0       __imp_GetACP               000000018006c1c0     kernel32:KERNEL32.dll
 0002:000001c8       __imp_LCMapStringW         000000018006c1c8     kernel32:KERNEL32.dll
 0002:000001d0       __imp_IsValidCodePage      000000018006c1d0     kernel32:KERNEL32.dll
 0002:000001d8       __imp_GetOEMCP             000000018006c1d8     kernel32:KERNEL32.dll
 0002:000001e0       __imp_GetCPInfo            000000018006c1e0     kernel32:KERNEL32.dll
 0002:000001e8       __imp_GetEnvironmentStringsW 000000018006c1e8     kernel32:KERNEL32.dll
 0002:000001f0       __imp_FreeEnvironmentStringsW 000000018006c1f0     kernel32:KERNEL32.dll
 0002:000001f8       __imp_GetProcessHeap       000000018006c1f8     kernel32:KERNEL32.dll
 0002:00000200       __imp_GetCommandLineA      000000018006c200     kernel32:KERNEL32.dll
 0002:00000208       __imp_GetCommandLineW      000000018006c208     kernel32:KERNEL32.dll
 0002:00000210       __imp_HeapFree             000000018006c210     kernel32:KERNEL32.dll
 0002:00000218       __imp_HeapReAlloc          000000018006c218     kernel32:KERNEL32.dll
 0002:00000220       __imp_HeapQueryInformation 000000018006c220     kernel32:KERNEL32.dll
 0002:00000228       __imp_FlushFileBuffers     000000018006c228     kernel32:KERNEL32.dll
 0002:00000230       __imp_GetConsoleCP         000000018006c230     kernel32:KERNEL32.dll
 0002:00000238       __imp_CreateFileW          000000018006c238     kernel32:KERNEL32.dll
 0002:00000240       __imp_SetStdHandle         000000018006c240     kernel32:KERNEL32.dll
 0002:00000248       __imp_SetEndOfFile         000000018006c248     kernel32:KERNEL32.dll
 0002:00000250       __imp_HeapSize             000000018006c250     kernel32:KERNEL32.dll
 0002:00000258       __imp_RtlCaptureContext    000000018006c258     kernel32:KERNEL32.dll
 0002:00000260       __imp_RtlPcToFileHeader    000000018006c260     kernel32:KERNEL32.dll
 0002:00000268       __imp_EncodePointer        000000018006c268     kernel32:KERNEL32.dll
 0002:00000270       \177KERNEL32_NULL_THUNK_DATA 000000018006c270     kernel32:KERNEL32.dll
 0002:00000278       __guard_check_icall_fptr   000000018006c278     LIBCMTD:guard_support.obj
 0002:00000280       __guard_dispatch_icall_fptr 000000018006c280     LIBCMTD:guard_support.obj
 0002:00000288       __xc_a                     000000018006c288     LIBCMTD:initializers.obj
 0002:00000290       __xc_z                     000000018006c290     LIBCMTD:initializers.obj
 0002:00000298       __xi_a                     000000018006c298     LIBCMTD:initializers.obj
 0002:000002a0       __acrt_stdio_initializer   000000018006c2a0     libucrtd:stdio_initializer.obj
 0002:000002a8       __acrt_tran_fma3_initializer 000000018006c2a8     libucrtd:fma3_initializer.obj
 0002:000002b0       __acrt_multibyte_initializer 000000018006c2b0     libucrtd:multibyte_initializer.obj
 0002:000002b8       __xi_z                     000000018006c2b8     LIBCMTD:initializers.obj
 0002:000002c0       __xp_a                     000000018006c2c0     LIBCMTD:initializers.obj
 0002:000002c8       __acrt_locale_terminator   000000018006c2c8     libucrtd:locale_initializer.obj
 0002:000002d0       __dcrt_console_output_terminator 000000018006c2d0     libucrtd:console_output_initializer.obj
 0002:000002d8       __acrt_stdio_terminator    000000018006c2d8     libucrtd:stdio_initializer.obj
 0002:000002e0       __xp_z                     000000018006c2e0     LIBCMTD:initializers.obj
 0002:000002e8       __xt_a                     000000018006c2e8     LIBCMTD:initializers.obj
 0002:000002f0       __xt_z                     000000018006c2f0     LIBCMTD:initializers.obj
 0002:000051c4       __real@00000000            00000001800711c4     gamecode.obj
 0002:000051c8       __real@17800000            00000001800711c8     gamecode.obj
 0002:000051cc       __real@28800000            00000001800711cc     gamecode.obj
 0002:000051d0       __real@34000000            00000001800711d0     gamecode.obj
 0002:000051d4       __real@3b4d2e1c            00000001800711d4     gamecode.obj
 0002:000051d8       __real@3ba3d70a            00000001800711d8     gamecode.obj
 0002:000051dc       __real@3c23d70a            00000001800711dc     gamecode.obj
 0002:000051e0       __real@3d25aee6            00000001800711e0     gamecode.obj
 0002:000051e4       __real@3d6147ae            00000001800711e4     gamecode.obj
 0002:000051e8       __real@3dcccccd            00000001800711e8     gamecode.obj
 0002:000051ec       __real@3f000000            00000001800711ec     gamecode.obj
 0002:000051f0       __real@3f666666            00000001800711f0     gamecode.obj
 0002:000051f4       __real@3f733333            00000001800711f4     gamecode.obj
 0002:000051f8       __real@3f800000            00000001800711f8     gamecode.obj
 0002:000051fc       __real@3f870a3d            00000001800711fc     gamecode.obj
 0002:00005200       __real@3f8ccccd            0000000180071200     gamecode.obj
 0002:00005204       __real@3fc00000            0000000180071204     gamecode.obj
 0002:00005208       __real@3fdaaaaa98e38e45    0000000180071208     gamecode.obj
 0002:00005210       __real@3fe0000000000000    0000000180071210     gamecode.obj
 0002:00005218       __real@3feccccccccccccd    0000000180071218     gamecode.obj
 0002:00005220       __real@3feff7ced916872b    0000000180071220     gamecode.obj
 0002:00005228       __real@3ff0000000000000    0000000180071228     gamecode.obj
 0002:00005230       __real@40000000            0000000180071230     gamecode.obj
 0002:00005238       __real@4003333340000000    0000000180071238     gamecode.obj
 0002:00005240       __real@40200000            0000000180071240     gamecode.obj
 0002:00005244       __real@40400000            0000000180071244     gamecode.obj
 0002:00005248       __real@40800000            0000000180071248     gamecode.obj
 0002:0000524c       __real@40c00000            000000018007124c     gamecode.obj
 0002:00005250       __real@40e00000            0000000180071250     gamecode.obj
 0002:00005254       __real@41000000            0000000180071254     gamecode.obj
 0002:00005258       __real@41200000            0000000180071258     gamecode.obj
 0002:0000525c       __real@414eb852            000000018007125c     gamecode.obj
 0002:00005260       __real@41800000            0000000180071260     gamecode.obj
 0002:00005264       __real@41900000            0000000180071264     gamecode.obj
 0002:00005268       __real@41a00000            0000000180071268     gamecode.obj
 0002:0000526c       __real@41a80000            000000018007126c     gamecode.obj
 0002:00005270       __real@41efffffffe00000    0000000180071270     gamecode.obj
 0002:00005278       __real@42000000            0000000180071278     gamecode.obj
 0002:0000527c       __real@42100000            000000018007127c     gamecode.obj
 0002:00005280       __real@42c80000            0000000180071280     gamecode.obj
 0002:00005284       __real@42dc0000            0000000180071284     gamecode.obj
 0002:00005288       __real@437f0000            0000000180071288     gamecode.obj
 0002:0000528c       __real@43cd0000            000000018007128c     gamecode.obj
 0002:00005290       __real@43d20000            0000000180071290     gamecode.obj
 0002:00005294       __real@43fa0000            0000000180071294     gamecode.obj
 0002:00005298       __real@477fff00            0000000180071298     gamecode.obj
 0002:0000529c       __real@7f7fffff            000000018007129c     gamecode.obj
 0002:000052a0       __real@bf800000            00000001800712a0     gamecode.obj
 0002:000052a4       __real@c1400000            00000001800712a4     gamecode.obj
 0002:000052a8       __real@c2700000            00000001800712a8     gamecode.obj
 0002:000052ac       __real@ff7fffff            00000001800712ac     gamecode.obj
 0002:000052b0       __xmm@00000200000002000000020000000200 00000001800712b0     gamecode.obj
 0002:000052c0       __xmm@00080008000800080008000800080008 00000001800712c0     gamecode.obj
 0002:000052d0       __xmm@00ff00ff00ff00ff00ff00ff00ff00ff 00000001800712d0     gamecode.obj
 0002:000052e0       __xmm@01010000010100000101000001010000 00000001800712e0     gamecode.obj
 0002:000052f0       __xmm@08a914e808a914e808a914e808a914e8 00000001800712f0     gamecode.obj
 0002:00005300       __xmm@11c8e09e11c8e09e11c8e09e11c8e09e 0000000180071300     gamecode.obj
 0002:00005310       __xmm@11c8f9c311c8f9c311c8f9c311c8f9c3 0000000180071310     gamecode.obj
 0002:00005320       __xmm@12d0046b12d0046b12d0046b12d0046b 0000000180071320     gamecode.obj
 0002:00005330       __xmm@166f166f166f166f166f166f166f166f 0000000180071330     gamecode.obj
 0002:00005340       __xmm@1c5a1c5a1c5a1c5a1c5a1c5a1c5a1c5a 0000000180071340     gamecode.obj
 0002:00005350       __xmm@7fffffffffffffff7fffffffffffffff 0000000180071350     gamecode.obj
 0002:00005360       __xmm@80000000800000008000000080000000 0000000180071360     gamecode.obj
 0002:00005370       __xmm@80808080808080808080808080808080 0000000180071370     gamecode.obj
 0002:00005380       __xmm@e09ee565e09ee565e09ee565e09ee565 0000000180071380     gamecode.obj
 0002:00005390       __xmm@e9cf12d0e9cf12d0e9cf12d0e9cf12d0 0000000180071390     gamecode.obj
 0002:000053a0       __xmm@eb1a08a9eb1a08a9eb1a08a9eb1a08a9 00000001800713a0     gamecode.obj
 0002:000053b0       __xmm@f493f493f493f493f493f493f493f493 00000001800713b0     gamecode.obj
 0002:000053c0       __xmm@f9c31a9df9c31a9df9c31a9df9c31a9d 00000001800713c0     gamecode.obj
 0002:000053d0       __xmm@fa7efa7efa7efa7efa7efa7efa7efa7e 00000001800713d0     gamecode.obj
 0002:000053e0       _pRawDllMain               00000001800713e0     LIBCMTD:dll_dllmain.obj
 0002:000053e0       _pDefaultRawDllMain        00000001800713e0     LIBCMTD:dll_dllmain.obj
 0002:000053f8       _Microsoft_CRTProvider     00000001800713f8     libvcruntimed:telemetry.obj
 0002:00005400       ??_C@_00CNPNBAHC@?$AA@     0000000180071400     libvcruntimed:telemetry.obj
 0002:00005404       ??_C@_11LOCGONAA@?$AA?$AA@ 0000000180071404     libvcruntimed:telemetry.obj
 0002:00005408       ??_C@_0O@JEOPJOMI@Main?5Invoked?4?$AA@ 0000000180071408     libvcruntimed:telemetry.obj
 0002:00005418       ??_C@_0P@NEAEIBDO@Main?5Returned?4?$AA@ 0000000180071418     libvcruntimed:telemetry.obj
 0002:00005448       ??_C@_1BC@DNHGCMLG@?$AAa?$AAd?$AAv?$AAa?$AAp?$AAi?$AA3?$AA2?$AA?$AA@ 0000000180071448     libvcruntimed:winapi_downlevel.obj
 0002:00005460       ??_C@_1DM@KHCHBNEB@?$AAa?$AAp?$AAi?$AA?9?$AAm?$AAs?$AA?9?$AAw?$AAi?$AAn?$AA?9?$AAc?$AAo?$AAr?$AAe?$AA?9?$AAf?$AAi?$AAb?$AAe?$AAr?$AAs?$AA?9?$AAl?$AA1?$AA?9?$AA1?$AA?9?$AA1?$AA?$AA@ 0000000180071460     libvcruntimed:winapi_downlevel.obj
 0002:000054a0       ??_C@_1DK@LPPGFMPP@?$AAa?$AAp?$AAi?$AA?9?$AAm?$AAs?$AA?9?$AAw?$AAi?$AAn?$AA?9?$AAc?$AAo?$AAr?$AAe?$AA?9?$AAs?$AAy?$AAn?$AAc?$AAh?$AA?9?$AAl?$AA1?$AA?9?$AA2?$AA?9?$AA0?$AA?$AA@ 00000001800714a0     libvcruntimed:winapi_downlevel.obj
 0002:000054e0       ??_C@_1BC@GDMECMAK@?$AAk?$AAe?$AAr?$AAn?$AAe?$AAl?$AA3?$AA2?$AA?$AA@ 00000001800714e0     libvcruntimed:winapi_downlevel.obj
 0002:000054f8       ??_C@_17CNPHIMPH@?$AA?$CF?$AAl?$AAs?$AA?$AA@ 00000001800714f8     libvcruntimed:winapi_downlevel.obj
 0002:00005500       ??_C@_1EM@LBIFGLGH@?$AAc?$AAa?$AAc?$AAh?$AAe?$AAd?$AA_?$AAh?$AAa?$AAn?$AAd?$AAl?$AAe?$AA?5?$AA?$DN?$AA?$DN?$AA?5?$AAI?$AAN?$AAV?$AAA?$AAL?$AAI?$AAD?$AA_?$AAH?$AAA?$AAN?$AAD?$AAL?$AAE?$AA_@ 0000000180071500     libvcruntimed:winapi_downlevel.obj
 0002:00005550       ??_C@_1HM@FGPKDEPG@?$AAf?$AA?3?$AA?2?$AAd?$AAd?$AA?2?$AAv?$AAc?$AAt?$AAo?$AAo?$AAl?$AAs?$AA?2?$AAc?$AAr?$AAt?$AA?2?$AAv?$AAc?$AAr?$AAu?$AAn?$AAt?$AAi?$AAm?$AAe?$AA?2?$AAs?$AAr?$AAc?$AA?2@ 0000000180071550     libvcruntimed:winapi_downlevel.obj
 0002:000055d0       ??_C@_1DI@MAHEDLDB@?$AAc?$AAa?$AAc?$AAh?$AAe?$AAd?$AA_?$AAh?$AAa?$AAn?$AAd?$AAl?$AAe?$AA?5?$AA?$DN?$AA?$DN?$AA?5?$AAn?$AAe?$AAw?$AA_?$AAh?$AAa?$AAn?$AAd?$AAl?$AAe?$AA?$AA@ 00000001800715d0     libvcruntimed:winapi_downlevel.obj
 0002:00005610       ??_C@_1FC@IBNCGNKL@?$AAc?$AAa?$AAc?$AAh?$AAe?$AAd?$AA_?$AAf?$AAp?$AA?5?$AA?$DN?$AA?$DN?$AA?5?$AAi?$AAn?$AAv?$AAa?$AAl?$AAi?$AAd?$AA_?$AAf?$AAu?$AAn?$AAc?$AAt?$AAi?$AAo?$AAn?$AA_?$AAs?$AAe@ 0000000180071610     libvcruntimed:winapi_downlevel.obj
 0002:00005668       ??_C@_1CI@GDJBAGLP@?$AAc?$AAa?$AAc?$AAh?$AAe?$AAd?$AA_?$AAf?$AAp?$AA?5?$AA?$DN?$AA?$DN?$AA?5?$AAn?$AAe?$AAw?$AA_?$AAf?$AAp?$AA?$AA@ 0000000180071668     libvcruntimed:winapi_downlevel.obj
 0002:00005698       ??_C@_0O@BAMBGLIE@EventRegister?$AA@ 0000000180071698     libvcruntimed:winapi_downlevel.obj
 0002:000056b0       ??_C@_0BE@BJEEGHGK@EventSetInformation?$AA@ 00000001800716b0     libvcruntimed:winapi_downlevel.obj
 0002:000056c8       ??_C@_0BA@FAKLIPIC@EventUnregister?$AA@ 00000001800716c8     libvcruntimed:winapi_downlevel.obj
 0002:000056e0       ??_C@_0BD@PKLHJPHD@EventWriteTransfer?$AA@ 00000001800716e0     libvcruntimed:winapi_downlevel.obj
 0002:00005700       ??_C@_08KNHFBNJ@FlsAlloc?$AA@ 0000000180071700     libvcruntimed:winapi_downlevel.obj
 0002:00005718       ??_C@_07PEJMOBNF@FlsFree?$AA@ 0000000180071718     libvcruntimed:winapi_downlevel.obj
 0002:00005728       ??_C@_0M@GDNOONDI@FlsGetValue?$AA@ 0000000180071728     libvcruntimed:winapi_downlevel.obj
 0002:00005740       ??_C@_0M@JCPCPOEF@FlsSetValue?$AA@ 0000000180071740     libvcruntimed:winapi_downlevel.obj
 0002:00005758       ??_C@_0BM@HCFOFFN@InitializeCriticalSectionEx?$AA@ 0000000180071758     libvcruntimed:winapi_downlevel.obj
 0002:00005778       ??_C@_0DN@JAECLCAP@f?3?2dd?2vctools?2crt?2vcruntime?2src?2@ 0000000180071778     libvcruntimed:per_thread_data.obj
 0002:00005ae0       ??_C@_08EHJDFFNH@__based?$CI?$AA@ 0000000180071ae0     libvcruntimed:undname.obj
 0002:00005af0       ??_C@_07KOLFKCDI@__cdecl?$AA@ 0000000180071af0     libvcruntimed:undname.obj
 0002:00005af8       ??_C@_08GHMPAG@__pascal?$AA@ 0000000180071af8     libvcruntimed:undname.obj
 0002:00005b08       ??_C@_09IFJBGAPI@__stdcall?$AA@ 0000000180071b08     libvcruntimed:undname.obj
 0002:00005b18       ??_C@_0L@NPHFGOKO@__thiscall?$AA@ 0000000180071b18     libvcruntimed:undname.obj
 0002:00005b28       ??_C@_0L@JMKHOMEK@__fastcall?$AA@ 0000000180071b28     libvcruntimed:undname.obj
 0002:00005b38       ??_C@_0N@BCKKPABJ@__vectorcall?$AA@ 0000000180071b38     libvcruntimed:undname.obj
 0002:00005b48       ??_C@_09HIJEGCPM@__clrcall?$AA@ 0000000180071b48     libvcruntimed:undname.obj
 0002:00005b54       ??_C@_06GHPCKEAG@__eabi?$AA@ 0000000180071b54     libvcruntimed:undname.obj
 0002:00005b60       ??_C@_07JOMMBBKO@__ptr64?$AA@ 0000000180071b60     libvcruntimed:undname.obj
 0002:00005b68       ??_C@_0L@PILCLIHE@__restrict?$AA@ 0000000180071b68     libvcruntimed:undname.obj
 0002:00005b78       ??_C@_0M@GFIIJFMG@__unaligned?$AA@ 0000000180071b78     libvcruntimed:undname.obj
 0002:00005b88       ??_C@_09DHDLOLLB@restrict?$CI?$AA@ 0000000180071b88     libvcruntimed:undname.obj
 0002:00005b94       ??_C@_04NIHEBCM@?5new?$AA@ 0000000180071b94     libvcruntimed:undname.obj
 0002:00005ba0       ??_C@_07FPCDHGMM@?5delete?$AA@ 0000000180071ba0     libvcruntimed:undname.obj
 0002:00005ba8       ??_C@_01NEMOKFLO@?$DN?$AA@ 0000000180071ba8     libvcruntimed:undname.obj
 0002:00005bac       ??_C@_02GPIOPFAK@?$DO?$DO?$AA@ 0000000180071bac     libvcruntimed:undname.obj
 0002:00005bb0       ??_C@_02FODMEDOG@?$DM?$DM?$AA@ 0000000180071bb0     libvcruntimed:undname.obj
 0002:00005bb4       ??_C@_01DCLJPIOD@?$CB?$AA@ 0000000180071bb4     libvcruntimed:undname.obj
 0002:00005bb8       ??_C@_02EGOFBIJA@?$DN?$DN?$AA@ 0000000180071bb8     libvcruntimed:undname.obj
 0002:00005bbc       ??_C@_02FDNJECIE@?$CB?$DN?$AA@ 0000000180071bbc     libvcruntimed:undname.obj
 0002:00005bc0       ??_C@_02GPECMEKF@?$FL?$FN?$AA@ 0000000180071bc0     libvcruntimed:undname.obj
 0002:00005bc8       ??_C@_08LHJFAFGD@operator?$AA@ 0000000180071bc8     libvcruntimed:undname.obj
 0002:00005bd4       ??_C@_02HBOOOICD@?9?$DO?$AA@ 0000000180071bd4     libvcruntimed:undname.obj
 0002:00005bd8       ??_C@_01NBENCBCI@?$CK?$AA@ 0000000180071bd8     libvcruntimed:undname.obj
 0002:00005bdc       ??_C@_02ECNGHCIF@?$CL?$CL?$AA@ 0000000180071bdc     libvcruntimed:undname.obj
 0002:00005be0       ??_C@_02BAABKJLB@?9?9?$AA@ 0000000180071be0     libvcruntimed:undname.obj
 0002:00005be4       ??_C@_01JOAMLHOP@?9?$AA@   0000000180071be4     libvcruntimed:undname.obj
 0002:00005be8       ??_C@_01MIFGBAGJ@?$CL?$AA@ 0000000180071be8     libvcruntimed:undname.obj
 0002:00005bec       ??_C@_01HNPIGOCE@?$CG?$AA@ 0000000180071bec     libvcruntimed:undname.obj
 0002:00005bf0       ??_C@_03MNHNFDLC@?9?$DO?$CK?$AA@ 0000000180071bf0     libvcruntimed:undname.obj
 0002:00005bf4       ??_C@_01KMDKNFGN@?1?$AA@   0000000180071bf4     libvcruntimed:undname.obj
 0002:00005bf8       ??_C@_01FGNFDNOH@?$CF?$AA@ 0000000180071bf8     libvcruntimed:undname.obj
 0002:00005bfc       ??_C@_01MNNFJEPP@?$DM?$AA@ 0000000180071bfc     libvcruntimed:undname.obj
 0002:00005c00       ??_C@_02EHCHHCKH@?$DM?$DN?$AA@ 0000000180071c00     libvcruntimed:undname.obj
 0002:00005c04       ??_C@_01PPODPGHN@?$DO?$AA@ 0000000180071c04     libvcruntimed:undname.obj
 0002:00005c08       ??_C@_02EEKDKGMJ@?$DO?$DN?$AA@ 0000000180071c08     libvcruntimed:undname.obj
 0002:00005c0c       ??_C@_01IHBHIGKO@?0?$AA@   0000000180071c0c     libvcruntimed:undname.obj
 0002:00005c10       ??_C@_02HCKGKOFO@?$CI?$CJ?$AA@ 0000000180071c10     libvcruntimed:undname.obj
 0002:00005c14       ??_C@_01PJKLJHI@?$HO?$AA@  0000000180071c14     libvcruntimed:undname.obj
 0002:00005c18       ??_C@_01JKBOJNNK@?$FO?$AA@ 0000000180071c18     libvcruntimed:undname.obj
 0002:00005c1c       ??_C@_01DNKMNLPK@?$HM?$AA@ 0000000180071c1c     libvcruntimed:undname.obj
 0002:00005c20       ??_C@_02PPKAJPJL@?$CG?$CG?$AA@ 0000000180071c20     libvcruntimed:undname.obj
 0002:00005c24       ??_C@_02NONPIBCD@?$HM?$HM?$AA@ 0000000180071c24     libvcruntimed:undname.obj
 0002:00005c28       ??_C@_02FPIMKNGF@?$CK?$DN?$AA@ 0000000180071c28     libvcruntimed:undname.obj
 0002:00005c2c       ??_C@_02FOEOMHFC@?$CL?$DN?$AA@ 0000000180071c2c     libvcruntimed:undname.obj
 0002:00005c30       ??_C@_02FKMDLLOA@?9?$DN?$AA@ 0000000180071c30     libvcruntimed:undname.obj
 0002:00005c34       ??_C@_02FJEHGPIO@?1?$DN?$AA@ 0000000180071c34     libvcruntimed:undname.obj
 0002:00005c38       ??_C@_02FENAOKFI@?$CF?$DN?$AA@ 0000000180071c38     libvcruntimed:undname.obj
 0002:00005c3c       ??_C@_03IKFCCPFF@?$DO?$DO?$DN?$AA@ 0000000180071c3c     libvcruntimed:undname.obj
 0002:00005c40       ??_C@_03CDNPDDLA@?$DM?$DM?$DN?$AA@ 0000000180071c40     libvcruntimed:undname.obj
 0002:00005c44       ??_C@_02FGJGFEAB@?$CG?$DN?$AA@ 0000000180071c44     libvcruntimed:undname.obj
 0002:00005c48       ??_C@_02DHLNPPGH@?$HM?$DN?$AA@ 0000000180071c48     libvcruntimed:undname.obj
 0002:00005c4c       ??_C@_02MHEGNOJ@?$FO?$DN?$AA@ 0000000180071c4c     libvcruntimed:undname.obj
 0002:00005c50       ??_C@_09IFPLHPGF@?$GAvftable?8?$AA@ 0000000180071c50     libvcruntimed:undname.obj
 0002:00005c60       ??_C@_09BLBHBJP@?$GAvbtable?8?$AA@ 0000000180071c60     libvcruntimed:undname.obj
 0002:00005c70       ??_C@_07FEEIOKP@?$GAvcall?8?$AA@ 0000000180071c70     libvcruntimed:undname.obj
 0002:00005c78       ??_C@_08LLFFHHDJ@?$GAtypeof?8?$AA@ 0000000180071c78     libvcruntimed:undname.obj
 0002:00005c88       ??_C@_0BF@KDPPACIK@?$GAlocal?5static?5guard?8?$AA@ 0000000180071c88     libvcruntimed:undname.obj
 0002:00005ca0       ??_C@_08OBABFOLI@?$GAstring?8?$AA@ 0000000180071ca0     libvcruntimed:undname.obj
 0002:00005cb0       ??_C@_0BD@JDLKDPAB@?$GAvbase?5destructor?8?$AA@ 0000000180071cb0     libvcruntimed:undname.obj
 0002:00005cc8       ??_C@_0BN@DEGPLNFK@?$GAvector?5deleting?5destructor?8?$AA@ 0000000180071cc8     libvcruntimed:undname.obj
 0002:00005ce8       ??_C@_0BO@OBMKPJIG@?$GAdefault?5constructor?5closure?8?$AA@ 0000000180071ce8     libvcruntimed:undname.obj
 0002:00005d08       ??_C@_0BN@IMDCHIKM@?$GAscalar?5deleting?5destructor?8?$AA@ 0000000180071d08     libvcruntimed:undname.obj
 0002:00005d28       ??_C@_0BO@PFGOCPJJ@?$GAvector?5constructor?5iterator?8?$AA@ 0000000180071d28     libvcruntimed:undname.obj
 0002:00005d48       ??_C@_0BN@LFPFMEDL@?$GAvector?5destructor?5iterator?8?$AA@ 0000000180071d48     libvcruntimed:undname.obj
 0002:00005d68       ??_C@_0CE@IKBNEHA@?$GAvector?5vbase?5constructor?5iterat@ 0000000180071d68     libvcruntimed:undname.obj
 0002:00005d90       ??_C@_0BL@NILFHHPC@?$GAvirtual?5displacement?5map?8?$AA@ 0000000180071d90     libvcruntimed:undname.obj
 0002:00005db0       ??_C@_0CB@JONCMFFK@?$GAeh?5vector?5constructor?5iterator?8@ 0000000180071db0     libvcruntimed:undname.obj
 0002:00005dd8       ??_C@_0CA@GCEOPDGL@?$GAeh?5vector?5destructor?5iterator?8?$AA@ 0000000180071dd8     libvcruntimed:undname.obj
 0002:00005df8       ??_C@_0CH@OOJPLCPH@?$GAeh?5vector?5vbase?5constructor?5ite@ 0000000180071df8     libvcruntimed:undname.obj
 0002:00005e20       ??_C@_0BL@LLKPOHJI@?$GAcopy?5constructor?5closure?8?$AA@ 0000000180071e20     libvcruntimed:undname.obj
 0002:00005e40       ??_C@_0BA@KBCDOMBN@?$GAudt?5returning?8?$AA@ 0000000180071e40     libvcruntimed:undname.obj
 0002:00005e50       ??_C@_03KLGMFNMG@?$GAEH?$AA@ 0000000180071e50     libvcruntimed:undname.obj
 0002:00005e54       ??_C@_05KHLCHHI@?$GARTTI?$AA@ 0000000180071e54     libvcruntimed:undname.obj
 0002:00005e60       ??_C@_0BA@KKLDJDLB@?$GAlocal?5vftable?8?$AA@ 0000000180071e60     libvcruntimed:undname.obj
 0002:00005e70       ??_C@_0CE@IIHCMGGL@?$GAlocal?5vftable?5constructor?5closu@ 0000000180071e70     libvcruntimed:undname.obj
 0002:00005e94       ??_C@_06FHBGPFGH@?5new?$FL?$FN?$AA@ 0000000180071e94     libvcruntimed:undname.obj
 0002:00005ea0       ??_C@_09LBNFPBCA@?5delete?$FL?$FN?$AA@ 0000000180071ea0     libvcruntimed:undname.obj
 0002:00005eb0       ??_C@_0P@HJKNJFNN@?$GAomni?5callsig?8?$AA@ 0000000180071eb0     libvcruntimed:undname.obj
 0002:00005ec0       ??_C@_0BL@CNOONJFP@?$GAplacement?5delete?5closure?8?$AA@ 0000000180071ec0     libvcruntimed:undname.obj
 0002:00005ee0       ??_C@_0BN@CKNJLHMB@?$GAplacement?5delete?$FL?$FN?5closure?8?$AA@ 0000000180071ee0     libvcruntimed:undname.obj
 0002:00005f00       ??_C@_0CG@CFDHKGGD@?$GAmanaged?5vector?5constructor?5iter@ 0000000180071f00     libvcruntimed:undname.obj
 0002:00005f28       ??_C@_0CF@IMGKMJNO@?$GAmanaged?5vector?5destructor?5itera@ 0000000180071f28     libvcruntimed:undname.obj
 0002:00005f50       ??_C@_0CG@HLDDJMAG@?$GAeh?5vector?5copy?5constructor?5iter@ 0000000180071f50     libvcruntimed:undname.obj
 0002:00005f78       ??_C@_0CM@FCBBDIGB@?$GAeh?5vector?5vbase?5copy?5constructo@ 0000000180071f78     libvcruntimed:undname.obj
 0002:00005fa8       ??_C@_0BL@CLIPGLGB@?$GAdynamic?5initializer?5for?5?8?$AA@ 0000000180071fa8     libvcruntimed:undname.obj
 0002:00005fc8       ??_C@_0CB@PDBIFEP@?$GAdynamic?5atexit?5destructor?5for?5?8@ 0000000180071fc8     libvcruntimed:undname.obj
 0002:00005ff0       ??_C@_0CD@CGAJBKEJ@?$GAvector?5copy?5constructor?5iterato@ 0000000180071ff0     libvcruntimed:undname.obj
 0002:00006018       ??_C@_0CJ@GJELGAMM@?$GAvector?5vbase?5copy?5constructor?5i@ 0000000180072018     libvcruntimed:undname.obj
 0002:00006048       ??_C@_0CL@FGIJHLCE@?$GAmanaged?5vector?5copy?5constructor@ 0000000180072048     libvcruntimed:undname.obj
 0002:00006078       ??_C@_0BM@PMGGMLDN@?$GAlocal?5static?5thread?5guard?8?$AA@ 0000000180072078     libvcruntimed:undname.obj
 0002:00006098       ??_C@_0N@BDNMDMOL@operator?5?$CC?$CC?5?$AA@ 0000000180072098     libvcruntimed:undname.obj
 0002:000060a8       ??_C@_0BC@DAFEJGAK@?5Type?5Descriptor?8?$AA@ 00000001800720a8     libvcruntimed:undname.obj
 0002:000060c0       ??_C@_0BM@LDKODKLH@?5Base?5Class?5Descriptor?5at?5?$CI?$AA@ 00000001800720c0     libvcruntimed:undname.obj
 0002:000060e0       ??_C@_0BD@LGICGFMM@?5Base?5Class?5Array?8?$AA@ 00000001800720e0     libvcruntimed:undname.obj
 0002:000060f8       ??_C@_0BN@MECKDCOJ@?5Class?5Hierarchy?5Descriptor?8?$AA@ 00000001800720f8     libvcruntimed:undname.obj
 0002:00006118       ??_C@_0BK@CFCOFLF@?5Complete?5Object?5Locator?8?$AA@ 0000000180072118     libvcruntimed:undname.obj
 0002:00006140       ??_C@_1EK@MBDPDCGA@?$AAM?$AAi?$AAc?$AAr?$AAo?$AAs?$AAo?$AAf?$AAt?$AA?5?$AAV?$AAi?$AAs?$AAu?$AAa?$AAl?$AA?5?$AAC?$AA?$CL?$AA?$CL?$AA?5?$AAR?$AAu?$AAn?$AAt?$AAi?$AAm?$AAe?$AA?5?$AAL?$AAi?$AAb@ 0000000180072140     libucrtd:assert.obj
 0002:00006190       ??_C@_1FE@LHBLIKM@?$AAA?$AAs?$AAs?$AAe?$AAr?$AAt?$AAi?$AAo?$AAn?$AA?5?$AAf?$AAa?$AAi?$AAl?$AAe?$AAd?$AA?3?$AA?5?$AA?$CF?$AAT?$AAs?$AA?0?$AA?5?$AAf?$AAi?$AAl?$AAe?$AA?5?$AA?$CF?$AAT?$AAs?$AA?0@ 0000000180072190     libucrtd:assert.obj
 0002:000061e8       ??_C@_0BC@LAIDCHCH@Assertion?5failed?$CB?$AA@ 00000001800721e8     libucrtd:assert.obj
 0002:00006200       ??_C@_1CE@OJBNHDMO@?$AAA?$AAs?$AAs?$AAe?$AAr?$AAt?$AAi?$AAo?$AAn?$AA?5?$AAf?$AAa?$AAi?$AAl?$AAe?$AAd?$AA?$CB?$AA?$AA@ 0000000180072200     libucrtd:assert.obj
 0002:00006228       ??_C@_1BE@PHKBBGE@?$AAP?$AAr?$AAo?$AAg?$AAr?$AAa?$AAm?$AA?3?$AA?5?$AA?$AA@ 0000000180072228     libucrtd:assert.obj
 0002:00006240       ??_C@_1O@HEMHKNDC@?$AAF?$AAi?$AAl?$AAe?$AA?3?$AA?5?$AA?$AA@ 0000000180072240     libucrtd:assert.obj
 0002:00006250       ??_C@_1O@KCAFKHJE@?$AAL?$AAi?$AAn?$AAe?$AA?3?$AA?5?$AA?$AA@ 0000000180072250     libucrtd:assert.obj
 0002:00006260       ??_C@_1BK@PEDCIPMA@?$AAE?$AAx?$AAp?$AAr?$AAe?$AAs?$AAs?$AAi?$AAo?$AAn?$AA?3?$AA?5?$AA?$AA@ 0000000180072260     libucrtd:assert.obj
 0002:00006280       ??_C@_1OA@EGMLFBHJ@?$AAF?$AAo?$AAr?$AA?5?$AAi?$AAn?$AAf?$AAo?$AAr?$AAm?$AAa?$AAt?$AAi?$AAo?$AAn?$AA?5?$AAo?$AAn?$AA?5?$AAh?$AAo?$AAw?$AA?5?$AAy?$AAo?$AAu?$AAr?$AA?5?$AAp?$AAr?$AAo?$AAg@ 0000000180072280     libucrtd:assert.obj
 0002:00006360       ??_C@_1HK@POCJMFGK@?$AA?$CI?$AAP?$AAr?$AAe?$AAs?$AAs?$AA?5?$AAR?$AAe?$AAt?$AAr?$AAy?$AA?5?$AAt?$AAo?$AA?5?$AAd?$AAe?$AAb?$AAu?$AAg?$AA?5?$AAt?$AAh?$AAe?$AA?5?$AAa?$AAp?$AAp?$AAl?$AAi?$AAc@ 0000000180072360     libucrtd:assert.obj
 0002:000063e0       ??_C@_17LGKOMLJ@?$AA?4?$AA?4?$AA?4?$AA?$AA@ 00000001800723e0     libucrtd:assert.obj
 0002:000063e8       ??_C@_01EEMJAFIK@?6?$AA@   00000001800723e8     libucrtd:assert.obj
 0002:000063ec       ??_C@_13LBAGMAIH@?$AA?6?$AA?$AA@ 00000001800723ec     libucrtd:assert.obj
 0002:000063f0       ??_C@_15IABLJNFO@?$AA?6?$AA?6?$AA?$AA@ 00000001800723f0     libucrtd:assert.obj
 0002:000063f8       ??_C@_0BH@DNAGHKFM@?$DMprogram?5name?5unknown?$DO?$AA@ 00000001800723f8     libucrtd:assert.obj
 0002:00006410       ??_C@_1CO@EAEJAADC@?$AA?$DM?$AAp?$AAr?$AAo?$AAg?$AAr?$AAa?$AAm?$AA?5?$AAn?$AAa?$AAm?$AAe?$AA?5?$AAu?$AAn?$AAk?$AAn?$AAo?$AAw?$AAn?$AA?$DO?$AA?$AA@ 0000000180072410     libucrtd:assert.obj
 0002:00006440       ??_C@_1GE@PMLOPPED@?$AAm?$AAi?$AAn?$AAk?$AAe?$AAr?$AAn?$AAe?$AAl?$AA?2?$AAc?$AAr?$AAt?$AAs?$AA?2?$AAu?$AAc?$AAr?$AAt?$AA?2?$AAs?$AAr?$AAc?$AA?2?$AAa?$AAp?$AAp?$AAc?$AAr?$AAt?$AA?2?$AAs@ 0000000180072440     libucrtd:assert.obj
 0002:000064b0       ??_C@_1FE@LPBNNEBB@?$AAc?$AAo?$AAm?$AAm?$AAo?$AAn?$AA_?$AAa?$AAs?$AAs?$AAe?$AAr?$AAt?$AA_?$AAt?$AAo?$AA_?$AAm?$AAe?$AAs?$AAs?$AAa?$AAg?$AAe?$AA_?$AAb?$AAo?$AAx?$AA_?$AAb?$AAu?$AAi@ 00000001800724b0     libucrtd:assert.obj
 0002:00006510       ??_C@_1KC@PIMENJIN@?$AAt?$AAr?$AAa?$AAi?$AAt?$AAs?$AA?3?$AA?3?$AAt?$AAc?$AAs?$AAc?$AAp?$AAy?$AA_?$AAs?$AA?$CI?$AAa?$AAs?$AAs?$AAe?$AAr?$AAt?$AA_?$AAb?$AAu?$AAf?$AAf?$AAe?$AAr?$AA?0?$AA?5@ 0000000180072510     libucrtd:assert.obj
 0002:000065c0       ??_C@_1KM@HGCBPADM@?$AAt?$AAr?$AAa?$AAi?$AAt?$AAs?$AA?3?$AA?3?$AAt?$AAc?$AAs?$AAc?$AAa?$AAt?$AA_?$AAs?$AA?$CI?$AAa?$AAs?$AAs?$AAe?$AAr?$AAt?$AA_?$AAb?$AAu?$AAf?$AAf?$AAe?$AAr?$AA?0?$AA?5@ 00000001800725c0     libucrtd:assert.obj
 0002:00006670       ??_C@_1KK@KDENILFB@?$AAt?$AAr?$AAa?$AAi?$AAt?$AAs?$AA?3?$AA?3?$AAt?$AAc?$AAs?$AAc?$AAa?$AAt?$AA_?$AAs?$AA?$CI?$AAa?$AAs?$AAs?$AAe?$AAr?$AAt?$AA_?$AAb?$AAu?$AAf?$AAf?$AAe?$AAr?$AA?0?$AA?5@ 0000000180072670     libucrtd:assert.obj
 0002:00006720       ??_C@_1PE@ECNALGCA@?$AAt?$AAr?$AAa?$AAi?$AAt?$AAs?$AA?3?$AA?3?$AAt?$AAc?$AAs?$AAc?$AAp?$AAy?$AA_?$AAs?$AA?$CI?$AAp?$AAr?$AAo?$AAg?$AAr?$AAa?$AAm?$AA_?$AAn?$AAa?$AAm?$AAe?$AA?0?$AA?5?$AA?$CI@ 0000000180072720     libucrtd:assert.obj
 0002:00006820       ??_C@_1BBM@BCEFIAB@?$AAm?$AAe?$AAm?$AAc?$AAp?$AAy?$AA_?$AAs?$AA?$CI?$AA?5?$AAp?$AAc?$AAh?$AA?0?$AA?5?$AAs?$AAi?$AAz?$AAe?$AAo?$AAf?$AA?$CI?$AAC?$AAh?$AAa?$AAr?$AAa?$AAc?$AAt?$AAe?$AAr?$AA?$CJ@ 0000000180072820     libucrtd:assert.obj
 0002:00006940       ??_C@_1HE@CDLKDPFH@?$AAt?$AAr?$AAa?$AAi?$AAt?$AAs?$AA?3?$AA?3?$AAt?$AAc?$AAs?$AAc?$AAa?$AAt?$AA_?$AAs?$AA?$CI?$AAa?$AAs?$AAs?$AAe?$AAr?$AAt?$AA_?$AAb?$AAu?$AAf?$AAf?$AAe?$AAr?$AA?0?$AA?5@ 0000000180072940     libucrtd:assert.obj
 0002:000069c0       ??_C@_1JO@KJEGDHLC@?$AAt?$AAr?$AAa?$AAi?$AAt?$AAs?$AA?3?$AA?3?$AAt?$AAc?$AAs?$AAc?$AAa?$AAt?$AA_?$AAs?$AA?$CI?$AAa?$AAs?$AAs?$AAe?$AAr?$AAt?$AA_?$AAb?$AAu?$AAf?$AAf?$AAe?$AAr?$AA?0?$AA?5@ 00000001800729c0     libucrtd:assert.obj
 0002:00006a60       ??_C@_1KE@NJCNOBGA@?$AAt?$AAr?$AAa?$AAi?$AAt?$AAs?$AA?3?$AA?3?$AAt?$AAc?$AAs?$AAc?$AAa?$AAt?$AA_?$AAs?$AA?$CI?$AAa?$AAs?$AAs?$AAe?$AAr?$AAt?$AA_?$AAb?$AAu?$AAf?$AAf?$AAe?$AAr?$AA?0?$AA?5@ 0000000180072a60     libucrtd:assert.obj
 0002:00006b10       ??_C@_1LC@HKLLCKBM@?$AAt?$AAr?$AAa?$AAi?$AAt?$AAs?$AA?3?$AA?3?$AAt?$AAc?$AAs?$AAn?$AAc?$AAa?$AAt?$AA_?$AAs?$AA?$CI?$AAa?$AAs?$AAs?$AAe?$AAr?$AAt?$AA_?$AAb?$AAu?$AAf?$AAf?$AAe?$AAr?$AA?0@ 0000000180072b10     libucrtd:assert.obj
 0002:00006bd0       ??_C@_1KI@JBNHIIKF@?$AAt?$AAr?$AAa?$AAi?$AAt?$AAs?$AA?3?$AA?3?$AAt?$AAc?$AAs?$AAc?$AAa?$AAt?$AA_?$AAs?$AA?5?$AA?$CI?$AAa?$AAs?$AAs?$AAe?$AAr?$AAt?$AA_?$AAb?$AAu?$AAf?$AAf?$AAe?$AAr?$AA?0@ 0000000180072bd0     libucrtd:assert.obj
 0002:00006c80       ??_C@_1IK@KKBPPOFO@?$AAt?$AAr?$AAa?$AAi?$AAt?$AAs?$AA?3?$AA?3?$AAt?$AAc?$AAs?$AAc?$AAa?$AAt?$AA_?$AAs?$AA?5?$AA?$CI?$AAa?$AAs?$AAs?$AAe?$AAr?$AAt?$AA_?$AAb?$AAu?$AAf?$AAf?$AAe?$AAr?$AA?0@ 0000000180072c80     libucrtd:assert.obj
 0002:00006d10       ??_C@_1LO@BFIEBOKI@?$AAt?$AAr?$AAa?$AAi?$AAt?$AAs?$AA?3?$AA?3?$AAt?$AAc?$AAs?$AAn?$AAc?$AAa?$AAt?$AA_?$AAs?$AA?$CI?$AAa?$AAs?$AAs?$AAe?$AAr?$AAt?$AA_?$AAb?$AAu?$AAf?$AAf?$AAe?$AAr?$AA?0@ 0000000180072d10     libucrtd:assert.obj
 0002:00006dd0       ??_C@_1KE@OEANDPDB@?$AAt?$AAr?$AAa?$AAi?$AAt?$AAs?$AA?3?$AA?3?$AAt?$AAc?$AAs?$AAn?$AAc?$AAa?$AAt?$AA_?$AAs?$AA?$CI?$AAa?$AAs?$AAs?$AAe?$AAr?$AAt?$AA_?$AAb?$AAu?$AAf?$AAf?$AAe?$AAr?$AA?0@ 0000000180072dd0     libucrtd:assert.obj
 0002:00006e80       ??_C@_1LG@LMABGFBP@?$AAt?$AAr?$AAa?$AAi?$AAt?$AAs?$AA?3?$AA?3?$AAt?$AAc?$AAs?$AAc?$AAa?$AAt?$AA_?$AAs?$AA?5?$AA?$CI?$AAa?$AAs?$AAs?$AAe?$AAr?$AAt?$AA_?$AAb?$AAu?$AAf?$AAf?$AAe?$AAr?$AA?0@ 0000000180072e80     libucrtd:assert.obj
 0002:00006f40       ??_C@_1IA@JPAKIPAA@?$AAt?$AAr?$AAa?$AAi?$AAt?$AAs?$AA?3?$AA?3?$AAt?$AAc?$AAs?$AAc?$AAa?$AAt?$AA_?$AAs?$AA?$CI?$AAa?$AAs?$AAs?$AAe?$AAr?$AAt?$AA_?$AAb?$AAu?$AAf?$AAf?$AAe?$AAr?$AA?0?$AA?5@ 0000000180072f40     libucrtd:assert.obj
 0002:00006fc0       ??_C@_1KE@PADDJOL@?$AAt?$AAr?$AAa?$AAi?$AAt?$AAs?$AA?3?$AA?3?$AAt?$AAc?$AAs?$AAc?$AAa?$AAt?$AA_?$AAs?$AA?$CI?$AAa?$AAs?$AAs?$AAe?$AAr?$AAt?$AA_?$AAb?$AAu?$AAf?$AAf?$AAe?$AAr?$AA?0?$AA?5@ 0000000180072fc0     libucrtd:assert.obj
 0002:00007070       ??_C@_1BAK@NPHNFBPH@?$AAt?$AAr?$AAa?$AAi?$AAt?$AAs?$AA?3?$AA?3?$AAi?$AAt?$AAo?$AAt?$AA_?$AAs?$AA?$CI?$AA?5?$AAl?$AAi?$AAn?$AAe?$AA_?$AAn?$AAu?$AAm?$AAb?$AAe?$AAr?$AA?0?$AA?5?$AAa?$AAs?$AAs@ 0000000180073070     libucrtd:assert.obj
 0002:00007180       ??_C@_1LA@JOKMAPHG@?$AAt?$AAr?$AAa?$AAi?$AAt?$AAs?$AA?3?$AA?3?$AAt?$AAc?$AAs?$AAc?$AAa?$AAt?$AA_?$AAs?$AA?$CI?$AAa?$AAs?$AAs?$AAe?$AAr?$AAt?$AA_?$AAb?$AAu?$AAf?$AAf?$AAe?$AAr?$AA?0?$AA?5@ 0000000180073180     libucrtd:assert.obj
 0002:00007230       ??_C@_1LA@IFFOJJCK@?$AAt?$AAr?$AAa?$AAi?$AAt?$AAs?$AA?3?$AA?3?$AAt?$AAc?$AAs?$AAn?$AAc?$AAa?$AAt?$AA_?$AAs?$AA?$CI?$AA?5?$AAa?$AAs?$AAs?$AAe?$AAr?$AAt?$AA_?$AAb?$AAu?$AAf?$AAf?$AAe?$AAr@ 0000000180073230     libucrtd:assert.obj
 0002:000072e0       ??_C@_1KG@MFCBNPOK@?$AAt?$AAr?$AAa?$AAi?$AAt?$AAs?$AA?3?$AA?3?$AAt?$AAc?$AAs?$AAc?$AAa?$AAt?$AA_?$AAs?$AA?$CI?$AAa?$AAs?$AAs?$AAe?$AAr?$AAt?$AA_?$AAb?$AAu?$AAf?$AAf?$AAe?$AAr?$AA?0?$AA?5@ 00000001800732e0     libucrtd:assert.obj
 0002:00007390       ??_C@_1IC@EDHOAOJ@?$AAt?$AAr?$AAa?$AAi?$AAt?$AAs?$AA?3?$AA?3?$AAt?$AAc?$AAs?$AAc?$AAa?$AAt?$AA_?$AAs?$AA?$CI?$AAa?$AAs?$AAs?$AAe?$AAr?$AAt?$AA_?$AAb?$AAu?$AAf?$AAf?$AAe?$AAr?$AA?0?$AA?5@ 0000000180073390     libucrtd:assert.obj
 0002:00007420       ??_C@_1KE@NALOKOIG@?$AAt?$AAr?$AAa?$AAi?$AAt?$AAs?$AA?3?$AA?3?$AAt?$AAc?$AAs?$AAc?$AAa?$AAt?$AA_?$AAs?$AA?$CI?$AAa?$AAs?$AAs?$AAe?$AAr?$AAt?$AA_?$AAb?$AAu?$AAf?$AAf?$AAe?$AAr?$AA?0?$AA?5@ 0000000180073420     libucrtd:assert.obj
 0002:000074d0       ??_C@_1KE@GGOFBC@?$AAt?$AAr?$AAa?$AAi?$AAt?$AAs?$AA?3?$AA?3?$AAt?$AAc?$AAs?$AAc?$AAa?$AAt?$AA_?$AAs?$AA?$CI?$AAa?$AAs?$AAs?$AAe?$AAr?$AAt?$AA_?$AAb?$AAu?$AAf?$AAf?$AAe?$AAr?$AA?0?$AA?5@ 00000001800734d0     libucrtd:assert.obj
 0002:00007578       ??_C@_1CK@LLOEFJJG@?$AAf?$AAi?$AAl?$AAe?$AA_?$AAn?$AAa?$AAm?$AAe?$AA?5?$AA?$CB?$AA?$DN?$AA?5?$AAn?$AAu?$AAl?$AAl?$AAp?$AAt?$AAr?$AA?$AA@ 0000000180073578     libucrtd:fopen.obj
 0002:000075b0       ??_C@_1FO@JKHHBFCN@?$AAm?$AAi?$AAn?$AAk?$AAe?$AAr?$AAn?$AAe?$AAl?$AA?2?$AAc?$AAr?$AAt?$AAs?$AA?2?$AAu?$AAc?$AAr?$AAt?$AA?2?$AAs?$AAr?$AAc?$AA?2?$AAa?$AAp?$AAp?$AAc?$AAr?$AAt?$AA?2?$AAs@ 00000001800735b0     libucrtd:fopen.obj
 0002:00007610       ??_C@_1BM@HBDCPLIA@?$AAc?$AAo?$AAm?$AAm?$AAo?$AAn?$AA_?$AAf?$AAs?$AAo?$AAp?$AAe?$AAn?$AA?$AA@ 0000000180073610     libucrtd:fopen.obj
 0002:00007630       ??_C@_1CA@HJKPLBCC@?$AAm?$AAo?$AAd?$AAe?$AA?5?$AA?$CB?$AA?$DN?$AA?5?$AAn?$AAu?$AAl?$AAl?$AAp?$AAt?$AAr?$AA?$AA@ 0000000180073630     libucrtd:fopen.obj
 0002:00007650       ??_C@_1BG@HEFEIBLN@?$AA?$CK?$AAm?$AAo?$AAd?$AAe?$AA?5?$AA?$CB?$AA?$DN?$AA?5?$AA0?$AA?$AA@ 0000000180073650     libucrtd:fopen.obj
 0002:00007668       ??_C@_1CE@JMFACANE@?$AAr?$AAe?$AAs?$AAu?$AAl?$AAt?$AA?5?$AA?$CB?$AA?$DN?$AA?5?$AAn?$AAu?$AAl?$AAl?$AAp?$AAt?$AAr?$AA?$AA@ 0000000180073668     libucrtd:fopen.obj
 0002:00007690       ??_C@_1BO@JGGJAKB@?$AAc?$AAo?$AAm?$AAm?$AAo?$AAn?$AA_?$AAf?$AAo?$AAp?$AAe?$AAn?$AA_?$AAs?$AA?$AA@ 0000000180073690     libucrtd:fopen.obj
 0002:000076b0       ??_C@_1BO@MHPFFFJJ@?$AAs?$AAt?$AAr?$AAe?$AAa?$AAm?$AA?4?$AAv?$AAa?$AAl?$AAi?$AAd?$AA?$CI?$AA?$CJ?$AA?$AA@ 00000001800736b0     libucrtd:fclose.obj
 0002:000076d0       ??_C@_1GA@DKNOMDCL@?$AAm?$AAi?$AAn?$AAk?$AAe?$AAr?$AAn?$AAe?$AAl?$AA?2?$AAc?$AAr?$AAt?$AAs?$AA?2?$AAu?$AAc?$AAr?$AAt?$AA?2?$AAs?$AAr?$AAc?$AA?2?$AAa?$AAp?$AAp?$AAc?$AAr?$AAt?$AA?2?$AAs@ 00000001800736d0     libucrtd:fclose.obj
 0002:00007730       ??_C@_1O@EGMJNCOI@?$AAf?$AAc?$AAl?$AAo?$AAs?$AAe?$AA?$AA@ 0000000180073730     libucrtd:fclose.obj
 0002:00007740       ??_C@_1BO@JINCABEC@?$AA_?$AAf?$AAc?$AAl?$AAo?$AAs?$AAe?$AA_?$AAn?$AAo?$AAl?$AAo?$AAc?$AAk?$AA?$AA@ 0000000180073740     libucrtd:fclose.obj
 0002:00007760       ??_C@_1DC@OGOLMDEL@?$AAp?$AAu?$AAb?$AAl?$AAi?$AAc?$AA_?$AAs?$AAt?$AAr?$AAe?$AAa?$AAm?$AA?5?$AA?$CB?$AA?$DN?$AA?5?$AAn?$AAu?$AAl?$AAl?$AAp?$AAt?$AAr?$AA?$AA@ 0000000180073760     libucrtd:feoferr.obj
 0002:000077a0       ??_C@_1GC@CMLBJHAF@?$AAm?$AAi?$AAn?$AAk?$AAe?$AAr?$AAn?$AAe?$AAl?$AA?2?$AAc?$AAr?$AAt?$AAs?$AA?2?$AAu?$AAc?$AAr?$AAt?$AA?2?$AAs?$AAr?$AAc?$AA?2?$AAa?$AAp?$AAp?$AAc?$AAr?$AAt?$AA?2?$AAs@ 00000001800737a0     libucrtd:feoferr.obj
 0002:00007808       ??_C@_19LPGIFIDB@?$AAf?$AAe?$AAo?$AAf?$AA?$AA@ 0000000180073808     libucrtd:feoferr.obj
 0002:00007818       ??_C@_1CE@JLIJLEKO@?$AAs?$AAt?$AAr?$AAe?$AAa?$AAm?$AA?5?$AA?$CB?$AA?$DN?$AA?5?$AAn?$AAu?$AAl?$AAl?$AAp?$AAt?$AAr?$AA?$AA@ 0000000180073818     libucrtd:fread.obj
 0002:00007840       ??_C@_1FO@CIJKACCM@?$AAm?$AAi?$AAn?$AAk?$AAe?$AAr?$AAn?$AAe?$AAl?$AA?2?$AAc?$AAr?$AAt?$AAs?$AA?2?$AAu?$AAc?$AAr?$AAt?$AA?2?$AAs?$AAr?$AAc?$AA?2?$AAa?$AAp?$AAp?$AAc?$AAr?$AAt?$AA?2?$AAs@ 0000000180073840     libucrtd:fread.obj
 0002:000078a0       ??_C@_1BA@CMLCEIGG@?$AAf?$AAr?$AAe?$AAa?$AAd?$AA_?$AAs?$AA?$AA@ 00000001800738a0     libucrtd:fread.obj
 0002:000078b0       ??_C@_1CE@MCCHPLBM@?$AAb?$AAu?$AAf?$AAf?$AAe?$AAr?$AA?5?$AA?$CB?$AA?$DN?$AA?5?$AAn?$AAu?$AAl?$AAl?$AAp?$AAt?$AAr?$AA?$AA@ 00000001800738b0     libucrtd:fread.obj
 0002:000078d8       ??_C@_1CA@IDPOGFL@?$AA_?$AAf?$AAr?$AAe?$AAa?$AAd?$AA_?$AAn?$AAo?$AAl?$AAo?$AAc?$AAk?$AA_?$AAs?$AA?$AA@ 00000001800738d8     libucrtd:fread.obj
 0002:00007900       ??_C@_1FG@KLKDPCLL@?$AAe?$AAl?$AAe?$AAm?$AAe?$AAn?$AAt?$AA_?$AAc?$AAo?$AAu?$AAn?$AAt?$AA?5?$AA?$DM?$AA?$DN?$AA?5?$AA?$CI?$AAS?$AAI?$AAZ?$AAE?$AA_?$AAM?$AAA?$AAX?$AA?5?$AA?1?$AA?5?$AAe?$AAl?$AAe@ 0000000180073900     libucrtd:fread.obj
 0002:00007960       ??_C@_1LG@DCNDJCHK@?$AA?$CI?$AA?$CC?$AAI?$AAn?$AAc?$AAo?$AAn?$AAs?$AAi?$AAs?$AAt?$AAe?$AAn?$AAt?$AA?5?$AAS?$AAt?$AAr?$AAe?$AAa?$AAm?$AA?5?$AAC?$AAo?$AAu?$AAn?$AAt?$AA?4?$AA?5?$AAF?$AAl?$AAu@ 0000000180073960     libucrtd:fread.obj
 0002:00007a18       ??_C@_1DA@DKEFLDMG@?$AA?$CI?$AA?$CC?$AAb?$AAu?$AAf?$AAf?$AAe?$AAr?$AA?5?$AAt?$AAo?$AAo?$AA?5?$AAs?$AAm?$AAa?$AAl?$AAl?$AA?$CC?$AA?0?$AA?5?$AA0?$AA?$CJ?$AA?$AA@ 0000000180073a18     libucrtd:fread.obj
 0002:00007a50       ??_C@_1FO@KMPAKEKH@?$AAm?$AAi?$AAn?$AAk?$AAe?$AAr?$AAn?$AAe?$AAl?$AA?2?$AAc?$AAr?$AAt?$AAs?$AA?2?$AAu?$AAc?$AAr?$AAt?$AA?2?$AAs?$AAr?$AAc?$AA?2?$AAa?$AAp?$AAp?$AAc?$AAr?$AAt?$AA?2?$AAs@ 0000000180073a50     libucrtd:fseek.obj
 0002:00007ab0       ??_C@_1BK@HEPGDNON@?$AAc?$AAo?$AAm?$AAm?$AAo?$AAn?$AA_?$AAf?$AAs?$AAe?$AAe?$AAk?$AA?$AA@ 0000000180073ab0     libucrtd:fseek.obj
 0002:00007ad0       ??_C@_1HO@BJGCGJL@?$AAw?$AAh?$AAe?$AAn?$AAc?$AAe?$AA?5?$AA?$DN?$AA?$DN?$AA?5?$AAS?$AAE?$AAE?$AAK?$AA_?$AAS?$AAE?$AAT?$AA?5?$AA?$HM?$AA?$HM?$AA?5?$AAw?$AAh?$AAe?$AAn?$AAc?$AAe?$AA?5?$AA?$DN?$AA?$DN?$AA?5@ 0000000180073ad0     libucrtd:fseek.obj
 0002:00007b50       ??_C@_1CO@LBNDLIPC@?$AAs?$AAt?$AAr?$AAe?$AAa?$AAm?$AA?4?$AAp?$AAu?$AAb?$AAl?$AAi?$AAc?$AA_?$AAs?$AAt?$AAr?$AAe?$AAa?$AAm?$AA?$CI?$AA?$CJ?$AA?$AA@ 0000000180073b50     libucrtd:ftell.obj
 0002:00007b80       ??_C@_1FO@JHBALIAM@?$AAm?$AAi?$AAn?$AAk?$AAe?$AAr?$AAn?$AAe?$AAl?$AA?2?$AAc?$AAr?$AAt?$AAs?$AA?2?$AAu?$AAc?$AAr?$AAt?$AA?2?$AAs?$AAr?$AAc?$AA?2?$AAa?$AAp?$AAp?$AAc?$AAr?$AAt?$AA?2?$AAs@ 0000000180073b80     libucrtd:ftell.obj
 0002:00007be0       ??_C@_1CI@MOKEPKDC@?$AAc?$AAo?$AAm?$AAm?$AAo?$AAn?$AA_?$AAf?$AAt?$AAe?$AAl?$AAl?$AA_?$AAn?$AAo?$AAl?$AAo?$AAc?$AAk?$AA?$AA@ 0000000180073be0     libucrtd:ftell.obj
 0002:00007c08       ??_C@_1BK@CMPCEPOF@?$AAc?$AAo?$AAm?$AAm?$AAo?$AAn?$AA_?$AAf?$AAt?$AAe?$AAl?$AAl?$AA?$AA@ 0000000180073c08     libucrtd:ftell.obj
 0002:00007c28       __real@0000000000000000    0000000180073c28     libucrtd:ldexp.obj
 0002:00007c30       ??_C@_1GE@DPGDJKLM@?$AAm?$AAi?$AAn?$AAk?$AAe?$AAr?$AAn?$AAe?$AAl?$AA?2?$AAc?$AAr?$AAt?$AAs?$AA?2?$AAu?$AAc?$AAr?$AAt?$AA?2?$AAi?$AAn?$AAc?$AA?2?$AAc?$AAo?$AAr?$AAe?$AAc?$AAr?$AAt?$AA_@ 0000000180073c30     libucrtd:strtox.obj
 0002:00007ca0       ??_C@_1EO@MLJCKPIB@?$AAb?$AAa?$AAs?$AAe?$AA?5?$AA?$DN?$AA?$DN?$AA?5?$AA0?$AA?5?$AA?$HM?$AA?$HM?$AA?5?$AA?$CI?$AA2?$AA?5?$AA?$DM?$AA?$DN?$AA?5?$AAb?$AAa?$AAs?$AAe?$AA?5?$AA?$CG?$AA?$CG?$AA?5?$AAb?$AAa?$AAs?$AAe?$AA?5@ 0000000180073ca0     libucrtd:strtox.obj
 0002:00007cf0       ??_C@_1DI@BANODKFL@?$AA_?$AA_?$AAc?$AAr?$AAt?$AA_?$AAs?$AAt?$AAr?$AAt?$AAo?$AAx?$AA?3?$AA?3?$AAp?$AAa?$AAr?$AAs?$AAe?$AA_?$AAi?$AAn?$AAt?$AAe?$AAg?$AAe?$AAr?$AA?$AA@ 0000000180073cf0     libucrtd:strtox.obj
 0002:00007d28       ??_C@_1BM@PNEBBBDO@?$AA_?$AAp?$AA?5?$AA?$CB?$AA?$DN?$AA?5?$AAn?$AAu?$AAl?$AAl?$AAp?$AAt?$AAr?$AA?$AA@ 0000000180073d28     libucrtd:strtox.obj
 0002:00007d50       ??_C@_1HA@MKKIHBHP@?$AA_?$AA_?$AAc?$AAr?$AAt?$AA_?$AAs?$AAt?$AAr?$AAt?$AAo?$AAx?$AA?3?$AA?3?$AAc?$AA_?$AAs?$AAt?$AAr?$AAi?$AAn?$AAg?$AA_?$AAc?$AAh?$AAa?$AAr?$AAa?$AAc?$AAt?$AAe?$AAr@ 0000000180073d50     libucrtd:strtox.obj
 0002:00007dc0       ??_C@_1CM@GJENOOEJ@?$AAc?$AA?5?$AA?$DN?$AA?$DN?$AA?5?$AA?8?$AA?2?$AA0?$AA?8?$AA?5?$AA?$HM?$AA?$HM?$AA?5?$AA?$CK?$AA_?$AAp?$AA?5?$AA?$DN?$AA?$DN?$AA?5?$AAc?$AA?$AA@ 0000000180073dc0     libucrtd:strtox.obj
 0002:00007df0       ??_C@_1GK@MNHIDABG@?$AA_?$AA_?$AAc?$AAr?$AAt?$AA_?$AAs?$AAt?$AAr?$AAt?$AAo?$AAx?$AA?3?$AA?3?$AAc?$AA_?$AAs?$AAt?$AAr?$AAi?$AAn?$AAg?$AA_?$AAc?$AAh?$AAa?$AAr?$AAa?$AAc?$AAt?$AAe?$AAr@ 0000000180073df0     libucrtd:strtox.obj
 0002:00007e60       ??_C@_1HG@FCDBLOEG@?$AA_?$AA_?$AAc?$AAr?$AAt?$AA_?$AAs?$AAt?$AAr?$AAt?$AAo?$AAx?$AA?3?$AA?3?$AAc?$AA_?$AAs?$AAt?$AAr?$AAi?$AAn?$AAg?$AA_?$AAc?$AAh?$AAa?$AAr?$AAa?$AAc?$AAt?$AAe?$AAr@ 0000000180073e60     libucrtd:strtox.obj
 0002:00007ee0       ??_C@_1HA@CONLANFI@?$AA_?$AA_?$AAc?$AAr?$AAt?$AA_?$AAs?$AAt?$AAr?$AAt?$AAo?$AAx?$AA?3?$AA?3?$AAc?$AA_?$AAs?$AAt?$AAr?$AAi?$AAn?$AAg?$AA_?$AAc?$AAh?$AAa?$AAr?$AAa?$AAc?$AAt?$AAe?$AAr@ 0000000180073ee0     libucrtd:strtox.obj
 0002:00007f50       __real@bff0000000000000    0000000180073f50     libucrtd:floor.obj
 0002:00009310       ??_C@_05KGFAIMPG@sqrtf?$AA@ 0000000180075310     libucrtd:sqrtf.obj
 0002:00009320       __acrt_exception_action_table 0000000180075320     libucrtd:exception_filter.obj
 0002:000093e0       __acrt_signal_action_table_count 00000001800753e0     libucrtd:exception_filter.obj
 0002:000093e8       __acrt_signal_action_first_fpe_index 00000001800753e8     libucrtd:exception_filter.obj
 0002:000093f0       __acrt_signal_action_fpe_count 00000001800753f0     libucrtd:exception_filter.obj
 0002:000093f8       ??_C@_1BI@BGOHAHKC@?$AAm?$AAs?$AAc?$AAo?$AAr?$AAe?$AAe?$AA?4?$AAd?$AAl?$AAl?$AA?$AA@ 00000001800753f8     libucrtd:exit.obj
 0002:00009410       ??_C@_0P@MIGLKIOC@CorExitProcess?$AA@ 0000000180075410     libucrtd:exit.obj
 0002:00009420       ??_C@_0EG@LEHKHOEH@minkernel?2crts?2ucrt?2src?2desktopc@ 0000000180075420     libucrtd:environment_initialization.obj
 0002:00009470       ??_C@_1IM@IMOFFPLG@?$AAm?$AAi?$AAn?$AAk?$AAe?$AAr?$AAn?$AAe?$AAl?$AA?2?$AAc?$AAr?$AAt?$AAs?$AA?2?$AAu?$AAc?$AAr?$AAt?$AA?2?$AAs?$AAr?$AAc?$AA?2?$AAd?$AAe?$AAs?$AAk?$AAt?$AAo?$AAp?$AAc@ 0000000180075470     libucrtd:environment_initialization.obj
 0002:00009500       ??_C@_1CG@MNNNBNAK@?$AAc?$AAr?$AAe?$AAa?$AAt?$AAe?$AA_?$AAe?$AAn?$AAv?$AAi?$AAr?$AAo?$AAn?$AAm?$AAe?$AAn?$AAt?$AA?$AA@ 0000000180075500     libucrtd:environment_initialization.obj
 0002:00009530       ??_C@_1HI@OOPIFFGA@?$AAt?$AAr?$AAa?$AAi?$AAt?$AAs?$AA?3?$AA?3?$AAt?$AAc?$AAs?$AAc?$AAp?$AAy?$AA_?$AAs?$AA?$CI?$AAv?$AAa?$AAr?$AAi?$AAa?$AAb?$AAl?$AAe?$AA?4?$AAg?$AAe?$AAt?$AA?$CI?$AA?$CJ?$AA?0@ 0000000180075530     libucrtd:environment_initialization.obj
 0002:000095a8       ??_C@_0DC@NBHMIIKL@minkernel?2crts?2ucrt?2src?2appcrt?2s@ 00000001800755a8     libucrtd:onexit.obj
 0002:000096f8       ??_C@_04HJMOFLDF@Free?$AA@ 00000001800756f8     libucrtd:debug_heap.obj
 0002:00009700       ??_C@_06EFAGIKOH@Normal?$AA@ 0000000180075700     libucrtd:debug_heap.obj
 0002:00009708       ??_C@_03OGPFLFLO@CRT?$AA@  0000000180075708     libucrtd:debug_heap.obj
 0002:0000970c       ??_C@_06KMEJCCGM@Ignore?$AA@ 000000018007570c     libucrtd:debug_heap.obj
 0002:00009714       ??_C@_06PJIGMIJB@Client?$AA@ 0000000180075714     libucrtd:debug_heap.obj
 0002:00009720       ??_C@_1CE@LJFEPPMP@?$AA_?$AAC?$AAr?$AAt?$AAC?$AAh?$AAe?$AAc?$AAk?$AAM?$AAe?$AAm?$AAo?$AAr?$AAy?$AA?$CI?$AA?$CJ?$AA?$AA@ 0000000180075720     libucrtd:debug_heap.obj
 0002:00009750       ??_C@_1GG@OCLHPJPK@?$AAm?$AAi?$AAn?$AAk?$AAe?$AAr?$AAn?$AAe?$AAl?$AA?2?$AAc?$AAr?$AAt?$AAs?$AA?2?$AAu?$AAc?$AAr?$AAt?$AA?2?$AAs?$AAr?$AAc?$AA?2?$AAa?$AAp?$AAp?$AAc?$AAr?$AAt?$AA?2?$AAh@ 0000000180075750     libucrtd:debug_heap.obj
 0002:000097b8       ??_C@_0DF@BBEGIFEK@Client?5hook?5allocation?5failure?5a@ 00000001800757b8     libucrtd:debug_heap.obj
 0002:000097f0       ??_C@_0CB@CCLOLAHO@Client?5hook?5allocation?5failure?4?6@ 00000001800757f0     libucrtd:debug_heap.obj
 0002:00009814       ??_C@_02DKCKIIND@?$CFs?$AA@ 0000000180075814     libucrtd:debug_heap.obj
 0002:00009818       ??_C@_0DC@JEMAGEKG@Error?3?5memory?5allocation?3?5bad?5me@ 0000000180075818     libucrtd:debug_heap.obj
 0002:00009850       ??_C@_0DI@KKJPDPGM@Client?5hook?5re?9allocation?5failur@ 0000000180075850     libucrtd:debug_heap.obj
 0002:00009888       ??_C@_0CE@DOFMDOL@Client?5hook?5re?9allocation?5failur@ 0000000180075888     libucrtd:debug_heap.obj
 0002:000098b0       ??_C@_0FA@EFEIGJKG@Error?3?5memory?5allocation?3?5bad?5me@ 00000001800758b0     libucrtd:debug_heap.obj
 0002:00009900       ??_C@_0EM@LGFLMAGJ@The?5Block?5at?50x?$CFp?5was?5allocated?5@ 0000000180075900     libucrtd:debug_heap.obj
 0002:00009950       ??_C@_1DM@DEDLGNML@?$AA_?$AAC?$AAr?$AAt?$AAI?$AAs?$AAV?$AAa?$AAl?$AAi?$AAd?$AAH?$AAe?$AAa?$AAp?$AAP?$AAo?$AAi?$AAn?$AAt?$AAe?$AAr?$AA?$CI?$AAb?$AAl?$AAo?$AAc?$AAk?$AA?$CJ?$AA?$AA@ 0000000180075950     libucrtd:debug_heap.obj
 0002:00009990       ??_C@_1PC@MCGKJLN@?$AAo?$AAl?$AAd?$AA_?$AAh?$AAe?$AAa?$AAd?$AA?9?$AA?$DO?$AA_?$AAl?$AAi?$AAn?$AAe?$AA_?$AAn?$AAu?$AAm?$AAb?$AAe?$AAr?$AA?5?$AA?$DN?$AA?$DN?$AA?5?$AAl?$AAi?$AAn?$AAe?$AA_?$AAn@ 0000000180075990     libucrtd:debug_heap.obj
 0002:00009a88       ??_C@_0DA@HFBKENN@Error?3?5possible?5heap?5corruption?5@ 0000000180075a88     libucrtd:debug_heap.obj
 0002:00009ac0       ??_C@_1JM@MCMEPJEP@?$AAr?$AAe?$AAa?$AAl?$AAl?$AAo?$AAc?$AAa?$AAt?$AAi?$AAo?$AAn?$AA_?$AAi?$AAs?$AA_?$AAa?$AAl?$AAl?$AAo?$AAw?$AAe?$AAd?$AA?5?$AA?$HM?$AA?$HM?$AA?5?$AA?$CI?$AA?$CB?$AAr?$AAe?$AAa@ 0000000180075ac0     libucrtd:debug_heap.obj
 0002:00009b60       ??_C@_1DM@LNOPKAIJ@?$AA_?$AA_?$AAa?$AAc?$AAr?$AAt?$AA_?$AAl?$AAa?$AAs?$AAt?$AA_?$AAb?$AAl?$AAo?$AAc?$AAk?$AA?5?$AA?$DN?$AA?$DN?$AA?5?$AAo?$AAl?$AAd?$AA_?$AAh?$AAe?$AAa?$AAd?$AA?$AA@ 0000000180075b60     libucrtd:debug_heap.obj
 0002:00009ba0       ??_C@_1DO@HABCJBHO@?$AA_?$AA_?$AAa?$AAc?$AAr?$AAt?$AA_?$AAf?$AAi?$AAr?$AAs?$AAt?$AA_?$AAb?$AAl?$AAo?$AAc?$AAk?$AA?5?$AA?$DN?$AA?$DN?$AA?5?$AAo?$AAl?$AAd?$AA_?$AAh?$AAe?$AAa?$AAd?$AA?$AA@ 0000000180075ba0     libucrtd:debug_heap.obj
 0002:00009be0       ??_C@_1CC@CKEAHJPH@?$AAb?$AAl?$AAo?$AAc?$AAk?$AA?5?$AA?$CB?$AA?$DN?$AA?5?$AAn?$AAu?$AAl?$AAl?$AAp?$AAt?$AAr?$AA?$AA@ 0000000180075be0     libucrtd:debug_heap.obj
 0002:00009c10       ??_C@_0EJ@HEIBCIMJ@The?5Block?5at?50x?$CFp?5was?5allocated?5@ 0000000180075c10     libucrtd:debug_heap.obj
 0002:00009c60       ??_C@_0BL@KEIPLFAC@Client?5hook?5free?5failure?4?6?$AA@ 0000000180075c60     libucrtd:debug_heap.obj
 0002:00009c80       ??_C@_1FA@KDNEBILF@?$AAi?$AAs?$AA_?$AAb?$AAl?$AAo?$AAc?$AAk?$AA_?$AAt?$AAy?$AAp?$AAe?$AA_?$AAv?$AAa?$AAl?$AAi?$AAd?$AA?$CI?$AAh?$AAe?$AAa?$AAd?$AAe?$AAr?$AA?9?$AA?$DO?$AA_?$AAb?$AAl?$AAo@ 0000000180075c80     libucrtd:debug_heap.obj
 0002:00009cd0       ??_C@_0KI@JGFOHMEB@HEAP?5CORRUPTION?5DETECTED?3?5before@ 0000000180075cd0     libucrtd:debug_heap.obj
 0002:00009d80       ??_C@_0IK@PJCGLBOB@HEAP?5CORRUPTION?5DETECTED?3?5before@ 0000000180075d80     libucrtd:debug_heap.obj
 0002:00009e10       ??_C@_0KE@MBMNHHHN@HEAP?5CORRUPTION?5DETECTED?3?5after?5@ 0000000180075e10     libucrtd:debug_heap.obj
 0002:00009ec0       ??_C@_0IG@LEMBDCJK@HEAP?5CORRUPTION?5DETECTED?3?5after?5@ 0000000180075ec0     libucrtd:debug_heap.obj
 0002:00009f50       ??_C@_1OK@GFEOEJAF@?$AAh?$AAe?$AAa?$AAd?$AAe?$AAr?$AA?9?$AA?$DO?$AA_?$AAl?$AAi?$AAn?$AAe?$AA_?$AAn?$AAu?$AAm?$AAb?$AAe?$AAr?$AA?5?$AA?$DN?$AA?$DN?$AA?5?$AAl?$AAi?$AAn?$AAe?$AA_?$AAn?$AAu?$AAm@ 0000000180075f50     libucrtd:debug_heap.obj
 0002:0000a040       ??_C@_1ME@GFALMLNA@?$AAh?$AAe?$AAa?$AAd?$AAe?$AAr?$AA?9?$AA?$DO?$AA_?$AAb?$AAl?$AAo?$AAc?$AAk?$AA_?$AAu?$AAs?$AAe?$AA?5?$AA?$DN?$AA?$DN?$AA?5?$AAb?$AAl?$AAo?$AAc?$AAk?$AA_?$AAu?$AAs?$AAe?$AA?5@ 0000000180076040     libucrtd:debug_heap.obj
 0002:0000a108       ??_C@_1DI@ILNOPEPI@?$AA_?$AA_?$AAa?$AAc?$AAr?$AAt?$AA_?$AAl?$AAa?$AAs?$AAt?$AA_?$AAb?$AAl?$AAo?$AAc?$AAk?$AA?5?$AA?$DN?$AA?$DN?$AA?5?$AAh?$AAe?$AAa?$AAd?$AAe?$AAr?$AA?$AA@ 0000000180076108     libucrtd:debug_heap.obj
 0002:0000a140       ??_C@_1DK@KEHFGDIJ@?$AA_?$AA_?$AAa?$AAc?$AAr?$AAt?$AA_?$AAf?$AAi?$AAr?$AAs?$AAt?$AA_?$AAb?$AAl?$AAo?$AAc?$AAk?$AA?5?$AA?$DN?$AA?$DN?$AA?5?$AAh?$AAe?$AAa?$AAd?$AAe?$AAr?$AA?$AA@ 0000000180076140     libucrtd:debug_heap.obj
 0002:0000a180       ??_C@_1BG@MBKOGDLD@?$AA_?$AAm?$AAs?$AAi?$AAz?$AAe?$AA_?$AAd?$AAb?$AAg?$AA?$AA@ 0000000180076180     libucrtd:debug_heap.obj
 0002:0000a198       ??_C@_07OHKEFPKJ@DAMAGED?$AA@ 0000000180076198     libucrtd:debug_heap.obj
 0002:0000a1a0       ??_C@_0KA@IHNJJKPL@HEAP?5CORRUPTION?5DETECTED?3?5on?5top@ 00000001800761a0     libucrtd:debug_heap.obj
 0002:0000a240       ??_C@_0IC@BBJIOOJH@HEAP?5CORRUPTION?5DETECTED?3?5on?5top@ 0000000180076240     libucrtd:debug_heap.obj
 0002:0000a2d0       ??_C@_0EG@DGJMPDBH@?$CFhs?5located?5at?50x?$CFp?5is?5?$CFIu?5bytes@ 00000001800762d0     libucrtd:debug_heap.obj
 0002:0000a318       ??_C@_0CI@JMLBEDHJ@?$CFhs?5located?5at?50x?$CFp?5is?5?$CFIu?5bytes@ 0000000180076318     libucrtd:debug_heap.obj
 0002:0000a340       ??_C@_0EG@GPFHANHO@Cycle?5in?5block?5list?5detected?5whi@ 0000000180076340     libucrtd:debug_heap.obj
 0002:0000a388       ??_C@_0BJ@ELMAOCAJ@Heap?5validation?5failed?4?6?$AA@ 0000000180076388     libucrtd:debug_heap.obj
 0002:0000a3b0       ??_C@_1IE@BBIFDGEB@?$AAn?$AAe?$AAw?$AA_?$AAb?$AAi?$AAt?$AAs?$AA?5?$AA?$DN?$AA?$DN?$AA?5?$AA_?$AAC?$AAR?$AAT?$AAD?$AAB?$AAG?$AA_?$AAR?$AAE?$AAP?$AAO?$AAR?$AAT?$AA_?$AAF?$AAL?$AAA?$AAG?$AA?5@ 00000001800763b0     libucrtd:debug_heap.obj
 0002:0000a438       ??_C@_1BO@GJFDNMNF@?$AA_?$AAC?$AAr?$AAt?$AAS?$AAe?$AAt?$AAD?$AAb?$AAg?$AAF?$AAl?$AAa?$AAg?$AA?$AA@ 0000000180076438     libucrtd:debug_heap.obj
 0002:0000a458       ??_C@_1CC@BBKMONGA@?$AAs?$AAt?$AAa?$AAt?$AAe?$AA?5?$AA?$CB?$AA?$DN?$AA?5?$AAn?$AAu?$AAl?$AAl?$AAp?$AAt?$AAr?$AA?$AA@ 0000000180076458     libucrtd:debug_heap.obj
 0002:0000a480       ??_C@_1CE@NJJKELF@?$AA_?$AAC?$AAr?$AAt?$AAM?$AAe?$AAm?$AAC?$AAh?$AAe?$AAc?$AAk?$AAp?$AAo?$AAi?$AAn?$AAt?$AA?$AA@ 0000000180076480     libucrtd:debug_heap.obj
 0002:0000a4a8       ??_C@_0DP@LEFMFBOD@Bad?5memory?5block?5found?5at?50x?$CFp?4?6@ 00000001800764a8     libucrtd:debug_heap.obj
 0002:0000a4e8       ??_C@_0CB@EAAIGELO@Bad?5memory?5block?5found?5at?50x?$CFp?4?6@ 00000001800764e8     libucrtd:debug_heap.obj
 0002:0000a50c       ??_C@_05MKKEDADM@?$CF?42X?5?$AA@ 000000018007650c     libucrtd:debug_heap.obj
 0002:0000a518       ??_C@_1CC@DIJAHFFJ@?$AAp?$AAr?$AAi?$AAn?$AAt?$AA_?$AAb?$AAl?$AAo?$AAc?$AAk?$AA_?$AAd?$AAa?$AAt?$AAa?$AA?$AA@ 0000000180076518     libucrtd:debug_heap.obj
 0002:0000a540       ??_C@_1BI@KALLJECN@?$AA?$CI?$AA?$CK?$AA_?$AAe?$AAr?$AAr?$AAn?$AAo?$AA?$CI?$AA?$CJ?$AA?$CJ?$AA?$AA@ 0000000180076540     libucrtd:debug_heap.obj
 0002:0000a558       ??_C@_0BA@HJBKCELP@?5Data?3?5?$DM?$CFs?$DO?5?$CFs?6?$AA@ 0000000180076558     libucrtd:debug_heap.obj
 0002:0000a568       ??_C@_0BE@KCIPKCIA@Dumping?5objects?5?9?$DO?6?$AA@ 0000000180076568     libucrtd:debug_heap.obj
 0002:0000a580       ??_C@_0BE@OIEFNFL@?$CDFile?5Error?$CD?$CI?$CFd?$CJ?5?3?5?$AA@ 0000000180076580     libucrtd:debug_heap.obj
 0002:0000a598       ??_C@_0L@JMEFFCCJ@?$CFhs?$CI?$CFd?$CJ?5?3?5?$AA@ 0000000180076598     libucrtd:debug_heap.obj
 0002:0000a5a4       ??_C@_06PKLGBFGM@?$HL?$CFld?$HN?5?$AA@ 00000001800765a4     libucrtd:debug_heap.obj
 0002:0000a5b0       ??_C@_0DD@GHNAAKBB@client?5block?5at?50x?$CFp?0?5subtype?5?$CFx@ 00000001800765b0     libucrtd:debug_heap.obj
 0002:0000a5e8       ??_C@_0CH@FAGDDGPN@normal?5block?5at?50x?$CFp?0?5?$CFIu?5bytes?5@ 00000001800765e8     libucrtd:debug_heap.obj
 0002:0000a610       ??_C@_0DA@MDLBNIBM@crt?5block?5at?50x?$CFp?0?5subtype?5?$CFx?0?5?$CF@ 0000000180076610     libucrtd:debug_heap.obj
 0002:0000a640       ??_C@_0BH@GFGKJDCO@Object?5dump?5complete?4?6?$AA@ 0000000180076640     libucrtd:debug_heap.obj
 0002:0000a658       ??_C@_0BI@JBFPOEJA@Detected?5memory?5leaks?$CB?6?$AA@ 0000000180076658     libucrtd:debug_heap.obj
 0002:0000a670       ??_C@_1GI@BBAEIKL@?$AA?$CI?$AA?$CI?$AAd?$AAe?$AAs?$AAt?$AAi?$AAn?$AAa?$AAt?$AAi?$AAo?$AAn?$AA?$CJ?$AA?$CJ?$AA?5?$AA?$CB?$AA?$DN?$AA?5?$AAN?$AAU?$AAL?$AAL?$AA?5?$AA?$CG?$AA?$CG?$AA?5?$AA?$CI?$AA?$CI?$AAs?$AAi?$AAz@ 0000000180076670     libucrtd:strcpy_s.obj
 0002:0000a6e0       ??_C@_1HI@PBJPCEBC@?$AAm?$AAi?$AAn?$AAk?$AAe?$AAr?$AAn?$AAe?$AAl?$AA?2?$AAc?$AAr?$AAt?$AAs?$AA?2?$AAu?$AAc?$AAr?$AAt?$AA?2?$AAi?$AAn?$AAc?$AA?2?$AAc?$AAo?$AAr?$AAe?$AAc?$AAr?$AAt?$AA_@ 00000001800766e0     libucrtd:strcpy_s.obj
 0002:0000a758       ??_C@_1CA@FHIAGDFH@?$AAc?$AAo?$AAm?$AAm?$AAo?$AAn?$AA_?$AAt?$AAc?$AAs?$AAc?$AAp?$AAy?$AA_?$AAs?$AA?$AA@ 0000000180076758     libucrtd:strcpy_s.obj
 0002:0000a778       ??_C@_1CK@EIOKGPJL@?$AA?$CI?$AA?$CI?$AA?$CI?$AAs?$AAo?$AAu?$AAr?$AAc?$AAe?$AA?$CJ?$AA?$CJ?$AA?$CJ?$AA?5?$AA?$CB?$AA?$DN?$AA?5?$AAN?$AAU?$AAL?$AAL?$AA?$AA@ 0000000180076778     libucrtd:strcpy_s.obj
 0002:0000a7a8       ??_C@_1CI@HCPHDDLE@?$AAB?$AAu?$AAf?$AAf?$AAe?$AAr?$AA?5?$AAi?$AAs?$AA?5?$AAt?$AAo?$AAo?$AA?5?$AAs?$AAm?$AAa?$AAl?$AAl?$AA?$AA@ 00000001800767a8     libucrtd:strcpy_s.obj
 0002:0000a7d0       ??_C@_1DM@MADKGDLO@?$AA?$CI?$AAL?$AA?$CC?$AAB?$AAu?$AAf?$AAf?$AAe?$AAr?$AA?5?$AAi?$AAs?$AA?5?$AAt?$AAo?$AAo?$AA?5?$AAs?$AAm?$AAa?$AAl?$AAl?$AA?$CC?$AA?5?$AA?$CG?$AA?$CG?$AA?5?$AA0?$AA?$CJ?$AA?$AA@ 00000001800767d0     libucrtd:strcpy_s.obj
 0002:0000a828       ??_C@_1BA@GLMCNLEM@?$AAW?$AAa?$AAr?$AAn?$AAi?$AAn?$AAg?$AA?$AA@ 0000000180076828     libucrtd:dbgrpt.obj
 0002:0000a838       ??_C@_1M@ILHOPKA@?$AAE?$AAr?$AAr?$AAo?$AAr?$AA?$AA@ 0000000180076838     libucrtd:dbgrpt.obj
 0002:0000a848       ??_C@_1CC@CGHMNGDG@?$AAA?$AAs?$AAs?$AAe?$AAr?$AAt?$AAi?$AAo?$AAn?$AA?5?$AAF?$AAa?$AAi?$AAl?$AAe?$AAd?$AA?$AA@ 0000000180076848     libucrtd:dbgrpt.obj
 0002:0000a880       ??_C@_1OG@PMPPFHAF@?$AA?6?$AA?6?$AAF?$AAo?$AAr?$AA?5?$AAi?$AAn?$AAf?$AAo?$AAr?$AAm?$AAa?$AAt?$AAi?$AAo?$AAn?$AA?5?$AAo?$AAn?$AA?5?$AAh?$AAo?$AAw?$AA?5?$AAy?$AAo?$AAu?$AAr?$AA?5?$AAp?$AAr@ 0000000180076880     libucrtd:dbgrpt.obj
 0002:0000a970       ??_C@_1MG@LJLILFFD@?$AAD?$AAe?$AAb?$AAu?$AAg?$AA?5?$AA?$CF?$AAl?$AAs?$AA?$CB?$AA?6?$AA?6?$AAP?$AAr?$AAo?$AAg?$AAr?$AAa?$AAm?$AA?3?$AA?5?$AA?$CF?$AAh?$AAs?$AA?$CF?$AAl?$AAs?$AA?$CF?$AAl?$AAs?$AA?$CF?$AAh@ 0000000180076970     libucrtd:dbgrpt.obj
 0002:0000aa40       ??_C@_1MG@OODCADGL@?$AAD?$AAe?$AAb?$AAu?$AAg?$AA?5?$AA?$CF?$AAl?$AAs?$AA?$CB?$AA?6?$AA?6?$AAP?$AAr?$AAo?$AAg?$AAr?$AAa?$AAm?$AA?3?$AA?5?$AA?$CF?$AAl?$AAs?$AA?$CF?$AAl?$AAs?$AA?$CF?$AAl?$AAs?$AA?$CF?$AAl@ 0000000180076a40     libucrtd:dbgrpt.obj
 0002:0000ab10       ??_C@_1FO@GMJDLAJD@?$AAm?$AAi?$AAn?$AAk?$AAe?$AAr?$AAn?$AAe?$AAl?$AA?2?$AAc?$AAr?$AAt?$AAs?$AA?2?$AAu?$AAc?$AAr?$AAt?$AA?2?$AAs?$AAr?$AAc?$AA?2?$AAa?$AAp?$AAp?$AAc?$AAr?$AAt?$AA?2?$AAm@ 0000000180076b10     libucrtd:dbgrpt.obj
 0002:0000ab70       ??_C@_1CM@EHMOGBJJ@?$AAc?$AAo?$AAm?$AAm?$AAo?$AAn?$AA_?$AAm?$AAe?$AAs?$AAs?$AAa?$AAg?$AAe?$AA_?$AAw?$AAi?$AAn?$AAd?$AAo?$AAw?$AA?$AA@ 0000000180076b70     libucrtd:dbgrpt.obj
 0002:0000aba0       ??_C@_1BA@GLLGCPCK@?$AA?6?$AAL?$AAi?$AAn?$AAe?$AA?3?$AA?5?$AA?$AA@ 0000000180076ba0     libucrtd:dbgrpt.obj
 0002:0000abb0       ??_C@_1BA@LNHECFIM@?$AA?6?$AAF?$AAi?$AAl?$AAe?$AA?3?$AA?5?$AA?$AA@ 0000000180076bb0     libucrtd:dbgrpt.obj
 0002:0000abc0       ??_C@_1BE@CGCJKGHI@?$AA?6?$AAM?$AAo?$AAd?$AAu?$AAl?$AAe?$AA?3?$AA?5?$AA?$AA@ 0000000180076bc0     libucrtd:dbgrpt.obj
 0002:0000abe0       ??_C@_1JM@IBOIJEOO@?$AAw?$AAc?$AAs?$AAc?$AAp?$AAy?$AA_?$AAs?$AA?$CI?$AAm?$AAe?$AAs?$AAs?$AAa?$AAg?$AAe?$AA_?$AAb?$AAu?$AAf?$AAf?$AAe?$AAr?$AA?0?$AA?5?$AA4?$AA0?$AA9?$AA6?$AA?0?$AA?5?$AAL@ 0000000180076be0     libucrtd:dbgrpt.obj
 0002:0000ac80       ??_C@_1FG@BBOLDHGF@?$AA_?$AAC?$AAr?$AAt?$AAD?$AAb?$AAg?$AAR?$AAe?$AAp?$AAo?$AAr?$AAt?$AA?3?$AA?5?$AAS?$AAt?$AAr?$AAi?$AAn?$AAg?$AA?5?$AAt?$AAo?$AAo?$AA?5?$AAl?$AAo?$AAn?$AAg?$AA?5?$AAo@ 0000000180076c80     libucrtd:dbgrpt.obj
 0002:0000ace0       ??_C@_1DA@LLLMNMKI@?$AAa?$AAb?$AAo?$AAr?$AAt?$AA?$CI?$AA?$CJ?$AA?5?$AAh?$AAa?$AAs?$AA?5?$AAb?$AAe?$AAe?$AAn?$AA?5?$AAc?$AAa?$AAl?$AAl?$AAe?$AAd?$AA?$AA@ 0000000180076ce0     libucrtd:abort.obj
 0002:0000ad10       standard_lookup_table      0000000180076d10     libucrtd:output.obj
 0002:0000ad70       format_validation_lookup_table 0000000180076d70     libucrtd:output.obj
 0002:0000add0       ??_C@_1GC@LCDLABEA@?$AAm?$AAi?$AAn?$AAk?$AAe?$AAr?$AAn?$AAe?$AAl?$AA?2?$AAc?$AAr?$AAt?$AAs?$AA?2?$AAu?$AAc?$AAr?$AAt?$AA?2?$AAi?$AAn?$AAc?$AA?2?$AAc?$AAo?$AAr?$AAe?$AAc?$AAr?$AAt?$AA_@ 0000000180076dd0     libucrtd:output.obj
 0002:0000ae40       ??_C@_1GA@MOBAPGIO@?$AAm?$AAi?$AAn?$AAk?$AAe?$AAr?$AAn?$AAe?$AAl?$AA?2?$AAc?$AAr?$AAt?$AAs?$AA?2?$AAu?$AAc?$AAr?$AAt?$AA?2?$AAs?$AAr?$AAc?$AA?2?$AAa?$AAp?$AAp?$AAc?$AAr?$AAt?$AA?2?$AAs@ 0000000180076e40     libucrtd:output.obj
 0002:0000aea0       ??_C@_1CA@GELIJBMC@?$AAc?$AAo?$AAm?$AAm?$AAo?$AAn?$AA_?$AAv?$AAf?$AAp?$AAr?$AAi?$AAn?$AAt?$AAf?$AA?$AA@ 0000000180076ea0     libucrtd:output.obj
 0002:0000aec0       ??_C@_1CE@EAKLPBKK@?$AAf?$AAo?$AAr?$AAm?$AAa?$AAt?$AA?5?$AA?$CB?$AA?$DN?$AA?5?$AAn?$AAu?$AAl?$AAl?$AAp?$AAt?$AAr?$AA?$AA@ 0000000180076ec0     libucrtd:output.obj
 0002:0000aee8       ??_C@_1CA@PIMGHCEK@?$AAc?$AAo?$AAm?$AAm?$AAo?$AAn?$AA_?$AAv?$AAs?$AAp?$AAr?$AAi?$AAn?$AAt?$AAf?$AA?$AA@ 0000000180076ee8     libucrtd:output.obj
 0002:0000af10       ??_C@_1EO@EGEEFEFM@?$AAb?$AAu?$AAf?$AAf?$AAe?$AAr?$AA_?$AAc?$AAo?$AAu?$AAn?$AAt?$AA?5?$AA?$DN?$AA?$DN?$AA?5?$AA0?$AA?5?$AA?$HM?$AA?$HM?$AA?5?$AAb?$AAu?$AAf?$AAf?$AAe?$AAr?$AA?5?$AA?$CB?$AA?$DN?$AA?5?$AAn@ 0000000180076f10     libucrtd:output.obj
 0002:0000af60       ??_C@_1CE@JEILLNB@?$AAc?$AAo?$AAm?$AAm?$AAo?$AAn?$AA_?$AAv?$AAs?$AAp?$AAr?$AAi?$AAn?$AAt?$AAf?$AA_?$AAs?$AA?$AA@ 0000000180076f60     libucrtd:output.obj
 0002:0000af90       ??_C@_1EM@OAFHAOLH@?$AAb?$AAu?$AAf?$AAf?$AAe?$AAr?$AA?5?$AA?$CB?$AA?$DN?$AA?5?$AAn?$AAu?$AAl?$AAl?$AAp?$AAt?$AAr?$AA?5?$AA?$CG?$AA?$CG?$AA?5?$AAb?$AAu?$AAf?$AAf?$AAe?$AAr?$AA_?$AAc?$AAo?$AAu?$AAn@ 0000000180076f90     libucrtd:output.obj
 0002:0000afe0       ??_C@_1DA@HPBFKMEB@?$AA?$CI?$AA?$CC?$AAB?$AAu?$AAf?$AAf?$AAe?$AAr?$AA?5?$AAt?$AAo?$AAo?$AA?5?$AAs?$AAm?$AAa?$AAl?$AAl?$AA?$CC?$AA?0?$AA?5?$AA0?$AA?$CJ?$AA?$AA@ 0000000180076fe0     libucrtd:output.obj
 0002:0000b010       ??_C@_1CG@LHFJHFBB@?$AAc?$AAo?$AAm?$AAm?$AAo?$AAn?$AA_?$AAv?$AAs?$AAn?$AAp?$AAr?$AAi?$AAn?$AAt?$AAf?$AA_?$AAs?$AA?$AA@ 0000000180077010     libucrtd:output.obj
 0002:0000b038       ??_C@_1CM@JOIJBMEM@?$AA_?$AAf?$AAo?$AAr?$AAm?$AAa?$AAt?$AA_?$AAi?$AAt?$AA?5?$AA?$CB?$AA?$DN?$AA?5?$AAn?$AAu?$AAl?$AAl?$AAp?$AAt?$AAr?$AA?$AA@ 0000000180077038     libucrtd:output.obj
 0002:0000b070       ??_C@_1HA@DMAAKIJP@?$AAm?$AAi?$AAn?$AAk?$AAe?$AAr?$AAn?$AAe?$AAl?$AA?2?$AAc?$AAr?$AAt?$AAs?$AA?2?$AAu?$AAc?$AAr?$AAt?$AA?2?$AAi?$AAn?$AAc?$AA?2?$AAc?$AAo?$AAr?$AAe?$AAc?$AAr?$AAt?$AA_@ 0000000180077070     libucrtd:output.obj
 0002:0000b0e0       ??_C@_1EE@DMAIGNBG@?$AA?$CI?$AA?$CC?$AAI?$AAn?$AAc?$AAo?$AAr?$AAr?$AAe?$AAc?$AAt?$AA?5?$AAf?$AAo?$AAr?$AAm?$AAa?$AAt?$AA?5?$AAs?$AAp?$AAe?$AAc?$AAi?$AAf?$AAi?$AAe?$AAr?$AA?$CC?$AA?0?$AA?5?$AA0@ 00000001800770e0     libucrtd:output.obj
 0002:0000b130       ??_C@_1BLI@EEAAPJD@?$AA_?$AA_?$AAc?$AAr?$AAt?$AA_?$AAs?$AAt?$AAd?$AAi?$AAo?$AA_?$AAo?$AAu?$AAt?$AAp?$AAu?$AAt?$AA?3?$AA?3?$AAo?$AAu?$AAt?$AAp?$AAu?$AAt?$AA_?$AAp?$AAr?$AAo?$AAc?$AAe@ 0000000180077130     libucrtd:output.obj
 0002:0000b2f0       ??_C@_1BLI@IKDKMDHI@?$AA_?$AA_?$AAc?$AAr?$AAt?$AA_?$AAs?$AAt?$AAd?$AAi?$AAo?$AA_?$AAo?$AAu?$AAt?$AAp?$AAu?$AAt?$AA?3?$AA?3?$AAo?$AAu?$AAt?$AAp?$AAu?$AAt?$AA_?$AAp?$AAr?$AAo?$AAc?$AAe@ 00000001800772f0     libucrtd:output.obj
 0002:0000b4a8       ??_C@_1CA@ONEGMNAN@?$AA_?$AAs?$AAt?$AAr?$AAe?$AAa?$AAm?$AA?4?$AAv?$AAa?$AAl?$AAi?$AAd?$AA?$CI?$AA?$CJ?$AA?$AA@ 00000001800774a8     libucrtd:output.obj
 0002:0000b4c8       ??_C@_1DG@CEJKFDMO@?$AAs?$AAt?$AAa?$AAt?$AAe?$AA_?$AAc?$AAa?$AAs?$AAe?$AA_?$AAn?$AAo?$AAr?$AAm?$AAa?$AAl?$AA_?$AAc?$AAo?$AAm?$AAm?$AAo?$AAn?$AA?$CI?$AA?$CJ?$AA?$AA@ 00000001800774c8     libucrtd:output.obj
 0002:0000b500       ??_C@_1FG@OBJBDPAC@?$AA?$CI?$AA?$CC?$AAN?$AA?5?$AAl?$AAe?$AAn?$AAg?$AAt?$AAh?$AA?5?$AAm?$AAo?$AAd?$AAi?$AAf?$AAi?$AAe?$AAr?$AA?5?$AAn?$AAo?$AAt?$AA?5?$AAs?$AAp?$AAe?$AAc?$AAi?$AAf?$AAi?$AAe@ 0000000180077500     libucrtd:output.obj
 0002:0000b560       ??_C@_1EC@GJPNJDCN@?$AA_?$AAl?$AAe?$AAn?$AAg?$AAt?$AAh?$AA?5?$AA?$DN?$AA?$DN?$AA?5?$AAl?$AAe?$AAn?$AAg?$AAt?$AAh?$AA_?$AAm?$AAo?$AAd?$AAi?$AAf?$AAi?$AAe?$AAr?$AA?3?$AA?3?$AAn?$AAo?$AAn?$AAe@ 0000000180077560     libucrtd:output.obj
 0002:0000b5b0       ??_C@_1HK@MPBCDOK@?$AA_?$AA_?$AAc?$AAr?$AAt?$AA_?$AAs?$AAt?$AAd?$AAi?$AAo?$AA_?$AAo?$AAu?$AAt?$AAp?$AAu?$AAt?$AA?3?$AA?3?$AAs?$AAt?$AAr?$AAe?$AAa?$AAm?$AA_?$AAo?$AAu?$AAt?$AAp?$AAu@ 00000001800775b0     libucrtd:output.obj
 0002:0000b630       ??_C@_1BMM@JHGFKAND@?$AA_?$AA_?$AAc?$AAr?$AAt?$AA_?$AAs?$AAt?$AAd?$AAi?$AAo?$AA_?$AAo?$AAu?$AAt?$AAp?$AAu?$AAt?$AA?3?$AA?3?$AAo?$AAu?$AAt?$AAp?$AAu?$AAt?$AA_?$AAp?$AAr?$AAo?$AAc?$AAe@ 0000000180077630     libucrtd:output.obj
 0002:0000b800       ??_C@_1BMI@DNMDMAAN@?$AA_?$AA_?$AAc?$AAr?$AAt?$AA_?$AAs?$AAt?$AAd?$AAi?$AAo?$AA_?$AAo?$AAu?$AAt?$AAp?$AAu?$AAt?$AA?3?$AA?3?$AAo?$AAu?$AAt?$AAp?$AAu?$AAt?$AA_?$AAp?$AAr?$AAo?$AAc?$AAe@ 0000000180077800     libucrtd:output.obj
 0002:0000b9d0       ??_C@_1GC@BNMHNGKM@?$AA_?$AAs?$AAt?$AAa?$AAt?$AAe?$AA?5?$AA?$DN?$AA?$DN?$AA?5?$AAs?$AAt?$AAa?$AAt?$AAe?$AA?3?$AA?3?$AAn?$AAo?$AAr?$AAm?$AAa?$AAl?$AA?5?$AA?$HM?$AA?$HM?$AA?5?$AA_?$AAs?$AAt?$AAa?$AAt@ 00000001800779d0     libucrtd:output.obj
 0002:0000ba38       ??_C@_1CI@DDKMNCPP@?$AA_?$AAc?$AAo?$AAn?$AAt?$AAe?$AAx?$AAt?$AA?5?$AA?$CB?$AA?$DN?$AA?5?$AAn?$AAu?$AAl?$AAl?$AAp?$AAt?$AAr?$AA?$AA@ 0000000180077a38     libucrtd:output.obj
 0002:0000ba60       ??_C@_1HE@IACOMEJF@?$AA_?$AA_?$AAc?$AAr?$AAt?$AA_?$AAs?$AAt?$AAd?$AAi?$AAo?$AA_?$AAo?$AAu?$AAt?$AAp?$AAu?$AAt?$AA?3?$AA?3?$AAs?$AAt?$AAr?$AAi?$AAn?$AAg?$AA_?$AAo?$AAu?$AAt?$AAp?$AAu@ 0000000180077a60     libucrtd:output.obj
 0002:0000bae0       ??_C@_1HK@IIPGOADH@?$AA_?$AA_?$AAc?$AAr?$AAt?$AA_?$AAs?$AAt?$AAd?$AAi?$AAo?$AA_?$AAo?$AAu?$AAt?$AAp?$AAu?$AAt?$AA?3?$AA?3?$AAs?$AAt?$AAr?$AAi?$AAn?$AAg?$AA_?$AAo?$AAu?$AAt?$AAp?$AAu@ 0000000180077ae0     libucrtd:output.obj
 0002:0000bb60       ??_C@_1BMM@PGHHMNDM@?$AA_?$AA_?$AAc?$AAr?$AAt?$AA_?$AAs?$AAt?$AAd?$AAi?$AAo?$AA_?$AAo?$AAu?$AAt?$AAp?$AAu?$AAt?$AA?3?$AA?3?$AAo?$AAu?$AAt?$AAp?$AAu?$AAt?$AA_?$AAp?$AAr?$AAo?$AAc?$AAe@ 0000000180077b60     libucrtd:output.obj
 0002:0000bd30       ??_C@_1BMI@KBPJOJJI@?$AA_?$AA_?$AAc?$AAr?$AAt?$AA_?$AAs?$AAt?$AAd?$AAi?$AAo?$AA_?$AAo?$AAu?$AAt?$AAp?$AAu?$AAt?$AA?3?$AA?3?$AAo?$AAu?$AAt?$AAp?$AAu?$AAt?$AA_?$AAp?$AAr?$AAo?$AAc?$AAe@ 0000000180077d30     libucrtd:output.obj
 0002:0000bf00       ??_C@_1EK@PNGFDECN@?$AA?$CI?$AA?$CC?$AA?8?$AAn?$AA?8?$AA?5?$AAf?$AAo?$AAr?$AAm?$AAa?$AAt?$AA?5?$AAs?$AAp?$AAe?$AAc?$AAi?$AAf?$AAi?$AAe?$AAr?$AA?5?$AAd?$AAi?$AAs?$AAa?$AAb?$AAl?$AAe?$AAd?$AA?$CC@ 0000000180077f00     libucrtd:output.obj
 0002:0000bf50       ??_C@_1EO@GHKFGFKL@?$AA?$CI?$AA?$CC?$AAI?$AAn?$AAv?$AAa?$AAl?$AAi?$AAd?$AA?5?$AAi?$AAn?$AAt?$AAe?$AAg?$AAe?$AAr?$AA?5?$AAl?$AAe?$AAn?$AAg?$AAt?$AAh?$AA?5?$AAm?$AAo?$AAd?$AAi?$AAf?$AAi?$AAe@ 0000000180077f50     libucrtd:output.obj
 0002:0000bfa0       ??_C@_1BMA@PGOJAHFP@?$AA_?$AA_?$AAc?$AAr?$AAt?$AA_?$AAs?$AAt?$AAd?$AAi?$AAo?$AA_?$AAo?$AAu?$AAt?$AAp?$AAu?$AAt?$AA?3?$AA?3?$AAo?$AAu?$AAt?$AAp?$AAu?$AAt?$AA_?$AAp?$AAr?$AAo?$AAc?$AAe@ 0000000180077fa0     libucrtd:output.obj
 0002:0000c160       ??_C@_1BMA@IHIBOLMD@?$AA_?$AA_?$AAc?$AAr?$AAt?$AA_?$AAs?$AAt?$AAd?$AAi?$AAo?$AA_?$AAo?$AAu?$AAt?$AAp?$AAu?$AAt?$AA?3?$AA?3?$AAo?$AAu?$AAt?$AAp?$AAu?$AAt?$AA_?$AAp?$AAr?$AAo?$AAc?$AAe@ 0000000180078160     libucrtd:output.obj
 0002:0000c320       ??_C@_1BDG@KOLEFKPF@?$AA_?$AA_?$AAc?$AAr?$AAt?$AA_?$AAs?$AAt?$AAd?$AAi?$AAo?$AA_?$AAo?$AAu?$AAt?$AAp?$AAu?$AAt?$AA?3?$AA?3?$AAf?$AAo?$AAr?$AAm?$AAa?$AAt?$AA_?$AAv?$AAa?$AAl?$AAi?$AAd@ 0000000180078320     libucrtd:output.obj
 0002:0000c460       ??_C@_1BEC@NDOOKIMC@?$AA_?$AA_?$AAc?$AAr?$AAt?$AA_?$AAs?$AAt?$AAd?$AAi?$AAo?$AA_?$AAo?$AAu?$AAt?$AAp?$AAu?$AAt?$AA?3?$AA?3?$AAf?$AAo?$AAr?$AAm?$AAa?$AAt?$AA_?$AAv?$AAa?$AAl?$AAi?$AAd@ 0000000180078460     libucrtd:output.obj
 0002:0000c5a8       ??_C@_1CK@LGDCECDH@?$AA_?$AAf?$AAo?$AAr?$AAm?$AAa?$AAt?$AA_?$AAc?$AAh?$AAa?$AAr?$AA?5?$AA?$CB?$AA?$DN?$AA?5?$AA?8?$AA?2?$AA0?$AA?8?$AA?$AA@ 00000001800785a8     libucrtd:output.obj
 0002:0000c5d4       ??_C@_06OJHGLDPL@?$CInull?$CJ?$AA@ 00000001800785d4     libucrtd:output.obj
 0002:0000c5e0       ??_C@_1O@CEDCILHN@?$AA?$CI?$AAn?$AAu?$AAl?$AAl?$AA?$CJ?$AA?$AA@ 00000001800785e0     libucrtd:output.obj
 0002:0000c5f0       ??_C@_1BMM@KANDEEGK@?$AA_?$AA_?$AAc?$AAr?$AAt?$AA_?$AAs?$AAt?$AAd?$AAi?$AAo?$AA_?$AAo?$AAu?$AAt?$AAp?$AAu?$AAt?$AA?3?$AA?3?$AAo?$AAu?$AAt?$AAp?$AAu?$AAt?$AA_?$AAp?$AAr?$AAo?$AAc?$AAe@ 00000001800785f0     libucrtd:output.obj
 0002:0000c7c0       ??_C@_1BMM@MBMBCJIF@?$AA_?$AA_?$AAc?$AAr?$AAt?$AA_?$AAs?$AAt?$AAd?$AAi?$AAo?$AA_?$AAo?$AAu?$AAt?$AAp?$AAu?$AAt?$AA?3?$AA?3?$AAo?$AAu?$AAt?$AAp?$AAu?$AAt?$AA_?$AAp?$AAr?$AAo?$AAc?$AAe@ 00000001800787c0     libucrtd:output.obj
 0002:0000c990       ??_C@_0DI@KIFBHMNO@minkernel?2crts?2ucrt?2inc?2corecrt_@ 0000000180078990     libucrtd:output.obj
 0002:0000c9d0       ??_C@_1BLC@INKIGOCN@?$AA_?$AA_?$AAc?$AAr?$AAt?$AA_?$AAs?$AAt?$AAd?$AAi?$AAo?$AA_?$AAo?$AAu?$AAt?$AAp?$AAu?$AAt?$AA?3?$AA?3?$AAo?$AAu?$AAt?$AAp?$AAu?$AAt?$AA_?$AAp?$AAr?$AAo?$AAc?$AAe@ 00000001800789d0     libucrtd:output.obj
 0002:0000cb90       ??_C@_1BMK@JGIBNIA@?$AA_?$AA_?$AAc?$AAr?$AAt?$AA_?$AAs?$AAt?$AAd?$AAi?$AAo?$AA_?$AAo?$AAu?$AAt?$AAp?$AAu?$AAt?$AA?3?$AA?3?$AAo?$AAu?$AAt?$AAp?$AAu?$AAt?$AA_?$AAp?$AAr?$AAo?$AAc?$AAe@ 0000000180078b90     libucrtd:output.obj
 0002:0000cd60       ??_C@_1BMG@CGPDIFDK@?$AA_?$AA_?$AAc?$AAr?$AAt?$AA_?$AAs?$AAt?$AAd?$AAi?$AAo?$AA_?$AAo?$AAu?$AAt?$AAp?$AAu?$AAt?$AA?3?$AA?3?$AAo?$AAu?$AAt?$AAp?$AAu?$AAt?$AA_?$AAp?$AAr?$AAo?$AAc?$AAe@ 0000000180078d60     libucrtd:output.obj
 0002:0000cf30       ??_C@_1BMC@FAGJFBLI@?$AA_?$AA_?$AAc?$AAr?$AAt?$AA_?$AAs?$AAt?$AAd?$AAi?$AAo?$AA_?$AAo?$AAu?$AAt?$AAp?$AAu?$AAt?$AA?3?$AA?3?$AAo?$AAu?$AAt?$AAp?$AAu?$AAt?$AA_?$AAp?$AAr?$AAo?$AAc?$AAe@ 0000000180078f30     libucrtd:output.obj
 0002:0000d100       ??_C@_1BNO@OHFFMOOJ@?$AA_?$AA_?$AAc?$AAr?$AAt?$AA_?$AAs?$AAt?$AAd?$AAi?$AAo?$AA_?$AAo?$AAu?$AAt?$AAp?$AAu?$AAt?$AA?3?$AA?3?$AAo?$AAu?$AAt?$AAp?$AAu?$AAt?$AA_?$AAp?$AAr?$AAo?$AAc?$AAe@ 0000000180079100     libucrtd:output.obj
 0002:0000d2e0       ??_C@_1BNK@KHNJGCCP@?$AA_?$AA_?$AAc?$AAr?$AAt?$AA_?$AAs?$AAt?$AAd?$AAi?$AAo?$AA_?$AAo?$AAu?$AAt?$AAp?$AAu?$AAt?$AA?3?$AA?3?$AAo?$AAu?$AAt?$AAp?$AAu?$AAt?$AA_?$AAp?$AAr?$AAo?$AAc?$AAe@ 00000001800792e0     libucrtd:output.obj
 0002:0000d4c0       ??_C@_1BLK@FOLFMPJH@?$AA_?$AA_?$AAc?$AAr?$AAt?$AA_?$AAs?$AAt?$AAd?$AAi?$AAo?$AA_?$AAo?$AAu?$AAt?$AAp?$AAu?$AAt?$AA?3?$AA?3?$AAo?$AAu?$AAt?$AAp?$AAu?$AAt?$AA_?$AAp?$AAr?$AAo?$AAc?$AAe@ 00000001800794c0     libucrtd:output.obj
 0002:0000d680       ??_C@_1BNC@OHPDPPJK@?$AA_?$AA_?$AAc?$AAr?$AAt?$AA_?$AAs?$AAt?$AAd?$AAi?$AAo?$AA_?$AAo?$AAu?$AAt?$AAp?$AAu?$AAt?$AA?3?$AA?3?$AAo?$AAu?$AAt?$AAp?$AAu?$AAt?$AA_?$AAp?$AAr?$AAo?$AAc?$AAe@ 0000000180079680     libucrtd:output.obj
 0002:0000d860       ??_C@_1BNC@JPKLPOHO@?$AA_?$AA_?$AAc?$AAr?$AAt?$AA_?$AAs?$AAt?$AAd?$AAi?$AAo?$AA_?$AAo?$AAu?$AAt?$AAp?$AAu?$AAt?$AA?3?$AA?3?$AAo?$AAu?$AAt?$AAp?$AAu?$AAt?$AA_?$AAp?$AAr?$AAo?$AAc?$AAe@ 0000000180079860     libucrtd:output.obj
 0002:0000da40       ??_C@_1BMG@BBEFGBID@?$AA_?$AA_?$AAc?$AAr?$AAt?$AA_?$AAs?$AAt?$AAd?$AAi?$AAo?$AA_?$AAo?$AAu?$AAt?$AAp?$AAu?$AAt?$AA?3?$AA?3?$AAo?$AAu?$AAt?$AAp?$AAu?$AAt?$AA_?$AAp?$AAr?$AAo?$AAc?$AAe@ 0000000180079a40     libucrtd:output.obj
 0002:0000dc10       ??_C@_1BNO@NAODCKFA@?$AA_?$AA_?$AAc?$AAr?$AAt?$AA_?$AAs?$AAt?$AAd?$AAi?$AAo?$AA_?$AAo?$AAu?$AAt?$AAp?$AAu?$AAt?$AA?3?$AA?3?$AAo?$AAu?$AAt?$AAp?$AAu?$AAt?$AA_?$AAp?$AAr?$AAo?$AAc?$AAe@ 0000000180079c10     libucrtd:output.obj
 0002:0000ddf0       ??_C@_1IC@DCNEKBE@?$AAm?$AAi?$AAn?$AAk?$AAe?$AAr?$AAn?$AAe?$AAl?$AA?2?$AAc?$AAr?$AAt?$AAs?$AA?2?$AAu?$AAc?$AAr?$AAt?$AA?2?$AAs?$AAr?$AAc?$AA?2?$AAa?$AAp?$AAp?$AAc?$AAr?$AAt?$AA?2?$AAi@ 0000000180079df0     libucrtd:report_runtime_error.obj
 0002:0000de78       ??_C@_1DI@BLFJHKKP@?$AA_?$AA_?$AAa?$AAc?$AAr?$AAt?$AA_?$AAr?$AAe?$AAp?$AAo?$AAr?$AAt?$AA_?$AAr?$AAu?$AAn?$AAt?$AAi?$AAm?$AAe?$AA_?$AAe?$AAr?$AAr?$AAo?$AAr?$AA?$AA@ 0000000180079e78     libucrtd:report_runtime_error.obj
 0002:0000deb0       ??_C@_1LE@MHPGJGKE@?$AAw?$AAc?$AAs?$AAc?$AAp?$AAy?$AA_?$AAs?$AA?$CI?$AAo?$AAu?$AAt?$AAm?$AAs?$AAg?$AA?0?$AA?5?$AA?$CI?$AAs?$AAi?$AAz?$AAe?$AAo?$AAf?$AA?$CI?$AA?$CK?$AA_?$AA_?$AAc?$AAo?$AAu?$AAn@ 0000000180079eb0     libucrtd:report_runtime_error.obj
 0002:0000df68       ??_C@_1DE@JNGNBFGO@?$AAR?$AAu?$AAn?$AAt?$AAi?$AAm?$AAe?$AA?5?$AAE?$AAr?$AAr?$AAo?$AAr?$AA?$CB?$AA?6?$AA?6?$AAP?$AAr?$AAo?$AAg?$AAr?$AAa?$AAm?$AA?3?$AA?5?$AA?$AA@ 0000000180079f68     libucrtd:report_runtime_error.obj
 0002:0000dfa0       ??_C@_1HK@FJJNAABO@?$AAw?$AAc?$AAs?$AAc?$AAp?$AAy?$AA_?$AAs?$AA?$CI?$AAp?$AAr?$AAo?$AAg?$AAn?$AAa?$AAm?$AAe?$AA?0?$AA?5?$AAp?$AAr?$AAo?$AAg?$AAn?$AAa?$AAm?$AAe?$AA_?$AAs?$AAi?$AAz?$AAe@ 0000000180079fa0     libucrtd:report_runtime_error.obj
 0002:0000e020       ??_C@_1HI@FLHKGEBE@?$AAw?$AAc?$AAs?$AAn?$AAc?$AAp?$AAy?$AA_?$AAs?$AA?$CI?$AAp?$AAc?$AAh?$AA?0?$AA?5?$AAp?$AAr?$AAo?$AAg?$AAn?$AAa?$AAm?$AAe?$AA_?$AAs?$AAi?$AAz?$AAe?$AA?5?$AA?9?$AA?5?$AA?$CI@ 000000018007a020     libucrtd:report_runtime_error.obj
 0002:0000e0a0       ??_C@_1IG@MNNKBLBI@?$AAw?$AAc?$AAs?$AAc?$AAa?$AAt?$AA_?$AAs?$AA?$CI?$AAo?$AAu?$AAt?$AAm?$AAs?$AAg?$AA?0?$AA?5?$AA?$CI?$AAs?$AAi?$AAz?$AAe?$AAo?$AAf?$AA?$CI?$AA?$CK?$AA_?$AA_?$AAc?$AAo?$AAu?$AAn@ 000000018007a0a0     libucrtd:report_runtime_error.obj
 0002:0000e130       ??_C@_1IG@DFBBBDAN@?$AAw?$AAc?$AAs?$AAc?$AAa?$AAt?$AA_?$AAs?$AA?$CI?$AAo?$AAu?$AAt?$AAm?$AAs?$AAg?$AA?0?$AA?5?$AA?$CI?$AAs?$AAi?$AAz?$AAe?$AAo?$AAf?$AA?$CI?$AA?$CK?$AA_?$AA_?$AAc?$AAo?$AAu?$AAn@ 000000018007a130     libucrtd:report_runtime_error.obj
 0002:0000e330       ??_C@_1GA@HBEFGMHK@?$AAm?$AAi?$AAn?$AAk?$AAe?$AAr?$AAn?$AAe?$AAl?$AA?2?$AAc?$AAr?$AAt?$AAs?$AA?2?$AAu?$AAc?$AAr?$AAt?$AA?2?$AAs?$AAr?$AAc?$AA?2?$AAa?$AAp?$AAp?$AAc?$AAr?$AAt?$AA?2?$AAc@ 000000018007a330     libucrtd:xtoa.obj
 0002:0000e390       ??_C@_1BM@HMPEMLNP@?$AAc?$AAo?$AAm?$AAm?$AAo?$AAn?$AA_?$AAx?$AAt?$AAo?$AAx?$AA_?$AAs?$AA?$AA@ 000000018007a390     libucrtd:xtoa.obj
 0002:0000e3b0       ??_C@_1CC@ONIJBMJF@?$AAb?$AAu?$AAf?$AAf?$AAe?$AAr?$AA_?$AAc?$AAo?$AAu?$AAn?$AAt?$AA?5?$AA?$DO?$AA?5?$AA0?$AA?$AA@ 000000018007a3b0     libucrtd:xtoa.obj
 0002:0000e3e0       ??_C@_1HA@JFIOFNKD@?$AAb?$AAu?$AAf?$AAf?$AAe?$AAr?$AA_?$AAc?$AAo?$AAu?$AAn?$AAt?$AA?5?$AA?$DO?$AA?5?$AAs?$AAt?$AAa?$AAt?$AAi?$AAc?$AA_?$AAc?$AAa?$AAs?$AAt?$AA?$DM?$AAs?$AAi?$AAz?$AAe?$AA_@ 000000018007a3e0     libucrtd:xtoa.obj
 0002:0000e450       ??_C@_1DE@PCJGDBBD@?$AA2?$AA?5?$AA?$DM?$AA?$DN?$AA?5?$AAr?$AAa?$AAd?$AAi?$AAx?$AA?5?$AA?$CG?$AA?$CG?$AA?5?$AAr?$AAa?$AAd?$AAi?$AAx?$AA?5?$AA?$DM?$AA?$DN?$AA?5?$AA3?$AA6?$AA?$AA@ 000000018007a450     libucrtd:xtoa.obj
 0002:0000e488       ??_C@_1CM@LONILNIJ@?$AAl?$AAe?$AAn?$AAg?$AAt?$AAh?$AA?5?$AA?$DM?$AA?5?$AAb?$AAu?$AAf?$AAf?$AAe?$AAr?$AA_?$AAc?$AAo?$AAu?$AAn?$AAt?$AA?$AA@ 000000018007a488     libucrtd:xtoa.obj
 0002:0000e4b8       ??_C@_1BI@OLPLFKOE@?$AAc?$AAo?$AAm?$AAm?$AAo?$AAn?$AA_?$AAx?$AAt?$AAo?$AAx?$AA?$AA@ 000000018007a4b8     libucrtd:xtoa.obj
 0002:0000e4d0       ??_C@_1DE@BCNCAIK@?$AA?$CI?$AA?$CC?$AAI?$AAn?$AAv?$AAa?$AAl?$AAi?$AAd?$AA?5?$AAe?$AAr?$AAr?$AAo?$AAr?$AA_?$AAm?$AAo?$AAd?$AAe?$AA?$CC?$AA?0?$AA?5?$AA0?$AA?$CJ?$AA?$AA@ 000000018007a4d0     libucrtd:set_error_mode.obj
 0002:0000e510       ??_C@_1GO@EBFPMMIJ@?$AAm?$AAi?$AAn?$AAk?$AAe?$AAr?$AAn?$AAe?$AAl?$AA?2?$AAc?$AAr?$AAt?$AAs?$AA?2?$AAu?$AAc?$AAr?$AAt?$AA?2?$AAs?$AAr?$AAc?$AA?2?$AAa?$AAp?$AAp?$AAc?$AAr?$AAt?$AA?2?$AAm@ 000000018007a510     libucrtd:set_error_mode.obj
 0002:0000e580       ??_C@_1CA@LFDHAMEM@?$AA_?$AAs?$AAe?$AAt?$AA_?$AAe?$AAr?$AAr?$AAo?$AAr?$AA_?$AAm?$AAo?$AAd?$AAe?$AA?$AA@ 000000018007a580     libucrtd:set_error_mode.obj
 0002:0000e5a0       ??_C@_1CA@EOJJMFA@?$AAc?$AAo?$AAm?$AAm?$AAo?$AAn?$AA_?$AAt?$AAc?$AAs?$AAc?$AAa?$AAt?$AA_?$AAs?$AA?$AA@ 000000018007a5a0     libucrtd:wcscat_s.obj
 0002:0000e5c0       ??_C@_1DM@FHLMIEG@?$AAS?$AAt?$AAr?$AAi?$AAn?$AAg?$AA?5?$AAi?$AAs?$AA?5?$AAn?$AAo?$AAt?$AA?5?$AAn?$AAu?$AAl?$AAl?$AA?5?$AAt?$AAe?$AAr?$AAm?$AAi?$AAn?$AAa?$AAt?$AAe?$AAd?$AA?$AA@ 000000018007a5c0     libucrtd:wcscat_s.obj
 0002:0000e600       ??_C@_1FA@MJKDNFFB@?$AA?$CI?$AAL?$AA?$CC?$AAS?$AAt?$AAr?$AAi?$AAn?$AAg?$AA?5?$AAi?$AAs?$AA?5?$AAn?$AAo?$AAt?$AA?5?$AAn?$AAu?$AAl?$AAl?$AA?5?$AAt?$AAe?$AAr?$AAm?$AAi?$AAn?$AAa?$AAt?$AAe?$AAd@ 000000018007a600     libucrtd:wcscat_s.obj
 0002:0000e650       ??_C@_1CC@HELMJGIF@?$AAc?$AAo?$AAm?$AAm?$AAo?$AAn?$AA_?$AAt?$AAc?$AAs?$AAn?$AAc?$AAa?$AAt?$AA_?$AAs?$AA?$AA@ 000000018007a650     libucrtd:wcsncat_s.obj
 0002:0000e678       ??_C@_0CP@GDJHIDC@minkernel?2crts?2ucrt?2src?2appcrt?2s@ 000000018007a678     libucrtd:_file.obj
 0002:0000e6b0       ??_C@_1GC@NAMEPLDD@?$AAm?$AAi?$AAn?$AAk?$AAe?$AAr?$AAn?$AAe?$AAl?$AA?2?$AAc?$AAr?$AAt?$AAs?$AA?2?$AAu?$AAc?$AAr?$AAt?$AA?2?$AAs?$AAr?$AAc?$AA?2?$AAa?$AAp?$AAp?$AAc?$AAr?$AAt?$AA?2?$AAs@ 000000018007a6b0     libucrtd:setvbuf.obj
 0002:0000e718       ??_C@_1BA@OGODIODK@?$AAs?$AAe?$AAt?$AAv?$AAb?$AAu?$AAf?$AA?$AA@ 000000018007a718     libucrtd:setvbuf.obj
 0002:0000e730       ??_C@_1GG@CBGCKJPC@?$AAt?$AAy?$AAp?$AAe?$AA?5?$AA?$DN?$AA?$DN?$AA?5?$AA_?$AAI?$AAO?$AAN?$AAB?$AAF?$AA?5?$AA?$HM?$AA?$HM?$AA?5?$AAt?$AAy?$AAp?$AAe?$AA?5?$AA?$DN?$AA?$DN?$AA?5?$AA_?$AAI?$AAO?$AAF?$AAB?$AAF@ 000000018007a730     libucrtd:setvbuf.obj
 0002:0000e7a0       ??_C@_1HK@PBPJKDDM@?$AA2?$AA?5?$AA?$DM?$AA?$DN?$AA?5?$AAb?$AAu?$AAf?$AAf?$AAe?$AAr?$AA_?$AAs?$AAi?$AAz?$AAe?$AA_?$AAi?$AAn?$AA_?$AAb?$AAy?$AAt?$AAe?$AAs?$AA?5?$AA?$CG?$AA?$CG?$AA?5?$AAb?$AAu?$AAf@ 000000018007a7a0     libucrtd:setvbuf.obj
 0002:0000e820       ??_C@_0DB@BJFCCEBD@minkernel?2crts?2ucrt?2src?2appcrt?2s@ 000000018007a820     libucrtd:setvbuf.obj
 0002:0000e858       ??_C@_1DA@NBILLKNO@?$AAl?$AAo?$AAc?$AAa?$AAl?$AA_?$AAa?$AAc?$AAt?$AAi?$AAo?$AAn?$AA?5?$AA?$CB?$AA?$DN?$AA?5?$AAn?$AAu?$AAl?$AAl?$AAp?$AAt?$AAr?$AA?$AA@ 000000018007a858     libucrtd:signal.obj
 0002:0000e890       ??_C@_1FO@CCGDPEKE@?$AAm?$AAi?$AAn?$AAk?$AAe?$AAr?$AAn?$AAe?$AAl?$AA?2?$AAc?$AAr?$AAt?$AAs?$AA?2?$AAu?$AAc?$AAr?$AAt?$AA?2?$AAs?$AAr?$AAc?$AA?2?$AAa?$AAp?$AAp?$AAc?$AAr?$AAt?$AA?2?$AAm@ 000000018007a890     libucrtd:signal.obj
 0002:0000e8f0       ??_C@_1M@DMJEIKHL@?$AAr?$AAa?$AAi?$AAs?$AAe?$AA?$AA@ 000000018007a8f0     libucrtd:signal.obj
 0002:0000e900       ??_C@_1DO@MLNEDKGB@?$AA?$CI?$AA?$CC?$AAI?$AAn?$AAv?$AAa?$AAl?$AAi?$AAd?$AA?5?$AAs?$AAi?$AAg?$AAn?$AAa?$AAl?$AA?5?$AAo?$AAr?$AA?5?$AAe?$AAr?$AAr?$AAo?$AAr?$AA?$CC?$AA?0?$AA?5?$AA0?$AA?$CJ?$AA?$AA@ 000000018007a900     libucrtd:signal.obj
 0002:0000e940       ??_C@_0DA@OGKFKCBE@minkernel?2crts?2ucrt?2src?2appcrt?2s@ 000000018007a940     libucrtd:stream.obj
 0002:0000e970       ??_C@_1GE@HEEFEAFI@?$AAm?$AAi?$AAn?$AAk?$AAe?$AAr?$AAn?$AAe?$AAl?$AA?2?$AAc?$AAr?$AAt?$AAs?$AA?2?$AAu?$AAc?$AAr?$AAt?$AA?2?$AAs?$AAr?$AAc?$AA?2?$AAa?$AAp?$AAp?$AAc?$AAr?$AAt?$AA?2?$AAs@ 000000018007a970     libucrtd:openfile.obj
 0002:0000e9d8       ??_C@_1DM@FOFGGBBM@?$AA?$CI?$AA?$CC?$AAI?$AAn?$AAv?$AAa?$AAl?$AAi?$AAd?$AA?5?$AAf?$AAi?$AAl?$AAe?$AA?5?$AAo?$AAp?$AAe?$AAn?$AA?5?$AAm?$AAo?$AAd?$AAe?$AA?$CC?$AA?0?$AA?5?$AA0?$AA?$CJ?$AA?$AA@ 000000018007a9d8     libucrtd:openfile.obj
 0002:0000ea18       ??_C@_1DA@KPIHAHGC@?$AA_?$AA_?$AAa?$AAc?$AAr?$AAt?$AA_?$AAs?$AAt?$AAd?$AAi?$AAo?$AA_?$AAp?$AAa?$AAr?$AAs?$AAe?$AA_?$AAm?$AAo?$AAd?$AAe?$AA?$AA@ 000000018007aa18     libucrtd:openfile.obj
 0002:0000ea48       ??_C@_1BI@PDNFEGCG@?$AA?$CK?$AAi?$AAt?$AA?5?$AA?$DN?$AA?$DN?$AA?5?$AA?8?$AA?2?$AA0?$AA?8?$AA?$AA@ 000000018007aa48     libucrtd:openfile.obj
 0002:0000ea60       ?ccs@?BL@???$__acrt_stdio_parse_mode@D@@YA?AU__acrt_stdio_stream_mode@@QEBD@Z@4QBDB 000000018007aa60     libucrtd:openfile.obj
 0002:0000ea64       ?utf8_encoding@?BL@???$__acrt_stdio_parse_mode@D@@YA?AU__acrt_stdio_stream_mode@@QEBD@Z@4QBDB 000000018007aa64     libucrtd:openfile.obj
 0002:0000ea70       ?utf16_encoding@?BL@???$__acrt_stdio_parse_mode@D@@YA?AU__acrt_stdio_stream_mode@@QEBD@Z@4QBDB 000000018007aa70     libucrtd:openfile.obj
 0002:0000ea78       ?unicode_encoding@?BL@???$__acrt_stdio_parse_mode@D@@YA?AU__acrt_stdio_stream_mode@@QEBD@Z@4QBDB 000000018007aa78     libucrtd:openfile.obj
 0002:0000ea80       ??_C@_1FO@LPCLHKGE@?$AA?$CI?$AAf?$AAh?$AA?5?$AA?$DO?$AA?$DN?$AA?5?$AA0?$AA?5?$AA?$CG?$AA?$CG?$AA?5?$AA?$CI?$AAu?$AAn?$AAs?$AAi?$AAg?$AAn?$AAe?$AAd?$AA?$CJ?$AAf?$AAh?$AA?5?$AA?$DM?$AA?5?$AA?$CI?$AAu?$AAn?$AAs?$AAi@ 000000018007aa80     libucrtd:close.obj
 0002:0000eae0       ??_C@_1FO@IPDGALOE@?$AAm?$AAi?$AAn?$AAk?$AAe?$AAr?$AAn?$AAe?$AAl?$AA?2?$AAc?$AAr?$AAt?$AAs?$AA?2?$AAu?$AAc?$AAr?$AAt?$AA?2?$AAs?$AAr?$AAc?$AA?2?$AAa?$AAp?$AAp?$AAc?$AAr?$AAt?$AA?2?$AAl@ 000000018007aae0     libucrtd:close.obj
 0002:0000eb40       ??_C@_1O@EDEJGJBM@?$AA_?$AAc?$AAl?$AAo?$AAs?$AAe?$AA?$AA@ 000000018007ab40     libucrtd:close.obj
 0002:0000eb50       ??_C@_1CM@OKGMMMDH@?$AA?$CI?$AA_?$AAo?$AAs?$AAf?$AAi?$AAl?$AAe?$AA?$CI?$AAf?$AAh?$AA?$CJ?$AA?5?$AA?$CG?$AA?5?$AAF?$AAO?$AAP?$AAE?$AAN?$AA?$CJ?$AA?$AA@ 000000018007ab50     libucrtd:close.obj
 0002:0000eb80       ??_C@_1JE@ECKHFIFP@?$AA?$CI?$AA?$CC?$AAI?$AAn?$AAv?$AAa?$AAl?$AAi?$AAd?$AA?5?$AAf?$AAi?$AAl?$AAe?$AA?5?$AAd?$AAe?$AAs?$AAc?$AAr?$AAi?$AAp?$AAt?$AAo?$AAr?$AA?4?$AA?5?$AAF?$AAi?$AAl?$AAe?$AA?5@ 000000018007ab80     libucrtd:close.obj
 0002:0000ec20       ??_C@_1GA@KCAHHNGP@?$AAm?$AAi?$AAn?$AAk?$AAe?$AAr?$AAn?$AAe?$AAl?$AA?2?$AAc?$AAr?$AAt?$AAs?$AA?2?$AAu?$AAc?$AAr?$AAt?$AA?2?$AAs?$AAr?$AAc?$AA?2?$AAa?$AAp?$AAp?$AAc?$AAr?$AAt?$AA?2?$AAs@ 000000018007ac20     libucrtd:fileno.obj
 0002:0000ec80       ??_C@_1BA@JGHIEKKM@?$AA_?$AAf?$AAi?$AAl?$AAe?$AAn?$AAo?$AA?$AA@ 000000018007ac80     libucrtd:fileno.obj
 0002:0000ec90       ??_C@_1GE@GPOPIOIG@?$AAm?$AAi?$AAn?$AAk?$AAe?$AAr?$AAn?$AAe?$AAl?$AA?2?$AAc?$AAr?$AAt?$AAs?$AA?2?$AAu?$AAc?$AAr?$AAt?$AA?2?$AAs?$AAr?$AAc?$AA?2?$AAa?$AAp?$AAp?$AAc?$AAr?$AAt?$AA?2?$AAs@ 000000018007ac90     libucrtd:_freebuf.obj
 0002:0000ed00       ??_C@_1KG@LJECICMN@?$AAs?$AAt?$AAa?$AAt?$AAi?$AAc?$AA_?$AAc?$AAa?$AAs?$AAt?$AA?$DM?$AAv?$AAo?$AAi?$AAd?$AA?5?$AAc?$AAo?$AAn?$AAs?$AAt?$AA?$CK?$AA?$DO?$AA?$CI?$AAs?$AAo?$AAu?$AAr?$AAc?$AAe?$AA_@ 000000018007ad00     libucrtd:read.obj
 0002:0000edb0       ??_C@_1FM@PHKGHLIO@?$AAm?$AAi?$AAn?$AAk?$AAe?$AAr?$AAn?$AAe?$AAl?$AA?2?$AAc?$AAr?$AAt?$AAs?$AA?2?$AAu?$AAc?$AAr?$AAt?$AA?2?$AAs?$AAr?$AAc?$AA?2?$AAa?$AAp?$AAp?$AAc?$AAr?$AAt?$AA?2?$AAl@ 000000018007adb0     libucrtd:read.obj
 0002:0000ee10       ??_C@_1FK@MGHFJLAL@?$AAf?$AAh?$AA?5?$AA?$DO?$AA?$DN?$AA?5?$AA0?$AA?5?$AA?$CG?$AA?$CG?$AA?5?$AA?$CI?$AAu?$AAn?$AAs?$AAi?$AAg?$AAn?$AAe?$AAd?$AA?$CJ?$AAf?$AAh?$AA?5?$AA?$DM?$AA?5?$AA?$CI?$AAu?$AAn?$AAs?$AAi?$AAg@ 000000018007ae10     libucrtd:read.obj
 0002:0000ee70       ??_C@_1M@NHJOLLDM@?$AA_?$AAr?$AAe?$AAa?$AAd?$AA?$AA@ 000000018007ae70     libucrtd:read.obj
 0002:0000ee80       ??_C@_1CI@ILOIOBLM@?$AA_?$AAo?$AAs?$AAf?$AAi?$AAl?$AAe?$AA?$CI?$AAf?$AAh?$AA?$CJ?$AA?5?$AA?$CG?$AA?5?$AAF?$AAO?$AAP?$AAE?$AAN?$AA?$AA@ 000000018007ae80     libucrtd:read.obj
 0002:0000eea8       ??_C@_1CO@OPEPDLLF@?$AAb?$AAu?$AAf?$AAf?$AAe?$AAr?$AA_?$AAs?$AAi?$AAz?$AAe?$AA?5?$AA?$DM?$AA?$DN?$AA?5?$AAI?$AAN?$AAT?$AA_?$AAM?$AAA?$AAX?$AA?$AA@ 000000018007aea8     libucrtd:read.obj
 0002:0000eed8       ??_C@_1BK@JJBHNDKJ@?$AA_?$AAr?$AAe?$AAa?$AAd?$AA_?$AAn?$AAo?$AAl?$AAo?$AAc?$AAk?$AA?$AA@ 000000018007aed8     libucrtd:read.obj
 0002:0000eef8       ??_C@_1DM@JEAHBMKI@?$AAr?$AAe?$AAs?$AAu?$AAl?$AAt?$AA_?$AAb?$AAu?$AAf?$AAf?$AAe?$AAr?$AA_?$AAs?$AAi?$AAz?$AAe?$AA?5?$AA?$DM?$AA?$DN?$AA?5?$AAI?$AAN?$AAT?$AA_?$AAM?$AAA?$AAX?$AA?$AA@ 000000018007aef8     libucrtd:read.obj
 0002:0000ef38       ??_C@_1DC@MGKAFPFD@?$AAr?$AAe?$AAs?$AAu?$AAl?$AAt?$AA_?$AAb?$AAu?$AAf?$AAf?$AAe?$AAr?$AA?5?$AA?$CB?$AA?$DN?$AA?5?$AAn?$AAu?$AAl?$AAl?$AAp?$AAt?$AAr?$AA?$AA@ 000000018007af38     libucrtd:read.obj
 0002:0000ef70       ??_C@_1DI@CDGOMPDO@?$AAr?$AAe?$AAs?$AAu?$AAl?$AAt?$AA_?$AAb?$AAu?$AAf?$AAf?$AAe?$AAr?$AA_?$AAs?$AAi?$AAz?$AAe?$AA?5?$AA?$CF?$AA?5?$AA2?$AA?5?$AA?$DN?$AA?$DN?$AA?5?$AA0?$AA?$AA@ 000000018007af70     libucrtd:read.obj
 0002:0000efa8       ??_C@_0CO@JFNFJHLC@minkernel?2crts?2ucrt?2src?2appcrt?2l@ 000000018007afa8     libucrtd:read.obj
 0002:0000efd8       ??_C@_1DM@HGBOAKPP@?$AA?$CI?$AAr?$AAe?$AAs?$AAu?$AAl?$AAt?$AA_?$AAb?$AAu?$AAf?$AAf?$AAe?$AAr?$AA_?$AAs?$AAi?$AAz?$AAe?$AA?5?$AA?$CF?$AA?5?$AA2?$AA?$CJ?$AA?5?$AA?$DN?$AA?$DN?$AA?5?$AA0?$AA?$AA@ 000000018007afd8     libucrtd:read.obj
 0002:0000f020       ??_C@_1GC@MGNADOPH@?$AAm?$AAi?$AAn?$AAk?$AAe?$AAr?$AAn?$AAe?$AAl?$AA?2?$AAc?$AAr?$AAt?$AAs?$AA?2?$AAu?$AAc?$AAr?$AAt?$AA?2?$AAs?$AAr?$AAc?$AA?2?$AAa?$AAp?$AAp?$AAc?$AAr?$AAt?$AA?2?$AAs@ 000000018007b020     libucrtd:_filbuf.obj
 0002:0000f088       ??_C@_1DM@MPDNIFLF@?$AAc?$AAo?$AAm?$AAm?$AAo?$AAn?$AA_?$AAr?$AAe?$AAf?$AAi?$AAl?$AAl?$AA_?$AAa?$AAn?$AAd?$AA_?$AAr?$AAe?$AAa?$AAd?$AA_?$AAn?$AAo?$AAl?$AAo?$AAc?$AAk?$AA?$AA@ 000000018007b088     libucrtd:_filbuf.obj
 0002:0000f0d0       ??_C@_1FO@KIIHJNFN@?$AAm?$AAi?$AAn?$AAk?$AAe?$AAr?$AAn?$AAe?$AAl?$AA?2?$AAc?$AAr?$AAt?$AAs?$AA?2?$AAu?$AAc?$AAr?$AAt?$AA?2?$AAs?$AAr?$AAc?$AA?2?$AAa?$AAp?$AAp?$AAc?$AAr?$AAt?$AA?2?$AAl@ 000000018007b0d0     libucrtd:lseek.obj
 0002:0000f130       ??_C@_1BK@JOMBNFIM@?$AAc?$AAo?$AAm?$AAm?$AAo?$AAn?$AA_?$AAl?$AAs?$AAe?$AAe?$AAk?$AA?$AA@ 000000018007b130     libucrtd:lseek.obj
 0002:0000f150       ??_C@_1DM@LMLOLGJ@?$AA?$CI?$AA?$CC?$AAI?$AAn?$AAv?$AAa?$AAl?$AAi?$AAd?$AA?5?$AAf?$AAi?$AAl?$AAe?$AA?5?$AAd?$AAe?$AAs?$AAc?$AAr?$AAi?$AAp?$AAt?$AAo?$AAr?$AA?$CC?$AA?0?$AA0?$AA?$CJ?$AA?$AA@ 000000018007b150     libucrtd:lseek.obj
 0002:0000f190       _d_inf                     000000018007b190     libucrtd:util.obj
 0002:0000f198       _d_max                     000000018007b198     libucrtd:util.obj
 0002:0000f370       ??_C@_03KHJOGHMM@exp?$AA@  000000018007b370     libucrtd:fpexcept.obj
 0002:0000f374       ??_C@_03JGHBODFD@pow?$AA@  000000018007b374     libucrtd:fpexcept.obj
 0002:0000f378       ??_C@_03MGHMBJCF@log?$AA@  000000018007b378     libucrtd:fpexcept.obj
 0002:0000f37c       ??_C@_05HGHHAHAP@log10?$AA@ 000000018007b37c     libucrtd:fpexcept.obj
 0002:0000f384       ??_C@_04COOMCNPB@sinh?$AA@ 000000018007b384     libucrtd:fpexcept.obj
 0002:0000f38c       ??_C@_04HPJJNFIM@cosh?$AA@ 000000018007b38c     libucrtd:fpexcept.obj
 0002:0000f394       ??_C@_04FJHINJAO@tanh?$AA@ 000000018007b394     libucrtd:fpexcept.obj
 0002:0000f39c       ??_C@_04FIHNOPOL@asin?$AA@ 000000018007b39c     libucrtd:fpexcept.obj
 0002:0000f3a4       ??_C@_04PDIFKINK@acos?$AA@ 000000018007b3a4     libucrtd:fpexcept.obj
 0002:0000f3ac       ??_C@_04MLLJIGOK@atan?$AA@ 000000018007b3ac     libucrtd:fpexcept.obj
 0002:0000f3b4       ??_C@_05KNGEOGJB@atan2?$AA@ 000000018007b3b4     libucrtd:fpexcept.obj
 0002:0000f3bc       ??_C@_04EIAKFFMI@sqrt?$AA@ 000000018007b3bc     libucrtd:fpexcept.obj
 0002:0000f3c4       ??_C@_03BLEJJJBH@sin?$AA@  000000018007b3c4     libucrtd:fpexcept.obj
 0002:0000f3c8       ??_C@_03LALBNOCG@cos?$AA@  000000018007b3c8     libucrtd:fpexcept.obj
 0002:0000f3cc       ??_C@_03IIINPABG@tan?$AA@  000000018007b3cc     libucrtd:fpexcept.obj
 0002:0000f3d0       ??_C@_04GFPJNGEK@ceil?$AA@ 000000018007b3d0     libucrtd:fpexcept.obj
 0002:0000f3d8       ??_C@_05PBJFFIGL@floor?$AA@ 000000018007b3d8     libucrtd:fpexcept.obj
 0002:0000f3e0       ??_C@_04ODHECPBC@fabs?$AA@ 000000018007b3e0     libucrtd:fpexcept.obj
 0002:0000f3e8       ??_C@_04EHEDPDJG@modf?$AA@ 000000018007b3e8     libucrtd:fpexcept.obj
 0002:0000f3f0       ??_C@_05CEJMAHNP@ldexp?$AA@ 000000018007b3f0     libucrtd:fpexcept.obj
 0002:0000f3f8       ??_C@_05KBKMEMPO@_cabs?$AA@ 000000018007b3f8     libucrtd:fpexcept.obj
 0002:0000f400       ??_C@_06MEIMCGCF@_hypot?$AA@ 000000018007b400     libucrtd:fpexcept.obj
 0002:0000f408       ??_C@_04KEPJIHGP@fmod?$AA@ 000000018007b408     libucrtd:fpexcept.obj
 0002:0000f410       ??_C@_05GKKHEGJL@frexp?$AA@ 000000018007b410     libucrtd:fpexcept.obj
 0002:0000f418       ??_C@_03MJLDFKDL@_y0?$AA@  000000018007b418     libucrtd:fpexcept.obj
 0002:0000f41c       ??_C@_03NAKIGLHK@_y1?$AA@  000000018007b41c     libucrtd:fpexcept.obj
 0002:0000f420       ??_C@_03ONILCKOB@_yn?$AA@  000000018007b420     libucrtd:fpexcept.obj
 0002:0000f424       ??_C@_05JGDBENOH@_logb?$AA@ 000000018007b424     libucrtd:fpexcept.obj
 0002:0000f430       ??_C@_0L@KDOEJCKC@_nextafter?$AA@ 000000018007b430     libucrtd:fpexcept.obj
 0002:0000f440       __xmm@80000000000000008000000000000000 000000018007b440     libucrtd:fpexcept.obj
 0002:0000f480       ??_C@_1CI@JELMFMDH@?$AAc?$AA?5?$AA?$DO?$AA?$DN?$AA?5?$AA?9?$AA1?$AA?5?$AA?$CG?$AA?$CG?$AA?5?$AAc?$AA?5?$AA?$DM?$AA?$DN?$AA?5?$AA2?$AA5?$AA5?$AA?$AA@ 000000018007b480     libucrtd:isctype.obj
 0002:0000f4b0       ??_C@_1GG@KPBGDFHJ@?$AAm?$AAi?$AAn?$AAk?$AAe?$AAr?$AAn?$AAe?$AAl?$AA?2?$AAc?$AAr?$AAt?$AAs?$AA?2?$AAu?$AAc?$AAr?$AAt?$AA?2?$AAs?$AAr?$AAc?$AA?2?$AAa?$AAp?$AAp?$AAc?$AAr?$AAt?$AA?2?$AAc@ 000000018007b4b0     libucrtd:isctype.obj
 0002:0000f518       ??_C@_0DM@DKIFNNOL@minkernel?2crts?2ucrt?2src?2appcrt?2i@ 000000018007b518     libucrtd:per_thread_data.obj
 0002:0000f560       __lc_time_c                000000018007b560     libucrtd:nlsdata.obj
 0002:0000f820       ??_C@_03KOEHGMDN@Sun?$AA@  000000018007b820     libucrtd:nlsdata.obj
 0002:0000f824       ??_C@_03PDAGKDH@Mon?$AA@   000000018007b824     libucrtd:nlsdata.obj
 0002:0000f828       ??_C@_03NAGEINEP@Tue?$AA@  000000018007b828     libucrtd:nlsdata.obj
 0002:0000f82c       ??_C@_03MHOMLAJA@Wed?$AA@  000000018007b82c     libucrtd:nlsdata.obj
 0002:0000f830       ??_C@_03IOFIKPDN@Thu?$AA@  000000018007b830     libucrtd:nlsdata.obj
 0002:0000f834       ??_C@_03IDIOELNC@Fri?$AA@  000000018007b834     libucrtd:nlsdata.obj
 0002:0000f838       ??_C@_03FEFJNEK@Sat?$AA@   000000018007b838     libucrtd:nlsdata.obj
 0002:0000f83c       ??_C@_06OOPIFAJ@Sunday?$AA@ 000000018007b83c     libucrtd:nlsdata.obj
 0002:0000f844       ??_C@_06JLEDEDGH@Monday?$AA@ 000000018007b844     libucrtd:nlsdata.obj
 0002:0000f850       ??_C@_07BAAGCFCM@Tuesday?$AA@ 000000018007b850     libucrtd:nlsdata.obj
 0002:0000f858       ??_C@_09DLIGFAKA@Wednesday?$AA@ 000000018007b858     libucrtd:nlsdata.obj
 0002:0000f868       ??_C@_08HACCIKIA@Thursday?$AA@ 000000018007b868     libucrtd:nlsdata.obj
 0002:0000f874       ??_C@_06JECMNKMI@Friday?$AA@ 000000018007b874     libucrtd:nlsdata.obj
 0002:0000f880       ??_C@_08INBOOONO@Saturday?$AA@ 000000018007b880     libucrtd:nlsdata.obj
 0002:0000f88c       ??_C@_03JIHJHPIE@Jan?$AA@  000000018007b88c     libucrtd:nlsdata.obj
 0002:0000f890       ??_C@_03HJBDCHOM@Feb?$AA@  000000018007b890     libucrtd:nlsdata.obj
 0002:0000f894       ??_C@_03ODNJBKGA@Mar?$AA@  000000018007b894     libucrtd:nlsdata.obj
 0002:0000f898       ??_C@_03LEOLGMJP@Apr?$AA@  000000018007b898     libucrtd:nlsdata.obj
 0002:0000f89c       ??_C@_03CNMDKL@May?$AA@    000000018007b89c     libucrtd:nlsdata.obj
 0002:0000f8a0       ??_C@_03IDFGHECI@Jun?$AA@  000000018007b8a0     libucrtd:nlsdata.obj
 0002:0000f8a4       ??_C@_03LBGABGKK@Jul?$AA@  000000018007b8a4     libucrtd:nlsdata.obj
 0002:0000f8a8       ??_C@_03IFJFEIGA@Aug?$AA@  000000018007b8a8     libucrtd:nlsdata.obj
 0002:0000f8ac       ??_C@_03GGCAPAJC@Sep?$AA@  000000018007b8ac     libucrtd:nlsdata.obj
 0002:0000f8b0       ??_C@_03BMAOKBAD@Oct?$AA@  000000018007b8b0     libucrtd:nlsdata.obj
 0002:0000f8b4       ??_C@_03JPJOFNIA@Nov?$AA@  000000018007b8b4     libucrtd:nlsdata.obj
 0002:0000f8b8       ??_C@_03MKABNOCG@Dec?$AA@  000000018007b8b8     libucrtd:nlsdata.obj
 0002:0000f8c0       ??_C@_07CGJPFGJA@January?$AA@ 000000018007b8c0     libucrtd:nlsdata.obj
 0002:0000f8c8       ??_C@_08GNJGEPFN@February?$AA@ 000000018007b8c8     libucrtd:nlsdata.obj
 0002:0000f8d4       ??_C@_05HPCKOFNC@March?$AA@ 000000018007b8d4     libucrtd:nlsdata.obj
 0002:0000f8dc       ??_C@_05DMJDNLEJ@April?$AA@ 000000018007b8dc     libucrtd:nlsdata.obj
 0002:0000f8e4       ??_C@_04CNLMGBGM@June?$AA@ 000000018007b8e4     libucrtd:nlsdata.obj
 0002:0000f8ec       ??_C@_04MIEPOIFP@July?$AA@ 000000018007b8ec     libucrtd:nlsdata.obj
 0002:0000f8f4       ??_C@_06LBBHFDDG@August?$AA@ 000000018007b8f4     libucrtd:nlsdata.obj
 0002:0000f900       ??_C@_09BHHEALKD@September?$AA@ 000000018007b900     libucrtd:nlsdata.obj
 0002:0000f910       ??_C@_07JJNFCEND@October?$AA@ 000000018007b910     libucrtd:nlsdata.obj
 0002:0000f918       ??_C@_08HCHEGEOA@November?$AA@ 000000018007b918     libucrtd:nlsdata.obj
 0002:0000f928       ??_C@_08EDHMEBNP@December?$AA@ 000000018007b928     libucrtd:nlsdata.obj
 0002:0000f934       ??_C@_02DEDBPAFC@AM?$AA@   000000018007b934     libucrtd:nlsdata.obj
 0002:0000f938       ??_C@_02CJNFDJBF@PM?$AA@   000000018007b938     libucrtd:nlsdata.obj
 0002:0000f940       ??_C@_08BPBNCDIB@MM?1dd?1yy?$AA@ 000000018007b940     libucrtd:nlsdata.obj
 0002:0000f950       ??_C@_0BE@CKGJFCPC@dddd?0?5MMMM?5dd?0?5yyyy?$AA@ 000000018007b950     libucrtd:nlsdata.obj
 0002:0000f968       ??_C@_08JCCMCCIL@HH?3mm?3ss?$AA@ 000000018007b968     libucrtd:nlsdata.obj
 0002:0000f978       ??_C@_17MBGCMIPB@?$AAS?$AAu?$AAn?$AA?$AA@ 000000018007b978     libucrtd:nlsdata.obj
 0002:0000f980       ??_C@_17KBOMKBF@?$AAM?$AAo?$AAn?$AA?$AA@ 000000018007b980     libucrtd:nlsdata.obj
 0002:0000f988       ??_C@_17BMKGEGOJ@?$AAT?$AAu?$AAe?$AA?$AA@ 000000018007b988     libucrtd:nlsdata.obj
 0002:0000f990       ??_C@_17CJEDCEPE@?$AAW?$AAe?$AAd?$AA?$AA@ 000000018007b990     libucrtd:nlsdata.obj
 0002:0000f998       ??_C@_17PDPHAADD@?$AAT?$AAh?$AAu?$AA?$AA@ 000000018007b998     libucrtd:nlsdata.obj
 0002:0000f9a0       ??_C@_17HFOLPPLP@?$AAF?$AAr?$AAi?$AA?$AA@ 000000018007b9a0     libucrtd:nlsdata.obj
 0002:0000f9a8       ??_C@_17GGIBDPIH@?$AAS?$AAa?$AAt?$AA?$AA@ 000000018007b9a8     libucrtd:nlsdata.obj
 0002:0000f9b0       ??_C@_1O@IHNHDHPB@?$AAS?$AAu?$AAn?$AAd?$AAa?$AAy?$AA?$AA@ 000000018007b9b0     libucrtd:nlsdata.obj
 0002:0000f9c0       ??_C@_1O@MMNBFLIA@?$AAM?$AAo?$AAn?$AAd?$AAa?$AAy?$AA?$AA@ 000000018007b9c0     libucrtd:nlsdata.obj
 0002:0000f9d0       ??_C@_1BA@ENFBFFEK@?$AAT?$AAu?$AAe?$AAs?$AAd?$AAa?$AAy?$AA?$AA@ 000000018007b9d0     libucrtd:nlsdata.obj
 0002:0000f9e0       ??_C@_1BE@EBOGMDOH@?$AAW?$AAe?$AAd?$AAn?$AAe?$AAs?$AAd?$AAa?$AAy?$AA?$AA@ 000000018007b9e0     libucrtd:nlsdata.obj
 0002:0000f9f8       ??_C@_1BC@HHMNLIHE@?$AAT?$AAh?$AAu?$AAr?$AAs?$AAd?$AAa?$AAy?$AA?$AA@ 000000018007b9f8     libucrtd:nlsdata.obj
 0002:0000fa10       ??_C@_1O@PDICJHAG@?$AAF?$AAr?$AAi?$AAd?$AAa?$AAy?$AA?$AA@ 000000018007ba10     libucrtd:nlsdata.obj
 0002:0000fa20       ??_C@_1BC@ENMNNPAJ@?$AAS?$AAa?$AAt?$AAu?$AAr?$AAd?$AAa?$AAy?$AA?$AA@ 000000018007ba20     libucrtd:nlsdata.obj
 0002:0000fa38       ??_C@_17DKNBKCHM@?$AAJ?$AAa?$AAn?$AA?$AA@ 000000018007ba38     libucrtd:nlsdata.obj
 0002:0000fa40       ??_C@_17LMDJEKJN@?$AAF?$AAe?$AAb?$AA?$AA@ 000000018007ba40     libucrtd:nlsdata.obj
 0002:0000fa48       ??_C@_17CKNLEDEC@?$AAM?$AAa?$AAr?$AA?$AA@ 000000018007ba48     libucrtd:nlsdata.obj
 0002:0000fa50       ??_C@_17LFPOIHDD@?$AAA?$AAp?$AAr?$AA?$AA@ 000000018007ba50     libucrtd:nlsdata.obj
 0002:0000fa58       ??_C@_17PNNKMEED@?$AAM?$AAa?$AAy?$AA?$AA@ 000000018007ba58     libucrtd:nlsdata.obj
 0002:0000fa60       ??_C@_17KCJGOCPB@?$AAJ?$AAu?$AAn?$AA?$AA@ 000000018007ba60     libucrtd:nlsdata.obj
 0002:0000fa68       ??_C@_17IJPCKHK@?$AAJ?$AAu?$AAl?$AA?$AA@ 000000018007ba68     libucrtd:nlsdata.obj
 0002:0000fa70       ??_C@_17ICPELBCN@?$AAA?$AAu?$AAg?$AA?$AA@ 000000018007ba70     libucrtd:nlsdata.obj
 0002:0000fa78       ??_C@_17HCHCOKMG@?$AAS?$AAe?$AAp?$AA?$AA@ 000000018007ba78     libucrtd:nlsdata.obj
 0002:0000fa80       ??_C@_17FNLKOI@?$AAO?$AAc?$AAt?$AA?$AA@ 000000018007ba80     libucrtd:nlsdata.obj
 0002:0000fa88       ??_C@_17BBDMLCIG@?$AAN?$AAo?$AAv?$AA?$AA@ 000000018007ba88     libucrtd:nlsdata.obj
 0002:0000fa90       ??_C@_17EGKACKIF@?$AAD?$AAe?$AAc?$AA?$AA@ 000000018007ba90     libucrtd:nlsdata.obj
 0002:0000fa98       ??_C@_1BA@EFMEIEBA@?$AAJ?$AAa?$AAn?$AAu?$AAa?$AAr?$AAy?$AA?$AA@ 000000018007ba98     libucrtd:nlsdata.obj
 0002:0000faa8       ??_C@_1BC@JGDDFFAM@?$AAF?$AAe?$AAb?$AAr?$AAu?$AAa?$AAr?$AAy?$AA?$AA@ 000000018007baa8     libucrtd:nlsdata.obj
 0002:0000fac0       ??_C@_1M@IKEENEDF@?$AAM?$AAa?$AAr?$AAc?$AAh?$AA?$AA@ 000000018007bac0     libucrtd:nlsdata.obj
 0002:0000fad0       ??_C@_1M@GJNLMHFD@?$AAA?$AAp?$AAr?$AAi?$AAl?$AA?$AA@ 000000018007bad0     libucrtd:nlsdata.obj
 0002:0000fae0       ??_C@_19EPFLPGAP@?$AAJ?$AAu?$AAn?$AAe?$AA?$AA@ 000000018007bae0     libucrtd:nlsdata.obj
 0002:0000faf0       ??_C@_19BIFMLPCD@?$AAJ?$AAu?$AAl?$AAy?$AA?$AA@ 000000018007baf0     libucrtd:nlsdata.obj
 0002:0000fb00       ??_C@_1O@PAHLKOAC@?$AAA?$AAu?$AAg?$AAu?$AAs?$AAt?$AA?$AA@ 000000018007bb00     libucrtd:nlsdata.obj
 0002:0000fb10       ??_C@_1BE@DKAAMBJL@?$AAS?$AAe?$AAp?$AAt?$AAe?$AAm?$AAb?$AAe?$AAr?$AA?$AA@ 000000018007bb10     libucrtd:nlsdata.obj
 0002:0000fb28       ??_C@_1BA@EPANDLNG@?$AAO?$AAc?$AAt?$AAo?$AAb?$AAe?$AAr?$AA?$AA@ 000000018007bb28     libucrtd:nlsdata.obj
 0002:0000fb38       ??_C@_1BC@BGLIFPF@?$AAN?$AAo?$AAv?$AAe?$AAm?$AAb?$AAe?$AAr?$AA?$AA@ 000000018007bb38     libucrtd:nlsdata.obj
 0002:0000fb50       ??_C@_1BC@FEMKIFH@?$AAD?$AAe?$AAc?$AAe?$AAm?$AAb?$AAe?$AAr?$AA?$AA@ 000000018007bb50     libucrtd:nlsdata.obj
 0002:0000fb64       ??_C@_15ODEHAHHF@?$AAA?$AAM?$AA?$AA@ 000000018007bb64     libucrtd:nlsdata.obj
 0002:0000fb6c       ??_C@_15CLMNNGEL@?$AAP?$AAM?$AA?$AA@ 000000018007bb6c     libucrtd:nlsdata.obj
 0002:0000fb78       ??_C@_1BC@IEBCMHCM@?$AAM?$AAM?$AA?1?$AAd?$AAd?$AA?1?$AAy?$AAy?$AA?$AA@ 000000018007bb78     libucrtd:nlsdata.obj
 0002:0000fb90       ??_C@_1CI@KNAKOEBC@?$AAd?$AAd?$AAd?$AAd?$AA?0?$AA?5?$AAM?$AAM?$AAM?$AAM?$AA?5?$AAd?$AAd?$AA?0?$AA?5?$AAy?$AAy?$AAy?$AAy?$AA?$AA@ 000000018007bb90     libucrtd:nlsdata.obj
 0002:0000fbb8       ??_C@_1BC@GDGBMEMK@?$AAH?$AAH?$AA?3?$AAm?$AAm?$AA?3?$AAs?$AAs?$AA?$AA@ 000000018007bbb8     libucrtd:nlsdata.obj
 0002:0000fbd0       ??_C@_1M@BMHNFIME@?$AAe?$AAn?$AA?9?$AAU?$AAS?$AA?$AA@ 000000018007bbd0     libucrtd:nlsdata.obj
 0002:0000fbe0       __log_256_lead             000000018007bbe0     libucrtd:log_256_lead_tail_table.obj
 0002:000103f0       __log_256_tail             000000018007c3f0     libucrtd:log_256_lead_tail_table.obj
 0002:00010c00       __two_to_jby64_head_table  000000018007cc00     libucrtd:two_to_jby64_head_tail_table.obj
 0002:00010e00       __two_to_jby64_tail_table  000000018007ce00     libucrtd:two_to_jby64_head_tail_table.obj
 0002:000110a0       ??_C@_1EG@CNNIPFIM@?$AAa?$AAp?$AAi?$AA?9?$AAm?$AAs?$AA?9?$AAw?$AAi?$AAn?$AA?9?$AAa?$AAp?$AAp?$AAm?$AAo?$AAd?$AAe?$AAl?$AA?9?$AAr?$AAu?$AAn?$AAt?$AAi?$AAm?$AAe?$AA?9?$AAl?$AA1?$AA?9?$AA1@ 000000018007d0a0     libucrtd:winapi_thunks.obj
 0002:000110f0       ??_C@_1EA@JGEFHKEI@?$AAa?$AAp?$AAi?$AA?9?$AAm?$AAs?$AA?9?$AAw?$AAi?$AAn?$AA?9?$AAc?$AAo?$AAr?$AAe?$AA?9?$AAd?$AAa?$AAt?$AAe?$AAt?$AAi?$AAm?$AAe?$AA?9?$AAl?$AA1?$AA?9?$AA1?$AA?9?$AA1?$AA?$AA@ 000000018007d0f0     libucrtd:winapi_thunks.obj
 0002:00011130       ??_C@_1DI@GCIAAENM@?$AAa?$AAp?$AAi?$AA?9?$AAm?$AAs?$AA?9?$AAw?$AAi?$AAn?$AA?9?$AAc?$AAo?$AAr?$AAe?$AA?9?$AAf?$AAi?$AAl?$AAe?$AA?9?$AAl?$AA2?$AA?9?$AA1?$AA?9?$AA1?$AA?$AA@ 000000018007d130     libucrtd:winapi_thunks.obj
 0002:00011170       ??_C@_1EI@MPIAOHOC@?$AAa?$AAp?$AAi?$AA?9?$AAm?$AAs?$AA?9?$AAw?$AAi?$AAn?$AA?9?$AAc?$AAo?$AAr?$AAe?$AA?9?$AAl?$AAo?$AAc?$AAa?$AAl?$AAi?$AAz?$AAa?$AAt?$AAi?$AAo?$AAn?$AA?9?$AAl?$AA1?$AA?9@ 000000018007d170     libucrtd:winapi_thunks.obj
 0002:000111c0       ??_C@_1FK@FPHCKFIE@?$AAa?$AAp?$AAi?$AA?9?$AAm?$AAs?$AA?9?$AAw?$AAi?$AAn?$AA?9?$AAc?$AAo?$AAr?$AAe?$AA?9?$AAl?$AAo?$AAc?$AAa?$AAl?$AAi?$AAz?$AAa?$AAt?$AAi?$AAo?$AAn?$AA?9?$AAo?$AAb?$AAs@ 000000018007d1c0     libucrtd:winapi_thunks.obj
 0002:00011220       ??_C@_1EM@DILCGIIO@?$AAa?$AAp?$AAi?$AA?9?$AAm?$AAs?$AA?9?$AAw?$AAi?$AAn?$AA?9?$AAc?$AAo?$AAr?$AAe?$AA?9?$AAp?$AAr?$AAo?$AAc?$AAe?$AAs?$AAs?$AAt?$AAh?$AAr?$AAe?$AAa?$AAd?$AAs?$AA?9?$AAl@ 000000018007d220     libucrtd:winapi_thunks.obj
 0002:00011270       ??_C@_1DM@LNCGDDPN@?$AAa?$AAp?$AAi?$AA?9?$AAm?$AAs?$AA?9?$AAw?$AAi?$AAn?$AA?9?$AAc?$AAo?$AAr?$AAe?$AA?9?$AAs?$AAt?$AAr?$AAi?$AAn?$AAg?$AA?9?$AAl?$AA1?$AA?9?$AA1?$AA?9?$AA0?$AA?$AA@ 000000018007d270     libucrtd:winapi_thunks.obj
 0002:000112b0       ??_C@_1DO@FPAPJEMD@?$AAa?$AAp?$AAi?$AA?9?$AAm?$AAs?$AA?9?$AAw?$AAi?$AAn?$AA?9?$AAc?$AAo?$AAr?$AAe?$AA?9?$AAs?$AAy?$AAs?$AAi?$AAn?$AAf?$AAo?$AA?9?$AAl?$AA1?$AA?9?$AA2?$AA?9?$AA1?$AA?$AA@ 000000018007d2b0     libucrtd:winapi_thunks.obj
 0002:000112f0       ??_C@_1DK@NDHNAHIO@?$AAa?$AAp?$AAi?$AA?9?$AAm?$AAs?$AA?9?$AAw?$AAi?$AAn?$AA?9?$AAc?$AAo?$AAr?$AAe?$AA?9?$AAw?$AAi?$AAn?$AAr?$AAt?$AA?9?$AAl?$AA1?$AA?9?$AA1?$AA?9?$AA0?$AA?$AA@ 000000018007d2f0     libucrtd:winapi_thunks.obj
 0002:00011330       ??_C@_1DM@KGHDGBCM@?$AAa?$AAp?$AAi?$AA?9?$AAm?$AAs?$AA?9?$AAw?$AAi?$AAn?$AA?9?$AAc?$AAo?$AAr?$AAe?$AA?9?$AAx?$AAs?$AAt?$AAa?$AAt?$AAe?$AA?9?$AAl?$AA2?$AA?9?$AA1?$AA?9?$AA0?$AA?$AA@ 000000018007d330     libucrtd:winapi_thunks.obj
 0002:00011370       ??_C@_1EO@IJIOEFOH@?$AAa?$AAp?$AAi?$AA?9?$AAm?$AAs?$AA?9?$AAw?$AAi?$AAn?$AA?9?$AAr?$AAt?$AAc?$AAo?$AAr?$AAe?$AA?9?$AAn?$AAt?$AAu?$AAs?$AAe?$AAr?$AA?9?$AAw?$AAi?$AAn?$AAd?$AAo?$AAw?$AA?9@ 000000018007d370     libucrtd:winapi_thunks.obj
 0002:000113c0       ??_C@_1FG@HHGEKANL@?$AAa?$AAp?$AAi?$AA?9?$AAm?$AAs?$AA?9?$AAw?$AAi?$AAn?$AA?9?$AAs?$AAe?$AAc?$AAu?$AAr?$AAi?$AAt?$AAy?$AA?9?$AAs?$AAy?$AAs?$AAt?$AAe?$AAm?$AAf?$AAu?$AAn?$AAc?$AAt?$AAi@ 000000018007d3c0     libucrtd:winapi_thunks.obj
 0002:00011420       ??_C@_1FG@NCKKOLKO@?$AAe?$AAx?$AAt?$AA?9?$AAm?$AAs?$AA?9?$AAw?$AAi?$AAn?$AA?9?$AAk?$AAe?$AAr?$AAn?$AAe?$AAl?$AA3?$AA2?$AA?9?$AAp?$AAa?$AAc?$AAk?$AAa?$AAg?$AAe?$AA?9?$AAc?$AAu?$AAr?$AAr@ 000000018007d420     libucrtd:winapi_thunks.obj
 0002:00011480       ??_C@_1EG@DBIOJECG@?$AAe?$AAx?$AAt?$AA?9?$AAm?$AAs?$AA?9?$AAw?$AAi?$AAn?$AA?9?$AAn?$AAt?$AAu?$AAs?$AAe?$AAr?$AA?9?$AAd?$AAi?$AAa?$AAl?$AAo?$AAg?$AAb?$AAo?$AAx?$AA?9?$AAl?$AA1?$AA?9?$AA1@ 000000018007d480     libucrtd:winapi_thunks.obj
 0002:000114d0       ??_C@_1EO@FIHMJCLF@?$AAe?$AAx?$AAt?$AA?9?$AAm?$AAs?$AA?9?$AAw?$AAi?$AAn?$AA?9?$AAn?$AAt?$AAu?$AAs?$AAe?$AAr?$AA?9?$AAw?$AAi?$AAn?$AAd?$AAo?$AAw?$AAs?$AAt?$AAa?$AAt?$AAi?$AAo?$AAn?$AA?9@ 000000018007d4d0     libucrtd:winapi_thunks.obj
 0002:00011520       ??_C@_1O@BCCLBEOE@?$AAu?$AAs?$AAe?$AAr?$AA3?$AA2?$AA?$AA@ 000000018007d520     libucrtd:winapi_thunks.obj
 0002:00011530       ??_C@_1HE@OILMBOBA@?$AAm?$AAi?$AAn?$AAk?$AAe?$AAr?$AAn?$AAe?$AAl?$AA?2?$AAc?$AAr?$AAt?$AAs?$AA?2?$AAu?$AAc?$AAr?$AAt?$AA?2?$AAs?$AAr?$AAc?$AA?2?$AAa?$AAp?$AAp?$AAc?$AAr?$AAt?$AA?2?$AAi@ 000000018007d530     libucrtd:winapi_thunks.obj
 0002:000115a8       ??_C@_0BA@FHFNEAED@AreFileApisANSI?$AA@ 000000018007d5a8     libucrtd:winapi_thunks.obj
 0002:000115e0       ??_C@_0BA@HNOPNCHB@GetActiveWindow?$AA@ 000000018007d5e0     libucrtd:winapi_thunks.obj
 0002:000115f8       ??_C@_0BE@JOGNEJCI@GetCurrentPackageId?$AA@ 000000018007d5f8     libucrtd:winapi_thunks.obj
 0002:00011618       ??_C@_0BD@HHGDFDBJ@GetLastActivePopup?$AA@ 000000018007d618     libucrtd:winapi_thunks.obj
 0002:00011638       ??_C@_0BI@DFKBFLJE@GetProcessWindowStation?$AA@ 000000018007d638     libucrtd:winapi_thunks.obj
 0002:00011658       ??_C@_0BK@DEKFELLI@GetUserObjectInformationW?$AA@ 000000018007d658     libucrtd:winapi_thunks.obj
 0002:00011688       ??_C@_0O@KKBNKAPF@LCMapStringEx?$AA@ 000000018007d688     libucrtd:winapi_thunks.obj
 0002:000116a0       ??_C@_0BB@HBDEELFH@LocaleNameToLCID?$AA@ 000000018007d6a0     libucrtd:winapi_thunks.obj
 0002:000116c0       ??_C@_0M@CHKKJDAI@MessageBoxA?$AA@ 000000018007d6c0     libucrtd:winapi_thunks.obj
 0002:000116d8       ??_C@_0M@DLDCCGNP@MessageBoxW?$AA@ 000000018007d6d8     libucrtd:winapi_thunks.obj
 0002:000116e8       ??_C@_1DC@JKJAOJNC@?$AAc?$AAa?$AAc?$AAh?$AAe?$AAd?$AA_?$AAs?$AAt?$AAa?$AAt?$AAe?$AA?5?$AA?$DN?$AA?$DN?$AA?5?$AAp?$AAa?$AAc?$AAk?$AAa?$AAg?$AAe?$AAd?$AA?$AA@ 000000018007d6e8     libucrtd:winapi_thunks.obj
 0002:00011720       ??_C@_1DK@JOPMHFDB@?$AAc?$AAa?$AAc?$AAh?$AAe?$AAd?$AA_?$AAs?$AAt?$AAa?$AAt?$AAe?$AA?5?$AA?$DN?$AA?$DN?$AA?5?$AAn?$AAo?$AAt?$AA_?$AAp?$AAa?$AAc?$AAk?$AAa?$AAg?$AAe?$AAd?$AA?$AA@ 000000018007d720     libucrtd:winapi_thunks.obj
 0002:00011780       ??_C@_1M@HPNHIDJI@?$AAj?$AAa?$AA?9?$AAJ?$AAP?$AA?$AA@ 000000018007d780     libucrtd:mbctype.obj
 0002:00011790       ??_C@_1M@BIBDDEMK@?$AAz?$AAh?$AA?9?$AAC?$AAN?$AA?$AA@ 000000018007d790     libucrtd:mbctype.obj
 0002:000117a0       ??_C@_1M@JLOOOEGK@?$AAk?$AAo?$AA?9?$AAK?$AAR?$AA?$AA@ 000000018007d7a0     libucrtd:mbctype.obj
 0002:000117b0       ??_C@_1M@CLNBBOPM@?$AAz?$AAh?$AA?9?$AAT?$AAW?$AA?$AA@ 000000018007d7b0     libucrtd:mbctype.obj
 0002:000117c0       ??_C@_0DE@HGDKNBFD@minkernel?2crts?2ucrt?2src?2appcrt?2m@ 000000018007d7c0     libucrtd:mbctype.obj
 0002:00011800       ??_C@_0ED@BLPEHJAI@minkernel?2crts?2ucrt?2src?2desktopc@ 000000018007d800     libucrtd:get_environment_from_os.obj
 0002:00011850       ??_C@_1GC@GBMDABED@?$AAm?$AAi?$AAn?$AAk?$AAe?$AAr?$AAn?$AAe?$AAl?$AA?2?$AAc?$AAr?$AAt?$AAs?$AA?2?$AAu?$AAc?$AAr?$AAt?$AA?2?$AAs?$AAr?$AAc?$AA?2?$AAa?$AAp?$AAp?$AAc?$AAr?$AAt?$AA?2?$AAs@ 000000018007d850     libucrtd:_sftbuf.obj
 0002:000118b8       ??_C@_0DB@EPIHMFLB@minkernel?2crts?2ucrt?2src?2appcrt?2s@ 000000018007d8b8     libucrtd:_sftbuf.obj
 0002:000118f0       ??_C@_1FO@GEKPJHID@?$AAm?$AAi?$AAn?$AAk?$AAe?$AAr?$AAn?$AAe?$AAl?$AA?2?$AAc?$AAr?$AAt?$AAs?$AA?2?$AAu?$AAc?$AAr?$AAt?$AA?2?$AAs?$AAr?$AAc?$AA?2?$AAa?$AAp?$AAp?$AAc?$AAr?$AAt?$AA?2?$AAh@ 000000018007d8f0     libucrtd:expand.obj
 0002:00011950       ??_C@_1BK@JMCGJOCC@?$AA_?$AAe?$AAx?$AAp?$AAa?$AAn?$AAd?$AA_?$AAb?$AAa?$AAs?$AAe?$AA?$AA@ 000000018007d950     libucrtd:expand.obj
 0002:00011970       ??_C@_1GA@LFAOKOOP@?$AAm?$AAi?$AAn?$AAk?$AAe?$AAr?$AAn?$AAe?$AAl?$AA?2?$AAc?$AAr?$AAt?$AAs?$AA?2?$AAu?$AAc?$AAr?$AAt?$AA?2?$AAs?$AAr?$AAc?$AA?2?$AAa?$AAp?$AAp?$AAc?$AAr?$AAt?$AA?2?$AAm@ 000000018007d970     libucrtd:dbgrptt.obj
 0002:000119d0       ??_C@_1CA@KHJHLKA@?$AA_?$AAV?$AAC?$AAr?$AAt?$AAD?$AAb?$AAg?$AAR?$AAe?$AAp?$AAo?$AAr?$AAt?$AAA?$AA?$AA@ 000000018007d9d0     libucrtd:dbgrptt.obj
 0002:000119f0       ??_C@_1FA@JPHJBHEM@?$AA_?$AAi?$AAt?$AAo?$AAa?$AA_?$AAs?$AA?$CI?$AAn?$AAL?$AAi?$AAn?$AAe?$AA?0?$AA?5?$AAs?$AAz?$AAL?$AAi?$AAn?$AAe?$AAM?$AAe?$AAs?$AAs?$AAa?$AAg?$AAe?$AA?0?$AA?5?$AA4?$AA0@ 000000018007d9f0     libucrtd:dbgrptt.obj
 0002:00011a40       ??_C@_0CG@BNGLOCEO@Second?5Chance?5Assertion?5Failed?3?5@ 000000018007da40     libucrtd:dbgrptt.obj
 0002:00011a68       ??_C@_0P@DFJNDPOP@?$DMfile?5unknown?$DO?$AA@ 000000018007da68     libucrtd:dbgrptt.obj
 0002:00011a78       ??_C@_07BHGABMGB@?0?5Line?5?$AA@ 000000018007da78     libucrtd:dbgrptt.obj
 0002:00011a80       ??_C@_1JI@GAALPGBM@?$AAs?$AAt?$AAr?$AAc?$AAp?$AAy?$AA_?$AAs?$AA?$CI?$AAs?$AAz?$AAU?$AAs?$AAe?$AAr?$AAM?$AAe?$AAs?$AAs?$AAa?$AAg?$AAe?$AA?0?$AA?5?$AA4?$AA0?$AA9?$AA6?$AA?0?$AA?5?$AA?$CC?$AA_@ 000000018007da80     libucrtd:dbgrptt.obj
 0002:00011b18       ??_C@_0CL@EACFGMNB@_CrtDbgReport?3?5String?5too?5long?5o@ 000000018007db18     libucrtd:dbgrptt.obj
 0002:00011b50       ??_C@_1KK@GIGAEDMO@?$AAs?$AAt?$AAr?$AAc?$AAp?$AAy?$AA_?$AAs?$AA?$CI?$AAs?$AAz?$AAL?$AAi?$AAn?$AAe?$AAM?$AAe?$AAs?$AAs?$AAa?$AAg?$AAe?$AA?0?$AA?5?$AA4?$AA0?$AA9?$AA6?$AA?0?$AA?5?$AAs?$AAz@ 000000018007db50     libucrtd:dbgrptt.obj
 0002:00011c00       ??_C@_0BD@CAENFOHP@Assertion?5failed?3?5?$AA@ 000000018007dc00     libucrtd:dbgrptt.obj
 0002:00011c20       ??_C@_1FK@NPGBPOFO@?$AAs?$AAt?$AAr?$AAc?$AAa?$AAt?$AA_?$AAs?$AA?$CI?$AAs?$AAz?$AAL?$AAi?$AAn?$AAe?$AAM?$AAe?$AAs?$AAs?$AAa?$AAg?$AAe?$AA?0?$AA?5?$AA4?$AA0?$AA9?$AA6?$AA?0?$AA?5?$AAs?$AAz@ 000000018007dc20     libucrtd:dbgrptt.obj
 0002:00011c80       ??_C@_1EI@CACDLAFK@?$AAs?$AAt?$AAr?$AAc?$AAa?$AAt?$AA_?$AAs?$AA?$CI?$AAs?$AAz?$AAL?$AAi?$AAn?$AAe?$AAM?$AAe?$AAs?$AAs?$AAa?$AAg?$AAe?$AA?0?$AA?5?$AA4?$AA0?$AA9?$AA6?$AA?0?$AA?5?$AA?$CC?$AA?2@ 000000018007dc80     libucrtd:dbgrptt.obj
 0002:00011cc8       ??_C@_01LIIJDEN@?$AN?$AA@  000000018007dcc8     libucrtd:dbgrptt.obj
 0002:00011cd0       ??_C@_1EI@LDHJEDO@?$AAs?$AAt?$AAr?$AAc?$AAa?$AAt?$AA_?$AAs?$AA?$CI?$AAs?$AAz?$AAL?$AAi?$AAn?$AAe?$AAM?$AAe?$AAs?$AAs?$AAa?$AAg?$AAe?$AA?0?$AA?5?$AA4?$AA0?$AA9?$AA6?$AA?0?$AA?5?$AA?$CC?$AA?2@ 000000018007dcd0     libucrtd:dbgrptt.obj
 0002:00011d18       ??_C@_0M@IPILFDFN@?$CFs?$CI?$CFd?$CJ?5?3?5?$CFs?$AA@ 000000018007dd18     libucrtd:dbgrptt.obj
 0002:00011d30       ??_C@_1JG@CPKCIOEE@?$AAs?$AAt?$AAr?$AAc?$AAp?$AAy?$AA_?$AAs?$AA?$CI?$AAs?$AAz?$AAO?$AAu?$AAt?$AAM?$AAe?$AAs?$AAs?$AAa?$AAg?$AAe?$AA?0?$AA?5?$AA4?$AA0?$AA9?$AA6?$AA?0?$AA?5?$AA?$CC?$AA_?$AAC@ 000000018007dd30     libucrtd:dbgrptt.obj
 0002:00011dd0       ??_C@_1FI@IBIOIHEG@?$AAs?$AAt?$AAr?$AAc?$AAp?$AAy?$AA_?$AAs?$AA?$CI?$AAs?$AAz?$AAO?$AAu?$AAt?$AAM?$AAe?$AAs?$AAs?$AAa?$AAg?$AAe?$AA?0?$AA?5?$AA4?$AA0?$AA9?$AA6?$AA?0?$AA?5?$AAs?$AAz?$AAL@ 000000018007ddd0     libucrtd:dbgrptt.obj
 0002:00011e30       ??_C@_1IM@OOKIFKOH@?$AAe?$AA?5?$AA?$DN?$AA?5?$AAm?$AAb?$AAs?$AAt?$AAo?$AAw?$AAc?$AAs?$AA_?$AAs?$AA?$CI?$AA?$CG?$AAr?$AAe?$AAt?$AA?0?$AA?5?$AAs?$AAz?$AAO?$AAu?$AAt?$AAM?$AAe?$AAs?$AAs?$AAa?$AAg@ 000000018007de30     libucrtd:dbgrptt.obj
 0002:00011ec0       ??_C@_1MC@IGEECMDB@?$AAw?$AAc?$AAs?$AAc?$AAp?$AAy?$AA_?$AAs?$AA?$CI?$AAs?$AAz?$AAO?$AAu?$AAt?$AAM?$AAe?$AAs?$AAs?$AAa?$AAg?$AAe?$AA2?$AA?0?$AA?5?$AA4?$AA0?$AA9?$AA6?$AA?0?$AA?5?$AAL?$AA?$CC@ 000000018007dec0     libucrtd:dbgrptt.obj
 0002:00011f90       ??_C@_1HO@PJOFIKFE@?$AA_?$AAC?$AAr?$AAt?$AAD?$AAb?$AAg?$AAR?$AAe?$AAp?$AAo?$AAr?$AAt?$AA?3?$AA?5?$AAS?$AAt?$AAr?$AAi?$AAn?$AAg?$AA?5?$AAt?$AAo?$AAo?$AA?5?$AAl?$AAo?$AAn?$AAg?$AA?5?$AAo@ 000000018007df90     libucrtd:dbgrptt.obj
 0002:00012010       ??_C@_1CA@HPALHDOD@?$AA_?$AAV?$AAC?$AAr?$AAt?$AAD?$AAb?$AAg?$AAR?$AAe?$AAp?$AAo?$AAr?$AAt?$AAW?$AA?$AA@ 000000018007e010     libucrtd:dbgrptt.obj
 0002:00012030       ??_C@_1FA@CNLLOMHI@?$AA_?$AAi?$AAt?$AAo?$AAw?$AA_?$AAs?$AA?$CI?$AAn?$AAL?$AAi?$AAn?$AAe?$AA?0?$AA?5?$AAs?$AAz?$AAL?$AAi?$AAn?$AAe?$AAM?$AAe?$AAs?$AAs?$AAa?$AAg?$AAe?$AA?0?$AA?5?$AA4?$AA0@ 000000018007e030     libucrtd:dbgrptt.obj
 0002:00012080       ??_C@_1EM@MJFLEDMB@?$AAS?$AAe?$AAc?$AAo?$AAn?$AAd?$AA?5?$AAC?$AAh?$AAa?$AAn?$AAc?$AAe?$AA?5?$AAA?$AAs?$AAs?$AAe?$AAr?$AAt?$AAi?$AAo?$AAn?$AA?5?$AAF?$AAa?$AAi?$AAl?$AAe?$AAd?$AA?3?$AA?5@ 000000018007e080     libucrtd:dbgrptt.obj
 0002:000120d0       ??_C@_1BO@OCHMLCAG@?$AA?$DM?$AAf?$AAi?$AAl?$AAe?$AA?5?$AAu?$AAn?$AAk?$AAn?$AAo?$AAw?$AAn?$AA?$DO?$AA?$AA@ 000000018007e0d0     libucrtd:dbgrptt.obj
 0002:000120f0       ??_C@_1BA@ELMMDCFC@?$AA?0?$AA?5?$AAL?$AAi?$AAn?$AAe?$AA?5?$AA?$AA@ 000000018007e0f0     libucrtd:dbgrptt.obj
 0002:00012100       ??_C@_1JK@KHFABAEO@?$AAw?$AAc?$AAs?$AAc?$AAp?$AAy?$AA_?$AAs?$AA?$CI?$AAs?$AAz?$AAU?$AAs?$AAe?$AAr?$AAM?$AAe?$AAs?$AAs?$AAa?$AAg?$AAe?$AA?0?$AA?5?$AA4?$AA0?$AA9?$AA6?$AA?0?$AA?5?$AAL?$AA?$CC@ 000000018007e100     libucrtd:dbgrptt.obj
 0002:000121a0       ??_C@_1KO@DGAHENCH@?$AAw?$AAc?$AAs?$AAc?$AAp?$AAy?$AA_?$AAs?$AA?$CI?$AAs?$AAz?$AAL?$AAi?$AAn?$AAe?$AAM?$AAe?$AAs?$AAs?$AAa?$AAg?$AAe?$AA?0?$AA?5?$AA4?$AA0?$AA9?$AA6?$AA?0?$AA?5?$AAs?$AAz@ 000000018007e1a0     libucrtd:dbgrptt.obj
 0002:00012250       ??_C@_1CG@FFFGGODN@?$AAA?$AAs?$AAs?$AAe?$AAr?$AAt?$AAi?$AAo?$AAn?$AA?5?$AAf?$AAa?$AAi?$AAl?$AAe?$AAd?$AA?3?$AA?5?$AA?$AA@ 000000018007e250     libucrtd:dbgrptt.obj
 0002:00012280       ??_C@_1FK@HPADHBBD@?$AAw?$AAc?$AAs?$AAc?$AAa?$AAt?$AA_?$AAs?$AA?$CI?$AAs?$AAz?$AAL?$AAi?$AAn?$AAe?$AAM?$AAe?$AAs?$AAs?$AAa?$AAg?$AAe?$AA?0?$AA?5?$AA4?$AA0?$AA9?$AA6?$AA?0?$AA?5?$AAs?$AAz@ 000000018007e280     libucrtd:dbgrptt.obj
 0002:000122e0       ??_C@_1EK@NMDFGHMF@?$AAw?$AAc?$AAs?$AAc?$AAa?$AAt?$AA_?$AAs?$AA?$CI?$AAs?$AAz?$AAL?$AAi?$AAn?$AAe?$AAM?$AAe?$AAs?$AAs?$AAa?$AAg?$AAe?$AA?0?$AA?5?$AA4?$AA0?$AA9?$AA6?$AA?0?$AA?5?$AAL?$AA?$CC@ 000000018007e2e0     libucrtd:dbgrptt.obj
 0002:0001232c       ??_C@_13CMNBPIDO@?$AA?$AN?$AA?$AA@ 000000018007e32c     libucrtd:dbgrptt.obj
 0002:00012330       ??_C@_1EK@PHCBEDKB@?$AAw?$AAc?$AAs?$AAc?$AAa?$AAt?$AA_?$AAs?$AA?$CI?$AAs?$AAz?$AAL?$AAi?$AAn?$AAe?$AAM?$AAe?$AAs?$AAs?$AAa?$AAg?$AAe?$AA?0?$AA?5?$AA4?$AA0?$AA9?$AA6?$AA?0?$AA?5?$AAL?$AA?$CC@ 000000018007e330     libucrtd:dbgrptt.obj
 0002:00012380       ??_C@_1BM@GIBPMLNL@?$AA?$CF?$AAl?$AAs?$AA?$CI?$AA?$CF?$AAd?$AA?$CJ?$AA?5?$AA?3?$AA?5?$AA?$CF?$AAl?$AAs?$AA?$AA@ 000000018007e380     libucrtd:dbgrptt.obj
 0002:000123a0       ??_C@_1JI@EACPGHID@?$AAw?$AAc?$AAs?$AAc?$AAp?$AAy?$AA_?$AAs?$AA?$CI?$AAs?$AAz?$AAO?$AAu?$AAt?$AAM?$AAe?$AAs?$AAs?$AAa?$AAg?$AAe?$AA?0?$AA?5?$AA4?$AA0?$AA9?$AA6?$AA?0?$AA?5?$AAL?$AA?$CC?$AA_@ 000000018007e3a0     libucrtd:dbgrptt.obj
 0002:00012440       ??_C@_1FI@DBAIJPJE@?$AAw?$AAc?$AAs?$AAc?$AAp?$AAy?$AA_?$AAs?$AA?$CI?$AAs?$AAz?$AAO?$AAu?$AAt?$AAM?$AAe?$AAs?$AAs?$AAa?$AAg?$AAe?$AA?0?$AA?5?$AA4?$AA0?$AA9?$AA6?$AA?0?$AA?5?$AAs?$AAz?$AAL@ 000000018007e440     libucrtd:dbgrptt.obj
 0002:000124a0       ??_C@_1IK@LEBMBAP@?$AAw?$AAc?$AAs?$AAt?$AAo?$AAm?$AAb?$AAs?$AA_?$AAs?$AA?$CI?$AAn?$AAu?$AAl?$AAl?$AAp?$AAt?$AAr?$AA?0?$AA?5?$AAs?$AAz?$AAO?$AAu?$AAt?$AAM?$AAe?$AAs?$AAs?$AAa?$AAg?$AAe@ 000000018007e4a0     libucrtd:dbgrptt.obj
 0002:00012530       ??_C@_1MA@LBAMNNOB@?$AAs?$AAt?$AAr?$AAc?$AAp?$AAy?$AA_?$AAs?$AA?$CI?$AAs?$AAz?$AAO?$AAu?$AAt?$AAM?$AAe?$AAs?$AAs?$AAa?$AAg?$AAe?$AA2?$AA?0?$AA?5?$AA4?$AA0?$AA9?$AA6?$AA?0?$AA?5?$AA?$CC?$AA_@ 000000018007e530     libucrtd:dbgrptt.obj
 0002:000125f0       ??_C@_0DP@GNPEPHJD@_CrtDbgReport?3?5String?5too?5long?5o@ 000000018007e5f0     libucrtd:dbgrptt.obj
 0002:00012630       ??_C@_1IE@CPGKIAGP@?$AAw?$AAc?$AAs?$AAt?$AAo?$AAm?$AAb?$AAs?$AA_?$AAs?$AA?$CI?$AA?$CG?$AAr?$AAe?$AAt?$AA?0?$AA?5?$AAs?$AAz?$AAa?$AAO?$AAu?$AAt?$AAM?$AAe?$AAs?$AAs?$AAa?$AAg?$AAe?$AA?0?$AA?5@ 000000018007e630     libucrtd:dbgrptt.obj
 0002:000126c0       ??_C@_1BBC@DECGKMGJ@?$AA_?$AAl?$AAo?$AAc?$AA_?$AAu?$AAp?$AAd?$AAa?$AAt?$AAe?$AA?4?$AAG?$AAe?$AAt?$AAL?$AAo?$AAc?$AAa?$AAl?$AAe?$AAT?$AA?$CI?$AA?$CJ?$AA?9?$AA?$DO?$AAl?$AAo?$AAc?$AAi?$AAn?$AAf@ 000000018007e6c0     libucrtd:mbtowc.obj
 0002:000127e0       ??_C@_1GE@CGIHMDEJ@?$AAm?$AAi?$AAn?$AAk?$AAe?$AAr?$AAn?$AAe?$AAl?$AA?2?$AAc?$AAr?$AAt?$AAs?$AA?2?$AAu?$AAc?$AAr?$AAt?$AA?2?$AAs?$AAr?$AAc?$AA?2?$AAa?$AAp?$AAp?$AAc?$AAr?$AAt?$AA?2?$AAc@ 000000018007e7e0     libucrtd:mbtowc.obj
 0002:00012848       ??_C@_1DK@NBNOAGKB@?$AAd?$AAe?$AAs?$AAt?$AAi?$AAn?$AAa?$AAt?$AAi?$AAo?$AAn?$AA_?$AAc?$AAo?$AAu?$AAn?$AAt?$AA?5?$AA?$DM?$AA?$DN?$AA?5?$AAI?$AAN?$AAT?$AA_?$AAM?$AAA?$AAX?$AA?$AA@ 000000018007e848     libucrtd:wctomb.obj
 0002:00012890       ??_C@_1GE@FCCEPHFG@?$AAm?$AAi?$AAn?$AAk?$AAe?$AAr?$AAn?$AAe?$AAl?$AA?2?$AAc?$AAr?$AAt?$AAs?$AA?2?$AAu?$AAc?$AAr?$AAt?$AA?2?$AAs?$AAr?$AAc?$AA?2?$AAa?$AAp?$AAp?$AAc?$AAr?$AAt?$AA?2?$AAc@ 000000018007e890     libucrtd:wctomb.obj
 0002:000128f8       ??_C@_1BI@IEADNOHF@?$AA_?$AAw?$AAc?$AAt?$AAo?$AAm?$AAb?$AA_?$AAs?$AA_?$AAl?$AA?$AA@ 000000018007e8f8     libucrtd:wctomb.obj
 0002:00012910       ??_C@_1CM@ENFEGCNE@?$AAd?$AAe?$AAs?$AAt?$AAi?$AAn?$AAa?$AAt?$AAi?$AAo?$AAn?$AA_?$AAc?$AAo?$AAu?$AAn?$AAt?$AA?5?$AA?$DO?$AA?5?$AA0?$AA?$AA@ 000000018007e910     libucrtd:wctomb.obj
 0002:00012968       ??_C@_03OEIAHPBN@INF?$AA@  000000018007e968     libucrtd:cvt.obj
 0002:0001296c       ??_C@_03OJHLLCGB@inf?$AA@  000000018007e96c     libucrtd:cvt.obj
 0002:00012970       ??_C@_03LKNCIKJB@NAN?$AA@  000000018007e970     libucrtd:cvt.obj
 0002:00012974       ??_C@_03LHCJEHON@nan?$AA@  000000018007e974     libucrtd:cvt.obj
 0002:00012978       ??_C@_09OFJJIMPC@NAN?$CISNAN?$CJ?$AA@ 000000018007e978     libucrtd:cvt.obj
 0002:00012988       ??_C@_09IPFBKMDL@nan?$CIsnan?$CJ?$AA@ 000000018007e988     libucrtd:cvt.obj
 0002:00012998       ??_C@_08IKHNHAJ@NAN?$CIIND?$CJ?$AA@ 000000018007e998     libucrtd:cvt.obj
 0002:000129a8       ??_C@_08OFCDMILK@nan?$CIind?$CJ?$AA@ 000000018007e9a8     libucrtd:cvt.obj
 0002:000129c0       ??_C@_1FO@GKAKAPLI@?$AAm?$AAi?$AAn?$AAk?$AAe?$AAr?$AAn?$AAe?$AAl?$AA?2?$AAc?$AAr?$AAt?$AAs?$AA?2?$AAu?$AAc?$AAr?$AAt?$AA?2?$AAs?$AAr?$AAc?$AA?2?$AAa?$AAp?$AAp?$AAc?$AAr?$AAt?$AA?2?$AAc@ 000000018007e9c0     libucrtd:cvt.obj
 0002:00012a20       ??_C@_1DE@EHGIGIDK@?$AAf?$AAp?$AA_?$AAf?$AAo?$AAr?$AAm?$AAa?$AAt?$AA_?$AAn?$AAa?$AAn?$AA_?$AAo?$AAr?$AA_?$AAi?$AAn?$AAf?$AAi?$AAn?$AAi?$AAt?$AAy?$AA?$AA@ 000000018007ea20     libucrtd:cvt.obj
 0002:00012a60       ??_C@_1LI@PCMLJPCO@?$AAs?$AAt?$AAr?$AAc?$AAp?$AAy?$AA_?$AAs?$AA?$CI?$AA?5?$AAr?$AAe?$AAs?$AAu?$AAl?$AAt?$AA_?$AAb?$AAu?$AAf?$AAf?$AAe?$AAr?$AA?0?$AA?5?$AAr?$AAe?$AAs?$AAu?$AAl?$AAt?$AA_@ 000000018007ea60     libucrtd:cvt.obj
 0002:00012b20       ??_C@_1KO@LJHOFBCD@?$AAr?$AAe?$AAs?$AAu?$AAl?$AAt?$AA_?$AAb?$AAu?$AAf?$AAf?$AAe?$AAr?$AA_?$AAc?$AAo?$AAu?$AAn?$AAt?$AA?5?$AA?$DO?$AA?5?$AAs?$AAt?$AAa?$AAt?$AAi?$AAc?$AA_?$AAc?$AAa?$AAs@ 000000018007eb20     libucrtd:cvt.obj
 0002:00012bd0       ??_C@_1CK@BOLHOMFO@?$AAf?$AAp?$AA_?$AAf?$AAo?$AAr?$AAm?$AAa?$AAt?$AA_?$AAe?$AA_?$AAi?$AAn?$AAt?$AAe?$AAr?$AAn?$AAa?$AAl?$AA?$AA@ 000000018007ebd0     libucrtd:cvt.obj
 0002:00012c00       ??_C@_1BBA@FHDJNBGM@?$AAs?$AAt?$AAr?$AAc?$AAp?$AAy?$AA_?$AAs?$AA?$CI?$AA?5?$AAp?$AA?0?$AA?5?$AAr?$AAe?$AAs?$AAu?$AAl?$AAt?$AA_?$AAb?$AAu?$AAf?$AAf?$AAe?$AAr?$AA_?$AAc?$AAo?$AAu?$AAn?$AAt@ 000000018007ec00     libucrtd:cvt.obj
 0002:00012d10       ??_C@_05KLBDPFGC@e?$CL000?$AA@ 000000018007ed10     libucrtd:cvt.obj
 0002:00012d20       ??_C@_1IC@FILKPBAB@?$AAr?$AAe?$AAs?$AAu?$AAl?$AAt?$AA_?$AAb?$AAu?$AAf?$AAf?$AAe?$AAr?$AA_?$AAc?$AAo?$AAu?$AAn?$AAt?$AA?5?$AA?$DO?$AA?5?$AAs?$AAt?$AAa?$AAt?$AAi?$AAc?$AA_?$AAc?$AAa?$AAs@ 000000018007ed20     libucrtd:cvt.obj
 0002:00012da8       ??_C@_1BI@PNBDLNBB@?$AAf?$AAp?$AA_?$AAf?$AAo?$AAr?$AAm?$AAa?$AAt?$AA_?$AAa?$AA?$AA@ 000000018007eda8     libucrtd:cvt.obj
 0002:00012dc0       ??_C@_1CC@LDAHJAKK@?$AA_?$AA_?$AAa?$AAc?$AAr?$AAt?$AA_?$AAf?$AAp?$AA_?$AAf?$AAo?$AAr?$AAm?$AAa?$AAt?$AA?$AA@ 000000018007edc0     libucrtd:cvt.obj
 0002:00012de8       ??_C@_1DA@NMLJJOCO@?$AAr?$AAe?$AAs?$AAu?$AAl?$AAt?$AA_?$AAb?$AAu?$AAf?$AAf?$AAe?$AAr?$AA_?$AAc?$AAo?$AAu?$AAn?$AAt?$AA?5?$AA?$DO?$AA?5?$AA0?$AA?$AA@ 000000018007ede8     libucrtd:cvt.obj
 0002:00012e18       ??_C@_1DE@MNOPBCOK@?$AAs?$AAc?$AAr?$AAa?$AAt?$AAc?$AAh?$AA_?$AAb?$AAu?$AAf?$AAf?$AAe?$AAr?$AA?5?$AA?$CB?$AA?$DN?$AA?5?$AAn?$AAu?$AAl?$AAl?$AAp?$AAt?$AAr?$AA?$AA@ 000000018007ee18     libucrtd:cvt.obj
 0002:00012e50       ??_C@_1DC@CKBKNFKH@?$AAs?$AAc?$AAr?$AAa?$AAt?$AAc?$AAh?$AA_?$AAb?$AAu?$AAf?$AAf?$AAe?$AAr?$AA_?$AAc?$AAo?$AAu?$AAn?$AAt?$AA?5?$AA?$DO?$AA?5?$AA0?$AA?$AA@ 000000018007ee50     libucrtd:cvt.obj
 0002:00012e90       ??_C@_1EI@JAHBOGIM@?$AA?$CI?$AA?$CC?$AAU?$AAn?$AAs?$AAu?$AAp?$AAp?$AAo?$AAr?$AAt?$AAe?$AAd?$AA?5?$AAf?$AAo?$AAr?$AAm?$AAa?$AAt?$AA?5?$AAs?$AAp?$AAe?$AAc?$AAi?$AAf?$AAi?$AAe?$AAr?$AA?$CC?$AA?0@ 000000018007ee90     libucrtd:cvt.obj
 0002:00012ed8       ??_C@_1CC@CHNFGJIC@?$AAc?$AAo?$AAm?$AAm?$AAo?$AAn?$AA_?$AAt?$AAc?$AAs?$AAn?$AAc?$AAp?$AAy?$AA_?$AAs?$AA?$AA@ 000000018007eed8     libucrtd:wcsncpy_s.obj
 0002:00012f00       ??_C@_1GA@MPOOLHCO@?$AAm?$AAi?$AAn?$AAk?$AAe?$AAr?$AAn?$AAe?$AAl?$AA?2?$AAc?$AAr?$AAt?$AAs?$AA?2?$AAu?$AAc?$AAr?$AAt?$AA?2?$AAs?$AAr?$AAc?$AA?2?$AAa?$AAp?$AAp?$AAc?$AAr?$AAt?$AA?2?$AAl@ 000000018007ef00     libucrtd:commit.obj
 0002:00012f60       ??_C@_1BA@FLNMBBIM@?$AA_?$AAc?$AAo?$AAm?$AAm?$AAi?$AAt?$AA?$AA@ 000000018007ef60     libucrtd:commit.obj
 0002:00012f70       ??_C@_1FO@CAMPMGCN@?$AAm?$AAi?$AAn?$AAk?$AAe?$AAr?$AAn?$AAe?$AAl?$AA?2?$AAc?$AAr?$AAt?$AAs?$AA?2?$AAu?$AAc?$AAr?$AAt?$AA?2?$AAs?$AAr?$AAc?$AA?2?$AAa?$AAp?$AAp?$AAc?$AAr?$AAt?$AA?2?$AAl@ 000000018007ef70     libucrtd:write.obj
 0002:00012fd0       ??_C@_1O@KOFKDHPL@?$AA_?$AAw?$AAr?$AAi?$AAt?$AAe?$AA?$AA@ 000000018007efd0     libucrtd:write.obj
 0002:00012fe0       ??_C@_1DI@CNMHHHLG@?$AAi?$AAs?$AAl?$AAe?$AAa?$AAd?$AAb?$AAy?$AAt?$AAe?$AA?$CI?$AA_?$AAd?$AAb?$AAc?$AAs?$AAB?$AAu?$AAf?$AAf?$AAe?$AAr?$AA?$CI?$AAf?$AAh?$AA?$CJ?$AA?$CJ?$AA?$AA@ 000000018007efe0     libucrtd:write.obj
 0002:00013018       ??_C@_1BM@NCANHCIP@?$AA_?$AAw?$AAr?$AAi?$AAt?$AAe?$AA_?$AAn?$AAo?$AAl?$AAo?$AAc?$AAk?$AA?$AA@ 000000018007f018     libucrtd:write.obj
 0002:00013038       ??_C@_1CK@CPEAGIIP@?$AAb?$AAu?$AAf?$AAf?$AAe?$AAr?$AA_?$AAs?$AAi?$AAz?$AAe?$AA?5?$AA?$CF?$AA?5?$AA2?$AA?5?$AA?$DN?$AA?$DN?$AA?5?$AA0?$AA?$AA@ 000000018007f038     libucrtd:write.obj
 0002:00013068       ??_C@_1BO@GCPMHDON@?$AAd?$AAs?$AAt?$AA?5?$AA?$CB?$AA?$DN?$AA?5?$AAn?$AAu?$AAl?$AAl?$AAp?$AAt?$AAr?$AA?$AA@ 000000018007f068     libucrtd:strnicmp.obj
 0002:00013090       ??_C@_1GG@FIFJEMIA@?$AAm?$AAi?$AAn?$AAk?$AAe?$AAr?$AAn?$AAe?$AAl?$AA?2?$AAc?$AAr?$AAt?$AAs?$AA?2?$AAu?$AAc?$AAr?$AAt?$AA?2?$AAs?$AAr?$AAc?$AA?2?$AAa?$AAp?$AAp?$AAc?$AAr?$AAt?$AA?2?$AAs@ 000000018007f090     libucrtd:strnicmp.obj
 0002:000130f8       ??_C@_1BI@BJLEPLEF@?$AA_?$AAs?$AAt?$AAr?$AAn?$AAi?$AAc?$AAm?$AAp?$AA_?$AAl?$AA?$AA@ 000000018007f0f8     libucrtd:strnicmp.obj
 0002:00013110       ??_C@_1BO@NEBGDLJE@?$AAs?$AAr?$AAc?$AA?5?$AA?$CB?$AA?$DN?$AA?5?$AAn?$AAu?$AAl?$AAl?$AAp?$AAt?$AAr?$AA?$AA@ 000000018007f110     libucrtd:strnicmp.obj
 0002:00013130       ??_C@_1CC@JLPHKJPH@?$AAc?$AAo?$AAu?$AAn?$AAt?$AA?5?$AA?$DM?$AA?$DN?$AA?5?$AAI?$AAN?$AAT?$AA_?$AAM?$AAA?$AAX?$AA?$AA@ 000000018007f130     libucrtd:strnicmp.obj
 0002:00013158       ??_C@_1BE@BHJDFFNA@?$AA_?$AAs?$AAt?$AAr?$AAn?$AAi?$AAc?$AAm?$AAp?$AA?$AA@ 000000018007f158     libucrtd:strnicmp.obj
 0002:00013170       ??_C@_1DC@MDAAFACM@?$AA?$CI?$AA?$CC?$AAI?$AAn?$AAv?$AAa?$AAl?$AAi?$AAd?$AA?5?$AAo?$AAp?$AAe?$AAn?$AA?5?$AAf?$AAl?$AAa?$AAg?$AA?$CC?$AA?0?$AA?5?$AA0?$AA?$CJ?$AA?$AA@ 000000018007f170     libucrtd:open.obj
 0002:000131b0       ??_C@_1FM@EFELGMIP@?$AAm?$AAi?$AAn?$AAk?$AAe?$AAr?$AAn?$AAe?$AAl?$AA?2?$AAc?$AAr?$AAt?$AAs?$AA?2?$AAu?$AAc?$AAr?$AAt?$AA?2?$AAs?$AAr?$AAc?$AA?2?$AAa?$AAp?$AAp?$AAc?$AAr?$AAt?$AA?2?$AAl@ 000000018007f1b0     libucrtd:open.obj
 0002:00013210       ??_C@_1CI@CBNKIJOA@?$AAd?$AAe?$AAc?$AAo?$AAd?$AAe?$AA_?$AAa?$AAc?$AAc?$AAe?$AAs?$AAs?$AA_?$AAf?$AAl?$AAa?$AAg?$AAs?$AA?$AA@ 000000018007f210     libucrtd:open.obj
 0002:00013238       ??_C@_1DC@MNGJFJEL@?$AAd?$AAe?$AAc?$AAo?$AAd?$AAe?$AA_?$AAo?$AAp?$AAe?$AAn?$AA_?$AAc?$AAr?$AAe?$AAa?$AAt?$AAe?$AA_?$AAf?$AAl?$AAa?$AAg?$AAs?$AA?$AA@ 000000018007f238     libucrtd:open.obj
 0002:00013270       ??_C@_1DI@OAOBKLOM@?$AA?$CI?$AA?$CC?$AAI?$AAn?$AAv?$AAa?$AAl?$AAi?$AAd?$AA?5?$AAs?$AAh?$AAa?$AAr?$AAi?$AAn?$AAg?$AA?5?$AAf?$AAl?$AAa?$AAg?$AA?$CC?$AA?0?$AA?5?$AA0?$AA?$CJ?$AA?$AA@ 000000018007f270     libucrtd:open.obj
 0002:000132a8       ??_C@_1CK@LFHOGGAL@?$AAd?$AAe?$AAc?$AAo?$AAd?$AAe?$AA_?$AAs?$AAh?$AAa?$AAr?$AAi?$AAn?$AAg?$AA_?$AAf?$AAl?$AAa?$AAg?$AAs?$AA?$AA@ 000000018007f2a8     libucrtd:open.obj
 0002:000132d8       ??_C@_1BK@MIHMAFGB@?$AAi?$AAs?$AA_?$AAt?$AAe?$AAx?$AAt?$AA_?$AAm?$AAo?$AAd?$AAe?$AA?$AA@ 000000018007f2d8     libucrtd:open.obj
 0002:000132f8       ??_C@_1CG@ICBEBDJJ@?$AA_?$AAg?$AAe?$AAt?$AA_?$AAf?$AAm?$AAo?$AAd?$AAe?$AA?$CI?$AA?$CG?$AAf?$AAm?$AAo?$AAd?$AAe?$AA?$CJ?$AA?$AA@ 000000018007f2f8     libucrtd:open.obj
 0002:00013320       ??_C@_1CI@FIBMFMKJ@?$AAc?$AAo?$AAn?$AAf?$AAi?$AAg?$AAu?$AAr?$AAe?$AA_?$AAt?$AAe?$AAx?$AAt?$AA_?$AAm?$AAo?$AAd?$AAe?$AA?$AA@ 000000018007f320     libucrtd:open.obj
 0002:00013348       ??_C@_1DM@GAGCJPHI@?$AA?$CI?$AAo?$AAf?$AAl?$AAa?$AAg?$AA?5?$AA?$CG?$AA?5?$AAt?$AAe?$AAx?$AAt?$AA_?$AAm?$AAo?$AAd?$AAe?$AA_?$AAm?$AAa?$AAs?$AAk?$AA?$CJ?$AA?5?$AA?$CB?$AA?$DN?$AA?5?$AA0?$AA?$AA@ 000000018007f348     libucrtd:open.obj
 0002:00013388       ??_C@_1CM@IDLMKMPG@?$AA0?$AA?5?$AA?$CG?$AA?$CG?$AA?5?$AA?$CC?$AAI?$AAn?$AAt?$AAe?$AAr?$AAn?$AAa?$AAl?$AA?5?$AAE?$AAr?$AAr?$AAo?$AAr?$AA?$CC?$AA?$AA@ 000000018007f388     libucrtd:open.obj
 0002:000133c0       ??_C@_1IA@IENOJNJF@?$AA0?$AA?5?$AA?$CG?$AA?$CG?$AA?5?$AA?$CC?$AAO?$AAn?$AAl?$AAy?$AA?5?$AAU?$AAT?$AAF?$AA?9?$AA1?$AA6?$AA?5?$AAl?$AAi?$AAt?$AAt?$AAl?$AAe?$AA?5?$AAe?$AAn?$AAd?$AAi?$AAa?$AAn?$AA?5@ 000000018007f3c0     libucrtd:open.obj
 0002:00013440       ??_C@_1CA@DFHJGMAL@?$AAp?$AAa?$AAt?$AAh?$AA?5?$AA?$CB?$AA?$DN?$AA?5?$AAn?$AAu?$AAl?$AAl?$AAp?$AAt?$AAr?$AA?$AA@ 000000018007f440     libucrtd:open.obj
 0002:00013460       ??_C@_1BO@CKEBPLGM@?$AAp?$AAf?$AAh?$AA?5?$AA?$CB?$AA?$DN?$AA?5?$AAn?$AAu?$AAl?$AAl?$AAp?$AAt?$AAr?$AA?$AA@ 000000018007f460     libucrtd:open.obj
 0002:00013480       ??_C@_1CM@DJGGMBLF@?$AAc?$AAo?$AAm?$AAm?$AAo?$AAn?$AA_?$AAs?$AAo?$AAp?$AAe?$AAn?$AA_?$AAd?$AAi?$AAs?$AAp?$AAa?$AAt?$AAc?$AAh?$AA?$AA@ 000000018007f480     libucrtd:open.obj
 0002:000134b0       ??_C@_1FC@KMHFBDGJ@?$AA?$CI?$AAp?$AAm?$AAo?$AAd?$AAe?$AA?5?$AA?$CG?$AA?5?$AA?$CI?$AA?$HO?$AA?$CI?$AA_?$AAS?$AA_?$AAI?$AAR?$AAE?$AAA?$AAD?$AA?5?$AA?$HM?$AA?5?$AA_?$AAS?$AA_?$AAI?$AAW?$AAR?$AAI?$AAT?$AAE@ 000000018007f4b0     libucrtd:open.obj
 0002:00013508       ??_C@_0DB@JFFPGLDM@minkernel?2crts?2ucrt?2src?2appcrt?2l@ 000000018007f508     libucrtd:osfinfo.obj
 0002:00013540       ??_C@_1EM@BPODPNEJ@?$AAs?$AAt?$AAa?$AAt?$AAi?$AAc?$AA_?$AAc?$AAa?$AAs?$AAt?$AA?$DM?$AAu?$AAn?$AAs?$AAi?$AAg?$AAn?$AAe?$AAd?$AA?$DO?$AA?$CI?$AAf?$AAh?$AA?$CJ?$AA?5?$AA?$DM?$AA?5?$AA_?$AAN?$AAH?$AAA@ 000000018007f540     libucrtd:osfinfo.obj
 0002:00013590       ??_C@_1GC@LDGKBAFM@?$AAm?$AAi?$AAn?$AAk?$AAe?$AAr?$AAn?$AAe?$AAl?$AA?2?$AAc?$AAr?$AAt?$AAs?$AA?2?$AAu?$AAc?$AAr?$AAt?$AA?2?$AAs?$AAr?$AAc?$AA?2?$AAa?$AAp?$AAp?$AAc?$AAr?$AAt?$AA?2?$AAl@ 000000018007f590     libucrtd:osfinfo.obj
 0002:000135f8       ??_C@_1DM@JELNOMLN@?$AA_?$AA_?$AAa?$AAc?$AAr?$AAt?$AA_?$AAl?$AAo?$AAw?$AAi?$AAo?$AA_?$AAe?$AAn?$AAs?$AAu?$AAr?$AAe?$AA_?$AAf?$AAh?$AA_?$AAe?$AAx?$AAi?$AAs?$AAt?$AAs?$AA?$AA@ 000000018007f5f8     libucrtd:osfinfo.obj
 0002:00013638       ??_C@_1BO@EMBOBGKE@?$AA_?$AAg?$AAe?$AAt?$AA_?$AAo?$AAs?$AAf?$AAh?$AAa?$AAn?$AAd?$AAl?$AAe?$AA?$AA@ 000000018007f638     libucrtd:osfinfo.obj
 0002:00013660       ??_C@_1GA@DEPMKPD@?$AAm?$AAi?$AAn?$AAk?$AAe?$AAr?$AAn?$AAe?$AAl?$AA?2?$AAc?$AAr?$AAt?$AAs?$AA?2?$AAu?$AAc?$AAr?$AAt?$AA?2?$AAs?$AAr?$AAc?$AA?2?$AAa?$AAp?$AAp?$AAc?$AAr?$AAt?$AA?2?$AAl@ 000000018007f660     libucrtd:isatty.obj
 0002:000136c0       ??_C@_1BA@LEBDGIHM@?$AA_?$AAi?$AAs?$AAa?$AAt?$AAt?$AAy?$AA?$AA@ 000000018007f6c0     libucrtd:isatty.obj
 0002:000136d0       ??_C@_1GC@DLDMJFMI@?$AAm?$AAi?$AAn?$AAk?$AAe?$AAr?$AAn?$AAe?$AAl?$AA?2?$AAc?$AAr?$AAt?$AAs?$AA?2?$AAu?$AAc?$AAr?$AAt?$AA?2?$AAs?$AAr?$AAc?$AA?2?$AAa?$AAp?$AAp?$AAc?$AAr?$AAt?$AA?2?$AAs@ 000000018007f6d0     libucrtd:_getbuf.obj
 0002:00013738       ??_C@_0DB@LKJPMJPL@minkernel?2crts?2ucrt?2src?2appcrt?2s@ 000000018007f738     libucrtd:_getbuf.obj
 0002:00013780       __newctype                 000000018007f780     libucrtd:ctype.obj
 0002:00013a80       __newclmap                 000000018007fa80     libucrtd:ctype.obj
 0002:00013c00       __newcumap                 000000018007fc00     libucrtd:ctype.obj
 0002:00013d80       _wctype                    000000018007fd80     libucrtd:ctype.obj
 0002:00013f90       ??_C@_1FE@KNPCCODH@?$AA?$CI?$AA?$CC?$AAC?$AAo?$AAr?$AAr?$AAu?$AAp?$AAt?$AAe?$AAd?$AA?5?$AAp?$AAo?$AAi?$AAn?$AAt?$AAe?$AAr?$AA?5?$AAp?$AAa?$AAs?$AAs?$AAe?$AAd?$AA?5?$AAt?$AAo?$AA?5?$AA_?$AAf@ 000000018007ff90     libucrtd:getstringtypea.obj
 0002:00013ff0       ??_C@_1HG@NGPLHMCI@?$AAm?$AAi?$AAn?$AAk?$AAe?$AAr?$AAn?$AAe?$AAl?$AA?2?$AAc?$AAr?$AAt?$AAs?$AA?2?$AAu?$AAc?$AAr?$AAt?$AA?2?$AAd?$AAe?$AAv?$AAd?$AAi?$AAv?$AA?2?$AAv?$AAc?$AAr?$AAu?$AAn@ 000000018007fff0     libucrtd:getstringtypea.obj
 0002:00014068       ??_C@_0DJ@HCPJODDK@minkernel?2crts?2ucrt?2src?2appcrt?2l@ 0000000180080068     libucrtd:getstringtypea.obj
 0002:000140b0       ??_C@_1BKC@NBNHJIDM@?$AA?$CI?$AAp?$AAt?$AAl?$AAo?$AAc?$AAi?$AA?9?$AA?$DO?$AAl?$AAc?$AA_?$AAc?$AAa?$AAt?$AAe?$AAg?$AAo?$AAr?$AAy?$AA?$FL?$AAc?$AAa?$AAt?$AAe?$AAg?$AAo?$AAr?$AAy?$AA?$FN?$AA?4?$AAl@ 00000001800800b0     libucrtd:locale_refcounting.obj
 0002:00014260       ??_C@_1HK@HCNMEOLA@?$AAm?$AAi?$AAn?$AAk?$AAe?$AAr?$AAn?$AAe?$AAl?$AA?2?$AAc?$AAr?$AAt?$AAs?$AA?2?$AAu?$AAc?$AAr?$AAt?$AA?2?$AAs?$AAr?$AAc?$AA?2?$AAa?$AAp?$AAp?$AAc?$AAr?$AAt?$AA?2?$AAl@ 0000000180080260     libucrtd:locale_refcounting.obj
 0002:000142dc       ??_C@_15PJPFLCCM@?$AAu?$AAk?$AA?$AA@ 00000001800802dc     libucrtd:get_qualified_locale.obj
 0002:000142e8       ??_C@_1BG@NDGMJIMJ@?$AAu?$AAz?$AA?9?$AAU?$AAZ?$AA?9?$AAL?$AAa?$AAt?$AAn?$AA?$AA@ 00000001800802e8     libucrtd:lcidtoname_downlevel.obj
 0002:00014300       ??_C@_1M@IDCCIHBC@?$AAt?$AAt?$AA?9?$AAR?$AAU?$AA?$AA@ 0000000180080300     libucrtd:lcidtoname_downlevel.obj
 0002:00014310       ??_C@_1M@LOICPMOJ@?$AAb?$AAn?$AA?9?$AAI?$AAN?$AA?$AA@ 0000000180080310     libucrtd:lcidtoname_downlevel.obj
 0002:00014320       ??_C@_1M@KPKKNEAH@?$AAp?$AAa?$AA?9?$AAI?$AAN?$AA?$AA@ 0000000180080320     libucrtd:lcidtoname_downlevel.obj
 0002:00014330       ??_C@_1M@PJGPPBOG@?$AAg?$AAu?$AA?9?$AAI?$AAN?$AA?$AA@ 0000000180080330     libucrtd:lcidtoname_downlevel.obj
 0002:00014340       ??_C@_1M@KMKMOPHI@?$AAt?$AAa?$AA?9?$AAI?$AAN?$AA?$AA@ 0000000180080340     libucrtd:lcidtoname_downlevel.obj
 0002:00014350       ??_C@_1M@KFEHEPAC@?$AAt?$AAe?$AA?9?$AAI?$AAN?$AA?$AA@ 0000000180080350     libucrtd:lcidtoname_downlevel.obj
 0002:00014360       ??_C@_1M@CDCLMGHI@?$AAk?$AAn?$AA?9?$AAI?$AAN?$AA?$AA@ 0000000180080360     libucrtd:lcidtoname_downlevel.obj
 0002:00014370       ??_C@_1M@MIODLDKF@?$AAm?$AAl?$AA?9?$AAI?$AAN?$AA?$AA@ 0000000180080370     libucrtd:lcidtoname_downlevel.obj
 0002:00014380       ??_C@_1M@PBIEACPO@?$AAm?$AAr?$AA?9?$AAI?$AAN?$AA?$AA@ 0000000180080380     libucrtd:lcidtoname_downlevel.obj
 0002:00014390       ??_C@_1M@NIDEAGPH@?$AAs?$AAa?$AA?9?$AAI?$AAN?$AA?$AA@ 0000000180080390     libucrtd:lcidtoname_downlevel.obj
 0002:000143a0       ??_C@_1M@FHIHCBIO@?$AAm?$AAn?$AA?9?$AAM?$AAN?$AA?$AA@ 00000001800803a0     libucrtd:lcidtoname_downlevel.obj
 0002:000143b0       ??_C@_1M@JAIJPENP@?$AAc?$AAy?$AA?9?$AAG?$AAB?$AA?$AA@ 00000001800803b0     libucrtd:lcidtoname_downlevel.obj
 0002:000143c0       ??_C@_1M@PHGFBEPN@?$AAg?$AAl?$AA?9?$AAE?$AAS?$AA?$AA@ 00000001800803c0     libucrtd:lcidtoname_downlevel.obj
 0002:000143d0       ??_C@_1O@KPIPDNCP@?$AAk?$AAo?$AAk?$AA?9?$AAI?$AAN?$AA?$AA@ 00000001800803d0     libucrtd:lcidtoname_downlevel.obj
 0002:000143e0       ??_C@_1O@KNHJLDJA@?$AAs?$AAy?$AAr?$AA?9?$AAS?$AAY?$AA?$AA@ 00000001800803e0     libucrtd:lcidtoname_downlevel.obj
 0002:000143f0       ??_C@_1O@MKEKBLAH@?$AAd?$AAi?$AAv?$AA?9?$AAM?$AAV?$AA?$AA@ 00000001800803f0     libucrtd:lcidtoname_downlevel.obj
 0002:00014400       ??_C@_1O@OHDCKDDF@?$AAq?$AAu?$AAz?$AA?9?$AAB?$AAO?$AA?$AA@ 0000000180080400     libucrtd:lcidtoname_downlevel.obj
 0002:00014410       ??_C@_1M@LEPJNLFD@?$AAn?$AAs?$AA?9?$AAZ?$AAA?$AA?$AA@ 0000000180080410     libucrtd:lcidtoname_downlevel.obj
 0002:00014420       ??_C@_1M@OMLEIIJB@?$AAm?$AAi?$AA?9?$AAN?$AAZ?$AA?$AA@ 0000000180080420     libucrtd:lcidtoname_downlevel.obj
 0002:00014430       ??_C@_1M@PMPEAILG@?$AAa?$AAr?$AA?9?$AAI?$AAQ?$AA?$AA@ 0000000180080430     libucrtd:lcidtoname_downlevel.obj
 0002:00014440       ??_C@_1M@CNKPNOEE@?$AAd?$AAe?$AA?9?$AAC?$AAH?$AA?$AA@ 0000000180080440     libucrtd:lcidtoname_downlevel.obj
 0002:00014450       ??_C@_1M@LKMGMLKO@?$AAe?$AAn?$AA?9?$AAG?$AAB?$AA?$AA@ 0000000180080450     libucrtd:lcidtoname_downlevel.obj
 0002:00014460       ??_C@_1M@PGKJFFGL@?$AAe?$AAs?$AA?9?$AAM?$AAX?$AA?$AA@ 0000000180080460     libucrtd:lcidtoname_downlevel.obj
 0002:00014470       ??_C@_1M@DNNANBDC@?$AAf?$AAr?$AA?9?$AAB?$AAE?$AA?$AA@ 0000000180080470     libucrtd:lcidtoname_downlevel.obj
 0002:00014480       ??_C@_1M@HLGMDFHM@?$AAi?$AAt?$AA?9?$AAC?$AAH?$AA?$AA@ 0000000180080480     libucrtd:lcidtoname_downlevel.obj
 0002:00014490       ??_C@_1M@CLLBGJH@?$AAn?$AAl?$AA?9?$AAB?$AAE?$AA?$AA@ 0000000180080490     libucrtd:lcidtoname_downlevel.obj
 0002:000144a0       ??_C@_1M@BODBOGLF@?$AAn?$AAn?$AA?9?$AAN?$AAO?$AA?$AA@ 00000001800804a0     libucrtd:lcidtoname_downlevel.obj
 0002:000144b0       ??_C@_1M@HFFAHKAD@?$AAp?$AAt?$AA?9?$AAP?$AAT?$AA?$AA@ 00000001800804b0     libucrtd:lcidtoname_downlevel.obj
 0002:000144c0       ??_C@_1BG@LNOAKHIE@?$AAs?$AAr?$AA?9?$AAS?$AAP?$AA?9?$AAL?$AAa?$AAt?$AAn?$AA?$AA@ 00000001800804c0     libucrtd:lcidtoname_downlevel.obj
 0002:000144d8       ??_C@_1M@HBMHBGAK@?$AAs?$AAv?$AA?9?$AAF?$AAI?$AA?$AA@ 00000001800804d8     libucrtd:lcidtoname_downlevel.obj
 0002:000144e8       ??_C@_1BG@DGCJGJBE@?$AAa?$AAz?$AA?9?$AAA?$AAZ?$AA?9?$AAC?$AAy?$AAr?$AAl?$AA?$AA@ 00000001800804e8     libucrtd:lcidtoname_downlevel.obj
 0002:00014500       ??_C@_1M@KEJDAAHB@?$AAs?$AAe?$AA?9?$AAS?$AAE?$AA?$AA@ 0000000180080500     libucrtd:lcidtoname_downlevel.obj
 0002:00014510       ??_C@_1M@HEIBJJAD@?$AAm?$AAs?$AA?9?$AAB?$AAN?$AA?$AA@ 0000000180080510     libucrtd:lcidtoname_downlevel.obj
 0002:00014520       ??_C@_1BG@PBGJMCEM@?$AAu?$AAz?$AA?9?$AAU?$AAZ?$AA?9?$AAC?$AAy?$AAr?$AAl?$AA?$AA@ 0000000180080520     libucrtd:lcidtoname_downlevel.obj
 0002:00014538       ??_C@_1O@LAOBCMDF@?$AAq?$AAu?$AAz?$AA?9?$AAE?$AAC?$AA?$AA@ 0000000180080538     libucrtd:lcidtoname_downlevel.obj
 0002:00014548       ??_C@_1M@POEEMAIO@?$AAa?$AAr?$AA?9?$AAE?$AAG?$AA?$AA@ 0000000180080548     libucrtd:lcidtoname_downlevel.obj
 0002:00014558       ??_C@_1M@EFAKDEDL@?$AAz?$AAh?$AA?9?$AAH?$AAK?$AA?$AA@ 0000000180080558     libucrtd:lcidtoname_downlevel.obj
 0002:00014568       ??_C@_1M@HKKIJHGI@?$AAd?$AAe?$AA?9?$AAA?$AAT?$AA?$AA@ 0000000180080568     libucrtd:lcidtoname_downlevel.obj
 0002:00014578       ??_C@_1M@KBFBEHJF@?$AAe?$AAn?$AA?9?$AAA?$AAU?$AA?$AA@ 0000000180080578     libucrtd:lcidtoname_downlevel.obj
 0002:00014588       ??_C@_1M@MNPLFAAH@?$AAe?$AAs?$AA?9?$AAE?$AAS?$AA?$AA@ 0000000180080588     libucrtd:lcidtoname_downlevel.obj
 0002:00014598       ??_C@_1M@HJOOJFMA@?$AAf?$AAr?$AA?9?$AAC?$AAA?$AA?$AA@ 0000000180080598     libucrtd:lcidtoname_downlevel.obj
 0002:000145a8       ??_C@_1BG@JPOFPNAB@?$AAs?$AAr?$AA?9?$AAS?$AAP?$AA?9?$AAC?$AAy?$AAr?$AAl?$AA?$AA@ 00000001800805a8     libucrtd:lcidtoname_downlevel.obj
 0002:000145c0       ??_C@_1M@LNFOCMOB@?$AAs?$AAe?$AA?9?$AAF?$AAI?$AA?$AA@ 00000001800805c0     libucrtd:lcidtoname_downlevel.obj
 0002:000145d0       ??_C@_1O@MGJBOAMB@?$AAq?$AAu?$AAz?$AA?9?$AAP?$AAE?$AA?$AA@ 00000001800805d0     libucrtd:lcidtoname_downlevel.obj
 0002:000145e0       ??_C@_1M@GJINLBOK@?$AAa?$AAr?$AA?9?$AAL?$AAY?$AA?$AA@ 00000001800805e0     libucrtd:lcidtoname_downlevel.obj
 0002:000145f0       ??_C@_1M@GGMNHJNL@?$AAz?$AAh?$AA?9?$AAS?$AAG?$AA?$AA@ 00000001800805f0     libucrtd:lcidtoname_downlevel.obj
 0002:00014600       ??_C@_1M@HOIKODND@?$AAd?$AAe?$AA?9?$AAL?$AAU?$AA?$AA@ 0000000180080600     libucrtd:lcidtoname_downlevel.obj
 0002:00014610       ??_C@_1M@DDOCCGFG@?$AAe?$AAn?$AA?9?$AAC?$AAA?$AA?$AA@ 0000000180080610     libucrtd:lcidtoname_downlevel.obj
 0002:00014620       ??_C@_1M@BNOEMJLF@?$AAe?$AAs?$AA?9?$AAG?$AAT?$AA?$AA@ 0000000180080620     libucrtd:lcidtoname_downlevel.obj
 0002:00014630       ??_C@_1M@EOGNKEK@?$AAf?$AAr?$AA?9?$AAC?$AAH?$AA?$AA@ 0000000180080630     libucrtd:lcidtoname_downlevel.obj
 0002:00014640       ??_C@_1M@FLIDJFHL@?$AAh?$AAr?$AA?9?$AAB?$AAA?$AA?$AA@ 0000000180080640     libucrtd:lcidtoname_downlevel.obj
 0002:00014650       ??_C@_1O@FMCELNAJ@?$AAs?$AAm?$AAj?$AA?9?$AAN?$AAO?$AA?$AA@ 0000000180080650     libucrtd:lcidtoname_downlevel.obj
 0002:00014660       ??_C@_1M@JHGLJMGJ@?$AAa?$AAr?$AA?9?$AAD?$AAZ?$AA?$AA@ 0000000180080660     libucrtd:lcidtoname_downlevel.obj
 0002:00014670       ??_C@_1M@JKKFDCNP@?$AAz?$AAh?$AA?9?$AAM?$AAO?$AA?$AA@ 0000000180080670     libucrtd:lcidtoname_downlevel.obj
 0002:00014680       ??_C@_1M@GEEFALPE@?$AAd?$AAe?$AA?9?$AAL?$AAI?$AA?$AA@ 0000000180080680     libucrtd:lcidtoname_downlevel.obj
 0002:00014690       ??_C@_1M@IGEOFBG@?$AAe?$AAn?$AA?9?$AAN?$AAZ?$AA?$AA@ 0000000180080690     libucrtd:lcidtoname_downlevel.obj
 0002:000146a0       ??_C@_1M@KDBONEHP@?$AAe?$AAs?$AA?9?$AAC?$AAR?$AA?$AA@ 00000001800806a0     libucrtd:lcidtoname_downlevel.obj
 0002:000146b0       ??_C@_1M@FHMDOHNN@?$AAf?$AAr?$AA?9?$AAL?$AAU?$AA?$AA@ 00000001800806b0     libucrtd:lcidtoname_downlevel.obj
 0002:000146c0       ??_C@_1BG@NFKKMAFG@?$AAb?$AAs?$AA?9?$AAB?$AAA?$AA?9?$AAL?$AAa?$AAt?$AAn?$AA?$AA@ 00000001800806c0     libucrtd:lcidtoname_downlevel.obj
 0002:000146d8       ??_C@_1O@IMNBEMCI@?$AAs?$AAm?$AAj?$AA?9?$AAS?$AAE?$AA?$AA@ 00000001800806d8     libucrtd:lcidtoname_downlevel.obj
 0002:000146e8       ??_C@_1M@DHHMBNDP@?$AAa?$AAr?$AA?9?$AAM?$AAA?$AA?$AA@ 00000001800806e8     libucrtd:lcidtoname_downlevel.obj
 0002:000146f8       ??_C@_1M@BNBLJCGH@?$AAe?$AAn?$AA?9?$AAI?$AAE?$AA?$AA@ 00000001800806f8     libucrtd:lcidtoname_downlevel.obj
 0002:00014708       ??_C@_1M@GEPAFMDL@?$AAe?$AAs?$AA?9?$AAP?$AAA?$AA?$AA@ 0000000180080708     libucrtd:lcidtoname_downlevel.obj
 0002:00014718       ??_C@_1M@OJONDMDL@?$AAf?$AAr?$AA?9?$AAM?$AAC?$AA?$AA@ 0000000180080718     libucrtd:lcidtoname_downlevel.obj
 0002:00014728       ??_C@_1BG@OBCNFJB@?$AAs?$AAr?$AA?9?$AAB?$AAA?$AA?9?$AAL?$AAa?$AAt?$AAn?$AA?$AA@ 0000000180080728     libucrtd:lcidtoname_downlevel.obj
 0002:00014740       ??_C@_1O@KEMEEGPO@?$AAs?$AAm?$AAa?$AA?9?$AAN?$AAO?$AA?$AA@ 0000000180080740     libucrtd:lcidtoname_downlevel.obj
 0002:00014750       ??_C@_1M@ELMGFODK@?$AAa?$AAr?$AA?9?$AAT?$AAN?$AA?$AA@ 0000000180080750     libucrtd:lcidtoname_downlevel.obj
 0002:00014760       ??_C@_1M@BHDLHFAF@?$AAe?$AAn?$AA?9?$AAZ?$AAA?$AA?$AA@ 0000000180080760     libucrtd:lcidtoname_downlevel.obj
 0002:00014770       ??_C@_1M@BMGIGLIF@?$AAe?$AAs?$AA?9?$AAD?$AAO?$AA?$AA@ 0000000180080770     libucrtd:lcidtoname_downlevel.obj
 0002:00014780       ??_C@_1BG@CMBHIPBE@?$AAs?$AAr?$AA?9?$AAB?$AAA?$AA?9?$AAC?$AAy?$AAr?$AAl?$AA?$AA@ 0000000180080780     libucrtd:lcidtoname_downlevel.obj
 0002:00014798       ??_C@_1O@HEDBLHNP@?$AAs?$AAm?$AAa?$AA?9?$AAS?$AAE?$AA?$AA@ 0000000180080798     libucrtd:lcidtoname_downlevel.obj
 0002:000147a8       ??_C@_1M@DAGCADIM@?$AAa?$AAr?$AA?9?$AAO?$AAM?$AA?$AA@ 00000001800807a8     libucrtd:lcidtoname_downlevel.obj
 0002:000147b8       ??_C@_1M@FODLMICG@?$AAe?$AAn?$AA?9?$AAJ?$AAM?$AA?$AA@ 00000001800807b8     libucrtd:lcidtoname_downlevel.obj
 0002:000147c8       ??_C@_1M@DNMLCIHB@?$AAe?$AAs?$AA?9?$AAV?$AAE?$AA?$AA@ 00000001800807c8     libucrtd:lcidtoname_downlevel.obj
 0002:000147d8       ??_C@_1O@EOKHMKJK@?$AAs?$AAm?$AAs?$AA?9?$AAF?$AAI?$AA?$AA@ 00000001800807d8     libucrtd:lcidtoname_downlevel.obj
 0002:000147e8       ??_C@_1M@CAFJMKOF@?$AAa?$AAr?$AA?9?$AAY?$AAE?$AA?$AA@ 00000001800807e8     libucrtd:lcidtoname_downlevel.obj
 0002:000147f8       ??_C@_1M@CBFHIJLI@?$AAe?$AAn?$AA?9?$AAC?$AAB?$AA?$AA@ 00000001800807f8     libucrtd:lcidtoname_downlevel.obj
 0002:00014808       ??_C@_1M@BGNFLDN@?$AAe?$AAs?$AA?9?$AAC?$AAO?$AA?$AA@ 0000000180080808     libucrtd:lcidtoname_downlevel.obj
 0002:00014818       ??_C@_1O@JMPHMAMC@?$AAs?$AAm?$AAn?$AA?9?$AAF?$AAI?$AA?$AA@ 0000000180080818     libucrtd:lcidtoname_downlevel.obj
 0002:00014828       ??_C@_1M@JLANABKE@?$AAa?$AAr?$AA?9?$AAS?$AAY?$AA?$AA@ 0000000180080828     libucrtd:lcidtoname_downlevel.obj
 0002:00014838       ??_C@_1M@HPKGCFGN@?$AAe?$AAn?$AA?9?$AAB?$AAZ?$AA?$AA@ 0000000180080838     libucrtd:lcidtoname_downlevel.obj
 0002:00014848       ??_C@_1M@OLJCMLGM@?$AAe?$AAs?$AA?9?$AAP?$AAE?$AA?$AA@ 0000000180080848     libucrtd:lcidtoname_downlevel.obj
 0002:00014858       ??_C@_1M@MKKGFKLE@?$AAa?$AAr?$AA?9?$AAJ?$AAO?$AA?$AA@ 0000000180080858     libucrtd:lcidtoname_downlevel.obj
 0002:00014868       ??_C@_1M@EKPGLDNI@?$AAe?$AAn?$AA?9?$AAT?$AAT?$AA?$AA@ 0000000180080868     libucrtd:lcidtoname_downlevel.obj
 0002:00014878       ??_C@_1M@OONGHFHE@?$AAe?$AAs?$AA?9?$AAA?$AAR?$AA?$AA@ 0000000180080878     libucrtd:lcidtoname_downlevel.obj
 0002:00014888       ??_C@_1M@OOJFGBHE@?$AAa?$AAr?$AA?9?$AAL?$AAB?$AA?$AA@ 0000000180080888     libucrtd:lcidtoname_downlevel.obj
 0002:00014898       ??_C@_1M@GCEJHNEG@?$AAe?$AAn?$AA?9?$AAZ?$AAW?$AA?$AA@ 0000000180080898     libucrtd:lcidtoname_downlevel.obj
 0002:000148a8       ??_C@_1M@JNOCAHJI@?$AAe?$AAs?$AA?9?$AAE?$AAC?$AA?$AA@ 00000001800808a8     libucrtd:lcidtoname_downlevel.obj
 0002:000148b8       ??_C@_1M@JEFHPGGB@?$AAa?$AAr?$AA?9?$AAK?$AAW?$AA?$AA@ 00000001800808b8     libucrtd:lcidtoname_downlevel.obj
 0002:000148c8       ??_C@_1M@MLKIBJOJ@?$AAe?$AAn?$AA?9?$AAP?$AAH?$AA?$AA@ 00000001800808c8     libucrtd:lcidtoname_downlevel.obj
 0002:000148d8       ??_C@_1M@BDNIPEND@?$AAe?$AAs?$AA?9?$AAC?$AAL?$AA?$AA@ 00000001800808d8     libucrtd:lcidtoname_downlevel.obj
 0002:000148e8       ??_C@_1M@MPNMEKBD@?$AAa?$AAr?$AA?9?$AAA?$AAE?$AA?$AA@ 00000001800808e8     libucrtd:lcidtoname_downlevel.obj
 0002:000148f8       ??_C@_1M@KBJALCPI@?$AAe?$AAs?$AA?9?$AAU?$AAY?$AA?$AA@ 00000001800808f8     libucrtd:lcidtoname_downlevel.obj
 0002:00014908       ??_C@_1M@LLCCOAGA@?$AAa?$AAr?$AA?9?$AAB?$AAH?$AA?$AA@ 0000000180080908     libucrtd:lcidtoname_downlevel.obj
 0002:00014918       ??_C@_1M@PBFNCDEL@?$AAe?$AAs?$AA?9?$AAP?$AAY?$AA?$AA@ 0000000180080918     libucrtd:lcidtoname_downlevel.obj
 0002:00014928       ??_C@_1M@EDGINPNP@?$AAa?$AAr?$AA?9?$AAQ?$AAA?$AA?$AA@ 0000000180080928     libucrtd:lcidtoname_downlevel.obj
 0002:00014938       ??_C@_1M@MKDBIIJI@?$AAe?$AAs?$AA?9?$AAB?$AAO?$AA?$AA@ 0000000180080938     libucrtd:lcidtoname_downlevel.obj
 0002:00014948       ??_C@_1M@CPKKEBLD@?$AAe?$AAs?$AA?9?$AAS?$AAV?$AA?$AA@ 0000000180080948     libucrtd:lcidtoname_downlevel.obj
 0002:00014958       ??_C@_1M@NDBGMMJL@?$AAe?$AAs?$AA?9?$AAH?$AAN?$AA?$AA@ 0000000180080958     libucrtd:lcidtoname_downlevel.obj
 0002:00014968       ??_C@_1M@JIJIBHDP@?$AAe?$AAs?$AA?9?$AAN?$AAI?$AA?$AA@ 0000000180080968     libucrtd:lcidtoname_downlevel.obj
 0002:00014978       ??_C@_1M@CGFMKEEK@?$AAe?$AAs?$AA?9?$AAP?$AAR?$AA?$AA@ 0000000180080978     libucrtd:lcidtoname_downlevel.obj
 0002:00014988       ??_C@_1O@ICJHKIIK@?$AAz?$AAh?$AA?9?$AAC?$AAH?$AAT?$AA?$AA@ 0000000180080988     libucrtd:lcidtoname_downlevel.obj
 0002:00014998       ??_C@_15CLNEJCE@?$AAs?$AAr?$AA?$AA@ 0000000180080998     libucrtd:lcidtoname_downlevel.obj
 0002:000157e0       ??_C@_1M@KAHEKEIG@?$AAa?$AAf?$AA?9?$AAz?$AAa?$AA?$AA@ 00000001800817e0     libucrtd:lcidtoname_downlevel.obj
 0002:000157f0       ??_C@_1M@GIECOABL@?$AAa?$AAr?$AA?9?$AAa?$AAe?$AA?$AA@ 00000001800817f0     libucrtd:lcidtoname_downlevel.obj
 0002:00015800       ??_C@_1M@BMLMEKGI@?$AAa?$AAr?$AA?9?$AAb?$AAh?$AA?$AA@ 0000000180081800     libucrtd:lcidtoname_downlevel.obj
 0002:00015810       ??_C@_1M@DAPFDGGB@?$AAa?$AAr?$AA?9?$AAd?$AAz?$AA?$AA@ 0000000180081810     libucrtd:lcidtoname_downlevel.obj
 0002:00015820       ??_C@_1M@FJNKGKIG@?$AAa?$AAr?$AA?9?$AAe?$AAg?$AA?$AA@ 0000000180081820     libucrtd:lcidtoname_downlevel.obj
 0002:00015830       ??_C@_1M@FLGKKCLO@?$AAa?$AAr?$AA?9?$AAi?$AAq?$AA?$AA@ 0000000180081830     libucrtd:lcidtoname_downlevel.obj
 0002:00015840       ??_C@_1M@GNDIPALM@?$AAa?$AAr?$AA?9?$AAj?$AAo?$AA?$AA@ 0000000180081840     libucrtd:lcidtoname_downlevel.obj
 0002:00015850       ??_C@_1M@DDMJFMGJ@?$AAa?$AAr?$AA?9?$AAk?$AAw?$AA?$AA@ 0000000180081850     libucrtd:lcidtoname_downlevel.obj
 0002:00015860       ??_C@_1M@EJALMLHM@?$AAa?$AAr?$AA?9?$AAl?$AAb?$AA?$AA@ 0000000180081860     libucrtd:lcidtoname_downlevel.obj
 0002:00015870       ??_C@_1M@MOBDBLOC@?$AAa?$AAr?$AA?9?$AAl?$AAy?$AA?$AA@ 0000000180081870     libucrtd:lcidtoname_downlevel.obj
 0002:00015880       ??_C@_1M@JAOCLHDH@?$AAa?$AAr?$AA?9?$AAm?$AAa?$AA?$AA@ 0000000180081880     libucrtd:lcidtoname_downlevel.obj
 0002:00015890       ??_C@_1M@JHPMKJIE@?$AAa?$AAr?$AA?9?$AAo?$AAm?$AA?$AA@ 0000000180081890     libucrtd:lcidtoname_downlevel.obj
 0002:000158a0       ??_C@_1M@OEPGHFNH@?$AAa?$AAr?$AA?9?$AAq?$AAa?$AA?$AA@ 00000001800818a0     libucrtd:lcidtoname_downlevel.obj
 0002:000158b0       ??_C@_1M@KJDONENM@?$AAa?$AAr?$AA?9?$AAs?$AAa?$AA?$AA@ 00000001800818b0     libucrtd:lcidtoname_downlevel.obj
 0002:000158c0       ??_C@_1M@DMJDKLKM@?$AAa?$AAr?$AA?9?$AAs?$AAy?$AA?$AA@ 00000001800818c0     libucrtd:lcidtoname_downlevel.obj
 0002:000158d0       ??_C@_1M@OMFIPEDC@?$AAa?$AAr?$AA?9?$AAt?$AAn?$AA?$AA@ 00000001800818d0     libucrtd:lcidtoname_downlevel.obj
 0002:000158e0       ??_C@_1M@IHMHGAON@?$AAa?$AAr?$AA?9?$AAy?$AAe?$AA?$AA@ 00000001800818e0     libucrtd:lcidtoname_downlevel.obj
 0002:000158f0       ??_C@_1BG@KDCPGJGB@?$AAa?$AAz?$AA?9?$AAa?$AAz?$AA?9?$AAc?$AAy?$AAr?$AAl?$AA?$AA@ 00000001800818f0     libucrtd:lcidtoname_downlevel.obj
 0002:00015908       ??_C@_1BG@IBCKDDOE@?$AAa?$AAz?$AA?9?$AAa?$AAz?$AA?9?$AAl?$AAa?$AAt?$AAn?$AA?$AA@ 0000000180081908     libucrtd:lcidtoname_downlevel.obj
 0002:00015920       ??_C@_1M@EGPFDCPD@?$AAb?$AAe?$AA?9?$AAb?$AAy?$AA?$AA@ 0000000180081920     libucrtd:lcidtoname_downlevel.obj
 0002:00015930       ??_C@_1M@PCMGMCGC@?$AAb?$AAg?$AA?9?$AAb?$AAg?$AA?$AA@ 0000000180081930     libucrtd:lcidtoname_downlevel.obj
 0002:00015940       ??_C@_1M@BJBMFGOB@?$AAb?$AAn?$AA?9?$AAi?$AAn?$AA?$AA@ 0000000180081940     libucrtd:lcidtoname_downlevel.obj
 0002:00015950       ??_C@_1BG@EAKMMACD@?$AAb?$AAs?$AA?9?$AAb?$AAa?$AA?9?$AAl?$AAa?$AAt?$AAn?$AA?$AA@ 0000000180081950     libucrtd:lcidtoname_downlevel.obj
 0002:00015968       ??_C@_1M@KGADAODK@?$AAc?$AAa?$AA?9?$AAe?$AAs?$AA?$AA@ 0000000180081968     libucrtd:lcidtoname_downlevel.obj
 0002:00015978       ??_C@_1M@COAJPDHI@?$AAc?$AAs?$AA?9?$AAc?$AAz?$AA?$AA@ 0000000180081978     libucrtd:lcidtoname_downlevel.obj
 0002:00015988       ??_C@_1M@DHBHFONH@?$AAc?$AAy?$AA?9?$AAg?$AAb?$AA?$AA@ 0000000180081988     libucrtd:lcidtoname_downlevel.obj
 0002:00015998       ??_C@_1M@IMGKELGA@?$AAd?$AAa?$AA?9?$AAd?$AAk?$AA?$AA@ 0000000180081998     libucrtd:lcidtoname_downlevel.obj
 0002:000159a8       ??_C@_1M@NNDGDNGA@?$AAd?$AAe?$AA?9?$AAa?$AAt?$AA?$AA@ 00000001800819a8     libucrtd:lcidtoname_downlevel.obj
 0002:000159b8       ??_C@_1M@IKDBHEEM@?$AAd?$AAe?$AA?9?$AAc?$AAh?$AA?$AA@ 00000001800819b8     libucrtd:lcidtoname_downlevel.obj
 0002:000159c8       ??_C@_1M@GFFOJMCJ@?$AAd?$AAe?$AA?9?$AAd?$AAe?$AA?$AA@ 00000001800819c8     libucrtd:lcidtoname_downlevel.obj
 0002:000159d8       ??_C@_1M@MDNLKBPM@?$AAd?$AAe?$AA?9?$AAl?$AAi?$AA?$AA@ 00000001800819d8     libucrtd:lcidtoname_downlevel.obj
 0002:000159e8       ??_C@_1M@NJBEEJNL@?$AAd?$AAe?$AA?9?$AAl?$AAu?$AA?$AA@ 00000001800819e8     libucrtd:lcidtoname_downlevel.obj
 0002:000159f8       ??_C@_1O@GNNELBAP@?$AAd?$AAi?$AAv?$AA?9?$AAm?$AAv?$AA?$AA@ 00000001800819f8     libucrtd:lcidtoname_downlevel.obj
 0002:00015a08       ??_C@_1M@EJLEOGAE@?$AAe?$AAl?$AA?9?$AAg?$AAr?$AA?$AA@ 0000000180081a08     libucrtd:lcidtoname_downlevel.obj
 0002:00015a18       ??_C@_1M@GMPONJN@?$AAe?$AAn?$AA?9?$AAa?$AAu?$AA?$AA@ 0000000180081a18     libucrtd:lcidtoname_downlevel.obj
 0002:00015a28       ??_C@_1M@NIDIIPGF@?$AAe?$AAn?$AA?9?$AAb?$AAz?$AA?$AA@ 0000000180081a28     libucrtd:lcidtoname_downlevel.obj
 0002:00015a38       ??_C@_1M@JEHMIMFO@?$AAe?$AAn?$AA?9?$AAc?$AAa?$AA?$AA@ 0000000180081a38     libucrtd:lcidtoname_downlevel.obj
 0002:00015a48       ??_C@_1M@IGMJCDLA@?$AAe?$AAn?$AA?9?$AAc?$AAb?$AA?$AA@ 0000000180081a48     libucrtd:lcidtoname_downlevel.obj
 0002:00015a58       ??_C@_1M@BNFIGBKG@?$AAe?$AAn?$AA?9?$AAg?$AAb?$AA?$AA@ 0000000180081a58     libucrtd:lcidtoname_downlevel.obj
 0002:00015a68       ??_C@_1M@LKIFDIGP@?$AAe?$AAn?$AA?9?$AAi?$AAe?$AA?$AA@ 0000000180081a68     libucrtd:lcidtoname_downlevel.obj
 0002:00015a78       ??_C@_1M@PJKFGCCO@?$AAe?$AAn?$AA?9?$AAj?$AAm?$AA?$AA@ 0000000180081a78     libucrtd:lcidtoname_downlevel.obj
 0002:00015a88       ??_C@_1M@KPPKEPBO@?$AAe?$AAn?$AA?9?$AAn?$AAz?$AA?$AA@ 0000000180081a88     libucrtd:lcidtoname_downlevel.obj
 0002:00015a98       ??_C@_1M@GMDGLDOB@?$AAe?$AAn?$AA?9?$AAp?$AAh?$AA?$AA@ 0000000180081a98     libucrtd:lcidtoname_downlevel.obj
 0002:00015aa8       ??_C@_1M@ONGIBJNA@?$AAe?$AAn?$AA?9?$AAt?$AAt?$AA?$AA@ 0000000180081aa8     libucrtd:lcidtoname_downlevel.obj
 0002:00015ab8       ??_C@_1M@LLODPCMM@?$AAe?$AAn?$AA?9?$AAu?$AAs?$AA?$AA@ 0000000180081ab8     libucrtd:lcidtoname_downlevel.obj
 0002:00015ac8       ??_C@_1M@LAKFNPAN@?$AAe?$AAn?$AA?9?$AAz?$AAa?$AA?$AA@ 0000000180081ac8     libucrtd:lcidtoname_downlevel.obj
 0002:00015ad8       ??_C@_1M@MFNHNHEO@?$AAe?$AAn?$AA?9?$AAz?$AAw?$AA?$AA@ 0000000180081ad8     libucrtd:lcidtoname_downlevel.obj
 0002:00015ae8       ??_C@_1M@EJEINPHM@?$AAe?$AAs?$AA?9?$AAa?$AAr?$AA?$AA@ 0000000180081ae8     libucrtd:lcidtoname_downlevel.obj
 0002:00015af8       ??_C@_1M@GNKPCCJA@?$AAe?$AAs?$AA?9?$AAb?$AAo?$AA?$AA@ 0000000180081af8     libucrtd:lcidtoname_downlevel.obj
 0002:00015b08       ??_C@_1M@LEEGFONL@?$AAe?$AAs?$AA?9?$AAc?$AAl?$AA?$AA@ 0000000180081b08     libucrtd:lcidtoname_downlevel.obj
 0002:00015b18       ??_C@_1M@KGPDPBDF@?$AAe?$AAs?$AA?9?$AAc?$AAo?$AA?$AA@ 0000000180081b18     libucrtd:lcidtoname_downlevel.obj
 0002:00015b28       ??_C@_1M@EIAHOHH@?$AAe?$AAs?$AA?9?$AAc?$AAr?$AA?$AA@ 0000000180081b28     libucrtd:lcidtoname_downlevel.obj
 0002:00015b38       ??_C@_1M@LLPGMBIN@?$AAe?$AAs?$AA?9?$AAd?$AAo?$AA?$AA@ 0000000180081b38     libucrtd:lcidtoname_downlevel.obj
 0002:00015b48       ??_C@_1M@DKHMKNJA@?$AAe?$AAs?$AA?9?$AAe?$AAc?$AA?$AA@ 0000000180081b48     libucrtd:lcidtoname_downlevel.obj
 0002:00015b58       ??_C@_1M@GKGFPKAP@?$AAe?$AAs?$AA?9?$AAe?$AAs?$AA?$AA@ 0000000180081b58     libucrtd:lcidtoname_downlevel.obj
 0002:00015b68       ??_C@_1M@LKHKGDLN@?$AAe?$AAs?$AA?9?$AAg?$AAt?$AA?$AA@ 0000000180081b68     libucrtd:lcidtoname_downlevel.obj
 0002:00015b78       ??_C@_1M@HEIIGGJD@?$AAe?$AAs?$AA?9?$AAh?$AAn?$AA?$AA@ 0000000180081b78     libucrtd:lcidtoname_downlevel.obj
 0002:00015b88       ??_C@_1M@FBDHPPGD@?$AAe?$AAs?$AA?9?$AAm?$AAx?$AA?$AA@ 0000000180081b88     libucrtd:lcidtoname_downlevel.obj
 0002:00015b98       ??_C@_1M@DPAGLNDH@?$AAe?$AAs?$AA?9?$AAn?$AAi?$AA?$AA@ 0000000180081b98     libucrtd:lcidtoname_downlevel.obj
 0002:00015ba8       ??_C@_1M@MDGOPGDD@?$AAe?$AAs?$AA?9?$AAp?$AAa?$AA?$AA@ 0000000180081ba8     libucrtd:lcidtoname_downlevel.obj
 0002:00015bb8       ??_C@_1M@EMAMGBGE@?$AAe?$AAs?$AA?9?$AAp?$AAe?$AA?$AA@ 0000000180081bb8     libucrtd:lcidtoname_downlevel.obj
 0002:00015bc8       ??_C@_1M@IBMCAOEC@?$AAe?$AAs?$AA?9?$AAp?$AAr?$AA?$AA@ 0000000180081bc8     libucrtd:lcidtoname_downlevel.obj
 0002:00015bd8       ??_C@_1M@FGMDIJED@?$AAe?$AAs?$AA?9?$AAp?$AAy?$AA?$AA@ 0000000180081bd8     libucrtd:lcidtoname_downlevel.obj
 0002:00015be8       ??_C@_1M@IIDEOLLL@?$AAe?$AAs?$AA?9?$AAs?$AAv?$AA?$AA@ 0000000180081be8     libucrtd:lcidtoname_downlevel.obj
 0002:00015bf8       ??_C@_1M@GAOBIPA@?$AAe?$AAs?$AA?9?$AAu?$AAy?$AA?$AA@ 0000000180081bf8     libucrtd:lcidtoname_downlevel.obj
 0002:00015c08       ??_C@_1M@JKFFICHJ@?$AAe?$AAs?$AA?9?$AAv?$AAe?$AA?$AA@ 0000000180081c08     libucrtd:lcidtoname_downlevel.obj
 0002:00015c18       ??_C@_1M@PNMLOJDF@?$AAe?$AAt?$AA?9?$AAe?$AAe?$AA?$AA@ 0000000180081c18     libucrtd:lcidtoname_downlevel.obj
 0002:00015c28       ??_C@_1M@GHHLIKEI@?$AAe?$AAu?$AA?9?$AAe?$AAs?$AA?$AA@ 0000000180081c28     libucrtd:lcidtoname_downlevel.obj
 0002:00015c38       ??_C@_1M@PBNONODE@?$AAf?$AAa?$AA?9?$AAi?$AAr?$AA?$AA@ 0000000180081c38     libucrtd:lcidtoname_downlevel.obj
 0002:00015c48       ??_C@_1M@JEEHPMIL@?$AAf?$AAi?$AA?9?$AAf?$AAi?$AA?$AA@ 0000000180081c48     libucrtd:lcidtoname_downlevel.obj
 0002:00015c58       ??_C@_1M@LMDCNDBA@?$AAf?$AAo?$AA?9?$AAf?$AAo?$AA?$AA@ 0000000180081c58     libucrtd:lcidtoname_downlevel.obj
 0002:00015c68       ??_C@_1M@JKEOHLDK@?$AAf?$AAr?$AA?9?$AAb?$AAe?$AA?$AA@ 0000000180081c68     libucrtd:lcidtoname_downlevel.obj
 0002:00015c78       ??_C@_1M@NOHADPMI@?$AAf?$AAr?$AA?9?$AAc?$AAa?$AA?$AA@ 0000000180081c78     libucrtd:lcidtoname_downlevel.obj
 0002:00015c88       ??_C@_1M@KDHIHAEC@?$AAf?$AAr?$AA?9?$AAc?$AAh?$AA?$AA@ 0000000180081c88     libucrtd:lcidtoname_downlevel.obj
 0002:00015c98       ??_C@_1M@MMBBFGAK@?$AAf?$AAr?$AA?9?$AAf?$AAr?$AA?$AA@ 0000000180081c98     libucrtd:lcidtoname_downlevel.obj
 0002:00015ca8       ??_C@_1M@PAFNENNF@?$AAf?$AAr?$AA?9?$AAl?$AAu?$AA?$AA@ 0000000180081ca8     libucrtd:lcidtoname_downlevel.obj
 0002:00015cb8       ??_C@_1M@EOHDJGDD@?$AAf?$AAr?$AA?9?$AAm?$AAc?$AA?$AA@ 0000000180081cb8     libucrtd:lcidtoname_downlevel.obj
 0002:00015cc8       ??_C@_1M@FAPLLOPF@?$AAg?$AAl?$AA?9?$AAe?$AAs?$AA?$AA@ 0000000180081cc8     libucrtd:lcidtoname_downlevel.obj
 0002:00015cd8       ??_C@_1M@FOPBFLOO@?$AAg?$AAu?$AA?9?$AAi?$AAn?$AA?$AA@ 0000000180081cd8     libucrtd:lcidtoname_downlevel.obj
 0002:00015ce8       ??_C@_1M@KBMCINPM@?$AAh?$AAe?$AA?9?$AAi?$AAl?$AA?$AA@ 0000000180081ce8     libucrtd:lcidtoname_downlevel.obj
 0002:00015cf8       ??_C@_1M@BBPHKFPJ@?$AAh?$AAi?$AA?9?$AAi?$AAn?$AA?$AA@ 0000000180081cf8     libucrtd:lcidtoname_downlevel.obj
 0002:00015d08       ??_C@_1M@PMBNDPHD@?$AAh?$AAr?$AA?9?$AAb?$AAa?$AA?$AA@ 0000000180081d08     libucrtd:lcidtoname_downlevel.obj
 0002:00015d18       ??_C@_1M@BPCKOEGE@?$AAh?$AAr?$AA?9?$AAh?$AAr?$AA?$AA@ 0000000180081d18     libucrtd:lcidtoname_downlevel.obj
 0002:00015d28       ??_C@_1M@GACBMHKE@?$AAh?$AAu?$AA?9?$AAh?$AAu?$AA?$AA@ 0000000180081d28     libucrtd:lcidtoname_downlevel.obj
 0002:00015d38       ??_C@_1M@MILPAJJC@?$AAh?$AAy?$AA?9?$AAa?$AAm?$AA?$AA@ 0000000180081d38     libucrtd:lcidtoname_downlevel.obj
 0002:00015d48       ??_C@_1M@BABBICEC@?$AAi?$AAd?$AA?9?$AAi?$AAd?$AA?$AA@ 0000000180081d48     libucrtd:lcidtoname_downlevel.obj
 0002:00015d58       ??_C@_1M@BIKNHHPF@?$AAi?$AAs?$AA?9?$AAi?$AAs?$AA?$AA@ 0000000180081d58     libucrtd:lcidtoname_downlevel.obj
 0002:00015d68       ??_C@_1M@NMPCJPHE@?$AAi?$AAt?$AA?9?$AAc?$AAh?$AA?$AA@ 0000000180081d68     libucrtd:lcidtoname_downlevel.obj
 0002:00015d78       ??_C@_1M@GHKGFEDF@?$AAi?$AAt?$AA?9?$AAi?$AAt?$AA?$AA@ 0000000180081d78     libucrtd:lcidtoname_downlevel.obj
 0002:00015d88       ??_C@_1M@NIEJCJJA@?$AAj?$AAa?$AA?9?$AAj?$AAp?$AA?$AA@ 0000000180081d88     libucrtd:lcidtoname_downlevel.obj
 0002:00015d98       ??_C@_1M@JILFNBIM@?$AAk?$AAa?$AA?9?$AAg?$AAe?$AA?$AA@ 0000000180081d98     libucrtd:lcidtoname_downlevel.obj
 0002:00015da8       ??_C@_1M@PACPMGPH@?$AAk?$AAk?$AA?9?$AAk?$AAz?$AA?$AA@ 0000000180081da8     libucrtd:lcidtoname_downlevel.obj
 0002:00015db8       ??_C@_1M@IELFGMHA@?$AAk?$AAn?$AA?9?$AAi?$AAn?$AA?$AA@ 0000000180081db8     libucrtd:lcidtoname_downlevel.obj
 0002:00015dc8       ??_C@_1O@IBBJHCH@?$AAk?$AAo?$AAk?$AA?9?$AAi?$AAn?$AA?$AA@ 0000000180081dc8     libucrtd:lcidtoname_downlevel.obj
 0002:00015dd8       ??_C@_1M@DMHAEOGC@?$AAk?$AAo?$AA?9?$AAk?$AAr?$AA?$AA@ 0000000180081dd8     libucrtd:lcidtoname_downlevel.obj
 0002:00015de8       ??_C@_1M@HBAHBIGA@?$AAk?$AAy?$AA?9?$AAk?$AAg?$AA?$AA@ 0000000180081de8     libucrtd:lcidtoname_downlevel.obj
 0002:00015df8       ??_C@_1M@KPMILCJG@?$AAl?$AAt?$AA?9?$AAl?$AAt?$AA?$AA@ 0000000180081df8     libucrtd:lcidtoname_downlevel.obj
 0002:00015e08       ??_C@_1M@BDEKKCA@?$AAl?$AAv?$AA?9?$AAl?$AAv?$AA?$AA@ 0000000180081e08     libucrtd:lcidtoname_downlevel.obj
 0002:00015e18       ??_C@_1M@ELCKCCJJ@?$AAm?$AAi?$AA?9?$AAn?$AAz?$AA?$AA@ 0000000180081e18     libucrtd:lcidtoname_downlevel.obj
 0002:00015e28       ??_C@_1M@CBOOLAPA@?$AAm?$AAk?$AA?9?$AAm?$AAk?$AA?$AA@ 0000000180081e28     libucrtd:lcidtoname_downlevel.obj
 0002:00015e38       ??_C@_1M@GPHNBJKN@?$AAm?$AAl?$AA?9?$AAi?$AAn?$AA?$AA@ 0000000180081e38     libucrtd:lcidtoname_downlevel.obj
 0002:00015e48       ??_C@_1M@PABJILIG@?$AAm?$AAn?$AA?9?$AAm?$AAn?$AA?$AA@ 0000000180081e48     libucrtd:lcidtoname_downlevel.obj
 0002:00015e58       ??_C@_1M@FGBKKIPG@?$AAm?$AAr?$AA?9?$AAi?$AAn?$AA?$AA@ 0000000180081e58     libucrtd:lcidtoname_downlevel.obj
 0002:00015e68       ??_C@_1M@NDBPDDAL@?$AAm?$AAs?$AA?9?$AAb?$AAn?$AA?$AA@ 0000000180081e68     libucrtd:lcidtoname_downlevel.obj
 0002:00015e78       ??_C@_1M@OPIHOOPI@?$AAm?$AAs?$AA?9?$AAm?$AAy?$AA?$AA@ 0000000180081e78     libucrtd:lcidtoname_downlevel.obj
 0002:00015e88       ??_C@_1M@PPDBCNFM@?$AAm?$AAt?$AA?9?$AAm?$AAt?$AA?$AA@ 0000000180081e88     libucrtd:lcidtoname_downlevel.obj
 0002:00015e98       ??_C@_1M@KDJDKMDD@?$AAn?$AAb?$AA?9?$AAn?$AAo?$AA?$AA@ 0000000180081e98     libucrtd:lcidtoname_downlevel.obj
 0002:00015ea8       ??_C@_1M@KFCFLMJP@?$AAn?$AAl?$AA?9?$AAb?$AAe?$AA?$AA@ 0000000180081ea8     libucrtd:lcidtoname_downlevel.obj
 0002:00015eb8       ??_C@_1M@KPOPDDGO@?$AAn?$AAl?$AA?9?$AAn?$AAl?$AA?$AA@ 0000000180081eb8     libucrtd:lcidtoname_downlevel.obj
 0002:00015ec8       ??_C@_1M@LJKPEMLN@?$AAn?$AAn?$AA?9?$AAn?$AAo?$AA?$AA@ 0000000180081ec8     libucrtd:lcidtoname_downlevel.obj
 0002:00015ed8       ??_C@_1M@BDGHHBFL@?$AAn?$AAs?$AA?9?$AAz?$AAa?$AA?$AA@ 0000000180081ed8     libucrtd:lcidtoname_downlevel.obj
 0002:00015ee8       ??_C@_1M@IDEHOAP@?$AAp?$AAa?$AA?9?$AAi?$AAn?$AA?$AA@ 0000000180081ee8     libucrtd:lcidtoname_downlevel.obj
 0002:00015ef8       ??_C@_1M@HDBKGOGH@?$AAp?$AAl?$AA?9?$AAp?$AAl?$AA?$AA@ 0000000180081ef8     libucrtd:lcidtoname_downlevel.obj
 0002:00015f08       ??_C@_1M@LJLLCMEH@?$AAp?$AAt?$AA?9?$AAb?$AAr?$AA?$AA@ 0000000180081f08     libucrtd:lcidtoname_downlevel.obj
 0002:00015f18       ??_C@_1M@NCMONAAL@?$AAp?$AAt?$AA?9?$AAp?$AAt?$AA?$AA@ 0000000180081f18     libucrtd:lcidtoname_downlevel.obj
 0002:00015f28       ??_C@_1O@EAKMAJDN@?$AAq?$AAu?$AAz?$AA?9?$AAb?$AAo?$AA?$AA@ 0000000180081f28     libucrtd:lcidtoname_downlevel.obj
 0002:00015f38       ??_C@_1O@BHHPIGDN@?$AAq?$AAu?$AAz?$AA?9?$AAe?$AAc?$AA?$AA@ 0000000180081f38     libucrtd:lcidtoname_downlevel.obj
 0002:00015f48       ??_C@_1O@GBAPEKMJ@?$AAq?$AAu?$AAz?$AA?9?$AAp?$AAe?$AA?$AA@ 0000000180081f48     libucrtd:lcidtoname_downlevel.obj
 0002:00015f58       ??_C@_1M@CLGLEFBO@?$AAr?$AAo?$AA?9?$AAr?$AAo?$AA?$AA@ 0000000180081f58     libucrtd:lcidtoname_downlevel.obj
 0002:00015f68       ??_C@_1M@CEEDODME@?$AAr?$AAu?$AA?9?$AAr?$AAu?$AA?$AA@ 0000000180081f68     libucrtd:lcidtoname_downlevel.obj
 0002:00015f78       ??_C@_1M@HPKKKMPP@?$AAs?$AAa?$AA?9?$AAi?$AAn?$AA?$AA@ 0000000180081f78     libucrtd:lcidtoname_downlevel.obj
 0002:00015f88       ??_C@_1M@BKMAIGOJ@?$AAs?$AAe?$AA?9?$AAf?$AAi?$AA?$AA@ 0000000180081f88     libucrtd:lcidtoname_downlevel.obj
 0002:00015f98       ??_C@_1M@NDPIFLFI@?$AAs?$AAe?$AA?9?$AAn?$AAo?$AA?$AA@ 0000000180081f98     libucrtd:lcidtoname_downlevel.obj
 0002:00015fa8       ??_C@_1M@DANKKHJ@?$AAs?$AAe?$AA?9?$AAs?$AAe?$AA?$AA@ 0000000180081fa8     libucrtd:lcidtoname_downlevel.obj
 0002:00015fb8       ??_C@_1M@PNBLONPJ@?$AAs?$AAk?$AA?9?$AAs?$AAk?$AA?$AA@ 0000000180081fb8     libucrtd:lcidtoname_downlevel.obj
 0002:00015fc8       ??_C@_1M@LFMODOAL@?$AAs?$AAl?$AA?9?$AAs?$AAi?$AA?$AA@ 0000000180081fc8     libucrtd:lcidtoname_downlevel.obj
 0002:00015fd8       ??_C@_1O@DFKOMPG@?$AAs?$AAm?$AAa?$AA?9?$AAn?$AAo?$AA?$AA@ 0000000180081fd8     libucrtd:lcidtoname_downlevel.obj
 0002:00015fe8       ??_C@_1O@NDKPBNNH@?$AAs?$AAm?$AAa?$AA?9?$AAs?$AAe?$AA?$AA@ 0000000180081fe8     libucrtd:lcidtoname_downlevel.obj
 0002:00015ff8       ??_C@_1O@PLLKBHAB@?$AAs?$AAm?$AAj?$AA?9?$AAn?$AAo?$AA?$AA@ 0000000180081ff8     libucrtd:lcidtoname_downlevel.obj
 0002:00016008       ??_C@_1O@CLEPOGCA@?$AAs?$AAm?$AAj?$AA?9?$AAs?$AAe?$AA?$AA@ 0000000180082008     libucrtd:lcidtoname_downlevel.obj
 0002:00016018       ??_C@_1O@DLGJGKMK@?$AAs?$AAm?$AAn?$AA?9?$AAf?$AAi?$AA?$AA@ 0000000180082018     libucrtd:lcidtoname_downlevel.obj
 0002:00016028       ??_C@_1O@OJDJGAJC@?$AAs?$AAm?$AAs?$AA?9?$AAf?$AAi?$AA?$AA@ 0000000180082028     libucrtd:lcidtoname_downlevel.obj
 0002:00016038       ??_C@_1M@BOFOGHPB@?$AAs?$AAq?$AA?9?$AAa?$AAl?$AA?$AA@ 0000000180082038     libucrtd:lcidtoname_downlevel.obj
 0002:00016048       ??_C@_1BG@LJBBIPGB@?$AAs?$AAr?$AA?9?$AAb?$AAa?$AA?9?$AAc?$AAy?$AAr?$AAl?$AA?$AA@ 0000000180082048     libucrtd:lcidtoname_downlevel.obj
 0002:00016060       ??_C@_1BG@JLBENFOE@?$AAs?$AAr?$AA?9?$AAb?$AAa?$AA?9?$AAl?$AAa?$AAt?$AAn?$AA?$AA@ 0000000180082060     libucrtd:lcidtoname_downlevel.obj
 0002:00016078       ??_C@_1BG@KODPNHE@?$AAs?$AAr?$AA?9?$AAs?$AAp?$AA?9?$AAc?$AAy?$AAr?$AAl?$AA?$AA@ 0000000180082078     libucrtd:lcidtoname_downlevel.obj
 0002:00016090       ??_C@_1BG@CIOGKHPB@?$AAs?$AAr?$AA?9?$AAs?$AAp?$AA?9?$AAl?$AAa?$AAt?$AAn?$AA?$AA@ 0000000180082090     libucrtd:lcidtoname_downlevel.obj
 0002:000160a8       ??_C@_1M@NGFJLMAC@?$AAs?$AAv?$AA?9?$AAf?$AAi?$AA?$AA@ 00000001800820a8     libucrtd:lcidtoname_downlevel.obj
 0002:000160b8       ??_C@_1M@MPJEJAJC@?$AAs?$AAv?$AA?9?$AAs?$AAe?$AA?$AA@ 00000001800820b8     libucrtd:lcidtoname_downlevel.obj
 0002:000160c8       ??_C@_1M@MPNDHLFK@?$AAs?$AAw?$AA?9?$AAk?$AAe?$AA?$AA@ 00000001800820c8     libucrtd:lcidtoname_downlevel.obj
 0002:000160d8       ??_C@_1O@KOHBJJI@?$AAs?$AAy?$AAr?$AA?9?$AAs?$AAy?$AA?$AA@ 00000001800820d8     libucrtd:lcidtoname_downlevel.obj
 0002:000160e8       ??_C@_1M@LDCEFHA@?$AAt?$AAa?$AA?9?$AAi?$AAn?$AA?$AA@ 00000001800820e8     libucrtd:lcidtoname_downlevel.obj
 0002:000160f8       ??_C@_1M@CNJOFAK@?$AAt?$AAe?$AA?9?$AAi?$AAn?$AA?$AA@ 00000001800820f8     libucrtd:lcidtoname_downlevel.obj
 0002:00016108       ??_C@_1M@GNAECACD@?$AAt?$AAh?$AA?9?$AAt?$AAh?$AA?$AA@ 0000000180082108     libucrtd:lcidtoname_downlevel.obj
 0002:00016118       ??_C@_1M@CHBIHOJO@?$AAt?$AAn?$AA?9?$AAz?$AAa?$AA?$AA@ 0000000180082118     libucrtd:lcidtoname_downlevel.obj
 0002:00016128       ??_C@_1M@GCCMIGPJ@?$AAt?$AAr?$AA?9?$AAt?$AAr?$AA?$AA@ 0000000180082128     libucrtd:lcidtoname_downlevel.obj
 0002:00016138       ??_C@_1M@CELMCNBK@?$AAt?$AAt?$AA?9?$AAr?$AAu?$AA?$AA@ 0000000180082138     libucrtd:lcidtoname_downlevel.obj
 0002:00016148       ??_C@_1M@KLMCELGA@?$AAu?$AAk?$AA?9?$AAu?$AAa?$AA?$AA@ 0000000180082148     libucrtd:lcidtoname_downlevel.obj
 0002:00016158       ??_C@_1M@EPAJJAJF@?$AAu?$AAr?$AA?9?$AAp?$AAk?$AA?$AA@ 0000000180082158     libucrtd:lcidtoname_downlevel.obj
 0002:00016168       ??_C@_1BG@GEGPMCDJ@?$AAu?$AAz?$AA?9?$AAu?$AAz?$AA?9?$AAc?$AAy?$AAr?$AAl?$AA?$AA@ 0000000180082168     libucrtd:lcidtoname_downlevel.obj
 0002:00016180       ??_C@_1BG@EGGKJILM@?$AAu?$AAz?$AA?9?$AAu?$AAz?$AA?9?$AAl?$AAa?$AAt?$AAn?$AA?$AA@ 0000000180082180     libucrtd:lcidtoname_downlevel.obj
 0002:00016198       ??_C@_1M@GFOCLFF@?$AAv?$AAi?$AA?9?$AAv?$AAn?$AA?$AA@ 0000000180082198     libucrtd:lcidtoname_downlevel.obj
 0002:000161a8       ??_C@_1M@CPAMEDFI@?$AAx?$AAh?$AA?9?$AAz?$AAa?$AA?$AA@ 00000001800821a8     libucrtd:lcidtoname_downlevel.obj
 0002:000161b8       ??_C@_1O@EBKIFIGN@?$AAz?$AAh?$AA?9?$AAc?$AAh?$AAs?$AA?$AA@ 00000001800821b8     libucrtd:lcidtoname_downlevel.obj
 0002:000161c8       ??_C@_1O@NMHPGANE@?$AAz?$AAh?$AA?9?$AAc?$AAh?$AAt?$AA?$AA@ 00000001800821c8     libucrtd:lcidtoname_downlevel.obj
 0002:000161d8       ??_C@_1M@LPINJOMC@?$AAz?$AAh?$AA?9?$AAc?$AAn?$AA?$AA@ 00000001800821d8     libucrtd:lcidtoname_downlevel.obj
 0002:000161e8       ??_C@_1M@OCJEJODD@?$AAz?$AAh?$AA?9?$AAh?$AAk?$AA?$AA@ 00000001800821e8     libucrtd:lcidtoname_downlevel.obj
 0002:000161f8       ??_C@_1M@DNDLJINH@?$AAz?$AAh?$AA?9?$AAm?$AAo?$AA?$AA@ 00000001800821f8     libucrtd:lcidtoname_downlevel.obj
 0002:00016208       ??_C@_1M@MBFDNDND@?$AAz?$AAh?$AA?9?$AAs?$AAg?$AA?$AA@ 0000000180082208     libucrtd:lcidtoname_downlevel.obj
 0002:00016218       ??_C@_1M@IMEPLEPE@?$AAz?$AAh?$AA?9?$AAt?$AAw?$AA?$AA@ 0000000180082218     libucrtd:lcidtoname_downlevel.obj
 0002:00016228       ??_C@_1M@BBGHNHJP@?$AAz?$AAu?$AA?9?$AAz?$AAa?$AA?$AA@ 0000000180082228     libucrtd:lcidtoname_downlevel.obj
 0002:00017080       ??_C@_15EMKDOKLE@?$AAa?$AAr?$AA?$AA@ 0000000180083080     libucrtd:lcidtoname_downlevel.obj
 0002:00017088       ??_C@_15KNPADPLH@?$AAb?$AAg?$AA?$AA@ 0000000180083088     libucrtd:lcidtoname_downlevel.obj
 0002:00017090       ??_C@_15EDMHLDMO@?$AAc?$AAa?$AA?$AA@ 0000000180083090     libucrtd:lcidtoname_downlevel.obj
 0002:00017098       ??_C@_1O@BPEAJADD@?$AAz?$AAh?$AA?9?$AAC?$AAH?$AAS?$AA?$AA@ 0000000180083098     libucrtd:lcidtoname_downlevel.obj
 0002:000170a8       ??_C@_15LJNHCMNK@?$AAc?$AAs?$AA?$AA@ 00000001800830a8     libucrtd:lcidtoname_downlevel.obj
 0002:000170b0       ??_C@_15FOMCIDHG@?$AAd?$AAa?$AA?$AA@ 00000001800830b0     libucrtd:lcidtoname_downlevel.obj
 0002:000170b8       ??_C@_15NBKABECB@?$AAd?$AAe?$AA?$AA@ 00000001800830b8     libucrtd:lcidtoname_downlevel.obj
 0002:000170c0       ??_C@_15GHPEIIAO@?$AAe?$AAl?$AA?$AA@ 00000001800830c0     libucrtd:lcidtoname_downlevel.obj
 0002:000170c8       ??_C@_15MNPNEAIF@?$AAe?$AAn?$AA?$AA@ 00000001800830c8     libucrtd:lcidtoname_downlevel.obj
 0002:000170d0       ??_C@_15GPIOMPMH@?$AAe?$AAs?$AA?$AA@ 00000001800830d0     libucrtd:lcidtoname_downlevel.obj
 0002:000170d8       ??_C@_15NGLOAKJC@?$AAf?$AAi?$AA?$AA@ 00000001800830d8     libucrtd:lcidtoname_downlevel.obj
 0002:000170e0       ??_C@_15FBKGNKAM@?$AAf?$AAr?$AA?$AA@ 00000001800830e0     libucrtd:lcidtoname_downlevel.obj
 0002:000170e8       ??_C@_15KGGCNEFK@?$AAh?$AAe?$AA?$AA@ 00000001800830e8     libucrtd:lcidtoname_downlevel.obj
 0002:000170f0       ??_C@_15PGHLIDMF@?$AAh?$AAu?$AA?$AA@ 00000001800830f0     libucrtd:lcidtoname_downlevel.obj
 0002:000170f8       ??_C@_15BIEMAPLM@?$AAi?$AAs?$AA?$AA@ 00000001800830f8     libucrtd:lcidtoname_downlevel.obj
 0002:00017100       ??_C@_15IFJLDHAF@?$AAi?$AAt?$AA?$AA@ 0000000180083100     libucrtd:lcidtoname_downlevel.obj
 0002:00017108       ??_C@_15GEMIOCAG@?$AAj?$AAa?$AA?$AA@ 0000000180083108     libucrtd:lcidtoname_downlevel.obj
 0002:00017110       ??_C@_15EPELEGJA@?$AAk?$AAo?$AA?$AA@ 0000000180083110     libucrtd:lcidtoname_downlevel.obj
 0002:00017118       ??_C@_15NDDHIMN@?$AAn?$AAl?$AA?$AA@ 0000000180083118     libucrtd:lcidtoname_downlevel.obj
 0002:00017120       ??_C@_15BPIGNHCD@?$AAn?$AAo?$AA?$AA@ 0000000180083120     libucrtd:lcidtoname_downlevel.obj
 0002:00017128       ??_C@_15DEOPBLCG@?$AAp?$AAl?$AA?$AA@ 0000000180083128     libucrtd:lcidtoname_downlevel.obj
 0002:00017130       ??_C@_15KBECGEFG@?$AAp?$AAt?$AA?$AA@ 0000000180083130     libucrtd:lcidtoname_downlevel.obj
 0002:00017138       ??_C@_15GLJCBFMD@?$AAr?$AAo?$AA?$AA@ 0000000180083138     libucrtd:lcidtoname_downlevel.obj
 0002:00017140       ??_C@_15FEDGKCDI@?$AAr?$AAu?$AA?$AA@ 0000000180083140     libucrtd:lcidtoname_downlevel.obj
 0002:00017148       ??_C@_15GLKMLLHM@?$AAh?$AAr?$AA?$AA@ 0000000180083148     libucrtd:lcidtoname_downlevel.obj
 0002:00017150       ??_C@_15CPKMFBDB@?$AAs?$AAk?$AA?$AA@ 0000000180083150     libucrtd:lcidtoname_downlevel.obj
 0002:00017158       ??_C@_15BAAIOGMK@?$AAs?$AAq?$AA?$AA@ 0000000180083158     libucrtd:lcidtoname_downlevel.obj
 0002:00017160       ??_C@_15INNPNOHD@?$AAs?$AAv?$AA?$AA@ 0000000180083160     libucrtd:lcidtoname_downlevel.obj
 0002:00017168       ??_C@_15CABMMOGH@?$AAt?$AAh?$AA?$AA@ 0000000180083168     libucrtd:lcidtoname_downlevel.obj
 0002:00017170       ??_C@_15BPLIHJJM@?$AAt?$AAr?$AA?$AA@ 0000000180083170     libucrtd:lcidtoname_downlevel.obj
 0002:00017178       ??_C@_15NEOEKKDJ@?$AAu?$AAr?$AA?$AA@ 0000000180083178     libucrtd:lcidtoname_downlevel.obj
 0002:00017180       ??_C@_15NFICGAJK@?$AAi?$AAd?$AA?$AA@ 0000000180083180     libucrtd:lcidtoname_downlevel.obj
 0002:00017188       ??_C@_15HPJPHDM@?$AAb?$AAe?$AA?$AA@ 0000000180083188     libucrtd:lcidtoname_downlevel.obj
 0002:00017190       ??_C@_15LCHLGJII@?$AAs?$AAl?$AA?$AA@ 0000000180083190     libucrtd:lcidtoname_downlevel.obj
 0002:00017198       ??_C@_15PCFJPHHO@?$AAe?$AAt?$AA?$AA@ 0000000180083198     libucrtd:lcidtoname_downlevel.obj
 0002:000171a0       ??_C@_15HPFPGODN@?$AAl?$AAv?$AA?$AA@ 00000001800831a0     libucrtd:lcidtoname_downlevel.obj
 0002:000171a8       ??_C@_15NFFGKGLG@?$AAl?$AAt?$AA?$AA@ 00000001800831a8     libucrtd:lcidtoname_downlevel.obj
 0002:000171b0       ??_C@_15BDAKCCHN@?$AAf?$AAa?$AA?$AA@ 00000001800831b0     libucrtd:lcidtoname_downlevel.obj
 0002:000171b8       ??_C@_15NFGIAIAJ@?$AAv?$AAi?$AA?$AA@ 00000001800831b8     libucrtd:lcidtoname_downlevel.obj
 0002:000171c0       ??_C@_15LMKNDMHN@?$AAh?$AAy?$AA?$AA@ 00000001800831c0     libucrtd:lcidtoname_downlevel.obj
 0002:000171c8       ??_C@_15IJBHMCFL@?$AAa?$AAz?$AA?$AA@ 00000001800831c8     libucrtd:lcidtoname_downlevel.obj
 0002:000171d0       ??_C@_15EKOFJABL@?$AAe?$AAu?$AA?$AA@ 00000001800831d0     libucrtd:lcidtoname_downlevel.obj
 0002:000171d8       ??_C@_15BGHADCNK@?$AAm?$AAk?$AA?$AA@ 00000001800831d8     libucrtd:lcidtoname_downlevel.obj
 0002:000171e0       ??_C@_15JDNICKHM@?$AAa?$AAf?$AA?$AA@ 00000001800831e0     libucrtd:lcidtoname_downlevel.obj
 0002:000171e8       ??_C@_15KPJEDBKD@?$AAk?$AAa?$AA?$AA@ 00000001800831e8     libucrtd:lcidtoname_downlevel.obj
 0002:000171f0       ??_C@_15PDNFFFEO@?$AAf?$AAo?$AA?$AA@ 00000001800831f0     libucrtd:lcidtoname_downlevel.obj
 0002:000171f8       ??_C@_15OMLEGLOC@?$AAh?$AAi?$AA?$AA@ 00000001800831f8     libucrtd:lcidtoname_downlevel.obj
 0002:00017200       ??_C@_15IDNNENKK@?$AAm?$AAs?$AA?$AA@ 0000000180083200     libucrtd:lcidtoname_downlevel.obj
 0002:00017208       ??_C@_15MACJNBMH@?$AAk?$AAk?$AA?$AA@ 0000000180083208     libucrtd:lcidtoname_downlevel.obj
 0002:00017210       ??_C@_15DKDJEOND@?$AAk?$AAy?$AA?$AA@ 0000000180083210     libucrtd:lcidtoname_downlevel.obj
 0002:00017218       ??_C@_15DFGDLJBG@?$AAs?$AAw?$AA?$AA@ 0000000180083218     libucrtd:lcidtoname_downlevel.obj
 0002:00017220       ??_C@_15BBFAICNG@?$AAu?$AAz?$AA?$AA@ 0000000180083220     libucrtd:lcidtoname_downlevel.obj
 0002:00017228       ??_C@_15DKNDCGEA@?$AAt?$AAt?$AA?$AA@ 0000000180083228     libucrtd:lcidtoname_downlevel.obj
 0002:00017230       ??_C@_15MGIFMDPL@?$AAp?$AAa?$AA?$AA@ 0000000180083230     libucrtd:lcidtoname_downlevel.obj
 0002:00017238       ??_C@_15HCNDBBA@?$AAg?$AAu?$AA?$AA@ 0000000180083238     libucrtd:lcidtoname_downlevel.obj
 0002:00017240       ??_C@_15FNBEIBON@?$AAt?$AAa?$AA?$AA@ 0000000180083240     libucrtd:lcidtoname_downlevel.obj
 0002:00017248       ??_C@_15NCHGBGLK@?$AAt?$AAe?$AA?$AA@ 0000000180083248     libucrtd:lcidtoname_downlevel.obj
 0002:00017250       ??_C@_15PHPHCBPF@?$AAk?$AAn?$AA?$AA@ 0000000180083250     libucrtd:lcidtoname_downlevel.obj
 0002:00017258       ??_C@_15DLGBCKMP@?$AAm?$AAr?$AA?$AA@ 0000000180083258     libucrtd:lcidtoname_downlevel.obj
 0002:00017260       ??_C@_15EABBLBFF@?$AAs?$AAa?$AA?$AA@ 0000000180083260     libucrtd:lcidtoname_downlevel.obj
 0002:00017268       ??_C@_15CBKOMCOI@?$AAm?$AAn?$AA?$AA@ 0000000180083268     libucrtd:lcidtoname_downlevel.obj
 0002:00017270       ??_C@_15CKDMCJAF@?$AAg?$AAl?$AA?$AA@ 0000000180083270     libucrtd:lcidtoname_downlevel.obj
 0002:00017278       ??_C@_17CNJFBPG@?$AAk?$AAo?$AAk?$AA?$AA@ 0000000180083278     libucrtd:lcidtoname_downlevel.obj
 0002:00017280       ??_C@_17FFBJICPL@?$AAs?$AAy?$AAr?$AA?$AA@ 0000000180083280     libucrtd:lcidtoname_downlevel.obj
 0002:00017288       ??_C@_17KPNDCPAF@?$AAd?$AAi?$AAv?$AA?$AA@ 0000000180083288     libucrtd:lcidtoname_downlevel.obj
 0002:00017290       ??_C@_1M@OKAHONE@?$AAa?$AAr?$AA?9?$AAS?$AAA?$AA?$AA@ 0000000180083290     libucrtd:lcidtoname_downlevel.obj
 0002:000172a0       ??_C@_1M@FFFIGIGK@?$AAb?$AAg?$AA?9?$AAB?$AAG?$AA?$AA@ 00000001800832a0     libucrtd:lcidtoname_downlevel.obj
 0002:000172b0       ??_C@_1M@BJNKEDC@?$AAc?$AAa?$AA?9?$AAE?$AAS?$AA?$AA@ 00000001800832b0     libucrtd:lcidtoname_downlevel.obj
 0002:000172c0       ??_C@_1M@IJJHFJHA@?$AAc?$AAs?$AA?9?$AAC?$AAZ?$AA?$AA@ 00000001800832c0     libucrtd:lcidtoname_downlevel.obj
 0002:000172d0       ??_C@_1M@CLPEOBGI@?$AAd?$AAa?$AA?9?$AAD?$AAK?$AA?$AA@ 00000001800832d0     libucrtd:lcidtoname_downlevel.obj
 0002:000172e0       ??_C@_1M@MCMADGCB@?$AAd?$AAe?$AA?9?$AAD?$AAE?$AA?$AA@ 00000001800832e0     libucrtd:lcidtoname_downlevel.obj
 0002:000172f0       ??_C@_1M@OOCKEMAM@?$AAe?$AAl?$AA?9?$AAG?$AAR?$AA?$AA@ 00000001800832f0     libucrtd:lcidtoname_downlevel.obj
 0002:00017300       ??_C@_1M@DDNJFGID@?$AAf?$AAi?$AA?9?$AAF?$AAI?$AA?$AA@ 0000000180083300     libucrtd:lcidtoname_downlevel.obj
 0002:00017310       ??_C@_1M@GLIPPMAC@?$AAf?$AAr?$AA?9?$AAF?$AAR?$AA?$AA@ 0000000180083310     libucrtd:lcidtoname_downlevel.obj
 0002:00017320       ??_C@_1M@GFMCHPE@?$AAh?$AAe?$AA?9?$AAI?$AAL?$AA?$AA@ 0000000180083320     libucrtd:lcidtoname_downlevel.obj
 0002:00017330       ??_C@_1M@MHLPGNKM@?$AAh?$AAu?$AA?9?$AAH?$AAU?$AA?$AA@ 0000000180083330     libucrtd:lcidtoname_downlevel.obj
 0002:00017340       ??_C@_1M@LPDDNNPN@?$AAi?$AAs?$AA?9?$AAI?$AAS?$AA?$AA@ 0000000180083340     libucrtd:lcidtoname_downlevel.obj
 0002:00017350       ??_C@_1M@MADIPODN@?$AAi?$AAt?$AA?9?$AAI?$AAT?$AA?$AA@ 0000000180083350     libucrtd:lcidtoname_downlevel.obj
 0002:00017360       ??_C@_1M@IHBJJGG@?$AAn?$AAl?$AA?9?$AAN?$AAL?$AA?$AA@ 0000000180083360     libucrtd:lcidtoname_downlevel.obj
 0002:00017370       ??_C@_1M@EANAGDL@?$AAn?$AAb?$AA?9?$AAN?$AAO?$AA?$AA@ 0000000180083370     libucrtd:lcidtoname_downlevel.obj
 0002:00017380       ??_C@_1M@NEIEMEGP@?$AAp?$AAl?$AA?9?$AAP?$AAL?$AA?$AA@ 0000000180083380     libucrtd:lcidtoname_downlevel.obj
 0002:00017390       ??_C@_1M@BOCFIGEP@?$AAp?$AAt?$AA?9?$AAB?$AAR?$AA?$AA@ 0000000180083390     libucrtd:lcidtoname_downlevel.obj
 0002:000173a0       ??_C@_1M@IMPFOPBG@?$AAr?$AAo?$AA?9?$AAR?$AAO?$AA?$AA@ 00000001800833a0     libucrtd:lcidtoname_downlevel.obj
 0002:000173b0       ??_C@_1M@IDNNEJMM@?$AAr?$AAu?$AA?9?$AAR?$AAU?$AA?$AA@ 00000001800833b0     libucrtd:lcidtoname_downlevel.obj
 0002:000173c0       ??_C@_1M@LILEEOGM@?$AAh?$AAr?$AA?9?$AAH?$AAR?$AA?$AA@ 00000001800833c0     libucrtd:lcidtoname_downlevel.obj
 0002:000173d0       ??_C@_1M@FKIFEHPB@?$AAs?$AAk?$AA?9?$AAS?$AAK?$AA?$AA@ 00000001800833d0     libucrtd:lcidtoname_downlevel.obj
 0002:000173e0       ??_C@_1M@LJMAMNPJ@?$AAs?$AAq?$AA?9?$AAA?$AAL?$AA?$AA@ 00000001800833e0     libucrtd:lcidtoname_downlevel.obj
 0002:000173f0       ??_C@_1M@GIAKDKJK@?$AAs?$AAv?$AA?9?$AAS?$AAE?$AA?$AA@ 00000001800833f0     libucrtd:lcidtoname_downlevel.obj
 0002:00017400       ??_C@_1M@MKJKIKCL@?$AAt?$AAh?$AA?9?$AAT?$AAH?$AA?$AA@ 0000000180083400     libucrtd:lcidtoname_downlevel.obj
 0002:00017410       ??_C@_1M@MFLCCMPB@?$AAt?$AAr?$AA?9?$AAT?$AAR?$AA?$AA@ 0000000180083410     libucrtd:lcidtoname_downlevel.obj
 0002:00017420       ??_C@_1M@OIJHDKJN@?$AAu?$AAr?$AA?9?$AAP?$AAK?$AA?$AA@ 0000000180083420     libucrtd:lcidtoname_downlevel.obj
 0002:00017430       ??_C@_1M@LHIPCIEK@?$AAi?$AAd?$AA?9?$AAI?$AAD?$AA?$AA@ 0000000180083430     libucrtd:lcidtoname_downlevel.obj
 0002:00017440       ??_C@_1M@MFMOBGI@?$AAu?$AAk?$AA?9?$AAU?$AAA?$AA?$AA@ 0000000180083440     libucrtd:lcidtoname_downlevel.obj
 0002:00017450       ??_C@_1M@OBGLJIPL@?$AAb?$AAe?$AA?9?$AAB?$AAY?$AA?$AA@ 0000000180083450     libucrtd:lcidtoname_downlevel.obj
 0002:00017460       ??_C@_1M@BCFAJEAD@?$AAs?$AAl?$AA?9?$AAS?$AAI?$AA?$AA@ 0000000180083460     libucrtd:lcidtoname_downlevel.obj
 0002:00017470       ??_C@_1M@FKFFEDDN@?$AAe?$AAt?$AA?9?$AAE?$AAE?$AA?$AA@ 0000000180083470     libucrtd:lcidtoname_downlevel.obj
 0002:00017480       ??_C@_1M@KGKKAACI@?$AAl?$AAv?$AA?9?$AAL?$AAV?$AA?$AA@ 0000000180083480     libucrtd:lcidtoname_downlevel.obj
 0002:00017490       ??_C@_1M@IFGBIJO@?$AAl?$AAt?$AA?9?$AAL?$AAT?$AA?$AA@ 0000000180083490     libucrtd:lcidtoname_downlevel.obj
 0002:000174a0       ??_C@_1M@FGEAHEDM@?$AAf?$AAa?$AA?9?$AAI?$AAR?$AA?$AA@ 00000001800834a0     libucrtd:lcidtoname_downlevel.obj
 0002:000174b0       ??_C@_1M@KBMAIBFN@?$AAv?$AAi?$AA?9?$AAV?$AAN?$AA?$AA@ 00000001800834b0     libucrtd:lcidtoname_downlevel.obj
 0002:000174c0       ??_C@_1M@GPCBKDJK@?$AAh?$AAy?$AA?9?$AAA?$AAM?$AA?$AA@ 00000001800834c0     libucrtd:lcidtoname_downlevel.obj
 0002:000174d0       ??_C@_1BG@BECMDDJB@?$AAa?$AAz?$AA?9?$AAA?$AAZ?$AA?9?$AAL?$AAa?$AAt?$AAn?$AA?$AA@ 00000001800834d0     libucrtd:lcidtoname_downlevel.obj
 0002:000174e8       ??_C@_1M@MAOFCAEA@?$AAe?$AAu?$AA?9?$AAE?$AAS?$AA?$AA@ 00000001800834e8     libucrtd:lcidtoname_downlevel.obj
 0002:000174f8       ??_C@_1M@IGHABKPI@?$AAm?$AAk?$AA?9?$AAM?$AAK?$AA?$AA@ 00000001800834f8     libucrtd:lcidtoname_downlevel.obj
 0002:00017508       ??_C@_1M@IAIGNEJG@?$AAt?$AAn?$AA?9?$AAZ?$AAA?$AA?$AA@ 0000000180083508     libucrtd:lcidtoname_downlevel.obj
 0002:00017518       ??_C@_1M@IIJCOJFA@?$AAx?$AAh?$AA?9?$AAZ?$AAA?$AA?$AA@ 0000000180083518     libucrtd:lcidtoname_downlevel.obj
 0002:00017528       ??_C@_1M@LGPJHNJH@?$AAz?$AAu?$AA?9?$AAZ?$AAA?$AA?$AA@ 0000000180083528     libucrtd:lcidtoname_downlevel.obj
 0002:00017538       ??_C@_1M@HOKAOIO@?$AAa?$AAf?$AA?9?$AAZ?$AAA?$AA?$AA@ 0000000180083538     libucrtd:lcidtoname_downlevel.obj
 0002:00017548       ??_C@_1M@DPCLHLIE@?$AAk?$AAa?$AA?9?$AAG?$AAE?$AA?$AA@ 0000000180083548     libucrtd:lcidtoname_downlevel.obj
 0002:00017558       ??_C@_1M@BLKMHJBI@?$AAf?$AAo?$AA?9?$AAF?$AAO?$AA?$AA@ 0000000180083558     libucrtd:lcidtoname_downlevel.obj
 0002:00017568       ??_C@_1M@LGGJAPPB@?$AAh?$AAi?$AA?9?$AAI?$AAN?$AA?$AA@ 0000000180083568     libucrtd:lcidtoname_downlevel.obj
 0002:00017578       ??_C@_1M@FIKPIHFE@?$AAm?$AAt?$AA?9?$AAM?$AAT?$AA?$AA@ 0000000180083578     libucrtd:lcidtoname_downlevel.obj
 0002:00017588       ??_C@_1M@HEGGPBFA@?$AAs?$AAe?$AA?9?$AAN?$AAO?$AA?$AA@ 0000000180083588     libucrtd:lcidtoname_downlevel.obj
 0002:00017598       ??_C@_1M@EIBJEEPA@?$AAm?$AAs?$AA?9?$AAM?$AAY?$AA?$AA@ 0000000180083598     libucrtd:lcidtoname_downlevel.obj
 0002:000175a8       ??_C@_1M@FHLBGMPP@?$AAk?$AAk?$AA?9?$AAK?$AAZ?$AA?$AA@ 00000001800835a8     libucrtd:lcidtoname_downlevel.obj
 0002:000175b8       ??_C@_1M@NGJJLCGI@?$AAk?$AAy?$AA?9?$AAK?$AAG?$AA?$AA@ 00000001800835b8     libucrtd:lcidtoname_downlevel.obj
 0002:000175c8       ??_C@_1M@GIENNBFC@?$AAs?$AAw?$AA?9?$AAK?$AAE?$AA?$AA@ 00000001800835c8     libucrtd:lcidtoname_downlevel.obj
 0002:000175d8       ??_C@_0DH@IKPCBLP@minkernel?2crts?2ucrt?2src?2appcrt?2l@ 00000001800835d8     libucrtd:lcmapstringa.obj
 0002:00017610       ??_C@_1BK@FPAMLIDG@?$AAs?$AA?5?$AA?$CB?$AA?$DN?$AA?5?$AAn?$AAu?$AAl?$AAl?$AAp?$AAt?$AAr?$AA?$AA@ 0000000180083610     libucrtd:mbstowcs.obj
 0002:00017630       ??_C@_1GI@KABMHNPH@?$AAm?$AAi?$AAn?$AAk?$AAe?$AAr?$AAn?$AAe?$AAl?$AA?2?$AAc?$AAr?$AAt?$AAs?$AA?2?$AAu?$AAc?$AAr?$AAt?$AA?2?$AAs?$AAr?$AAc?$AA?2?$AAa?$AAp?$AAp?$AAc?$AAr?$AAt?$AA?2?$AAc@ 0000000180083630     libucrtd:mbstowcs.obj
 0002:00017698       ??_C@_1CG@JEHFHLNG@?$AA_?$AAm?$AAb?$AAs?$AAt?$AAo?$AAw?$AAc?$AAs?$AA_?$AAl?$AA_?$AAh?$AAe?$AAl?$AAp?$AAe?$AAr?$AA?$AA@ 0000000180083698     libucrtd:mbstowcs.obj
 0002:000176c0       ??_C@_1JM@MEKBACIG@?$AA?$CI?$AAp?$AAw?$AAc?$AAs?$AA?5?$AA?$DN?$AA?$DN?$AA?5?$AAn?$AAu?$AAl?$AAl?$AAp?$AAt?$AAr?$AA?5?$AA?$CG?$AA?$CG?$AA?5?$AAs?$AAi?$AAz?$AAe?$AAI?$AAn?$AAW?$AAo?$AAr?$AAd?$AAs?$AA?5@ 00000001800836c0     libucrtd:mbstowcs.obj
 0002:00017760       ??_C@_1BM@PHENIGHD@?$AA_?$AAm?$AAb?$AAs?$AAt?$AAo?$AAw?$AAc?$AAs?$AA_?$AAs?$AA_?$AAl?$AA?$AA@ 0000000180083760     libucrtd:mbstowcs.obj
 0002:00017780       ??_C@_1CM@LLECFMFH@?$AAb?$AAu?$AAf?$AAf?$AAe?$AAr?$AAS?$AAi?$AAz?$AAe?$AA?5?$AA?$DM?$AA?$DN?$AA?5?$AAI?$AAN?$AAT?$AA_?$AAM?$AAA?$AAX?$AA?$AA@ 0000000180083780     libucrtd:mbstowcs.obj
 0002:000177b0       ??_C@_1CO@JNPEPJAL@?$AAr?$AAe?$AAt?$AAs?$AAi?$AAz?$AAe?$AA?5?$AA?$DM?$AA?$DN?$AA?5?$AAs?$AAi?$AAz?$AAe?$AAI?$AAn?$AAW?$AAo?$AAr?$AAd?$AAs?$AA?$AA@ 00000001800837b0     libucrtd:mbstowcs.obj
 0002:00017808       ??_C@_1CA@NOKNKDIG@?$AAp?$AAw?$AAc?$AAs?$AA?5?$AA?$CB?$AA?$DN?$AA?5?$AAn?$AAu?$AAl?$AAl?$AAp?$AAt?$AAr?$AA?$AA@ 0000000180083808     libucrtd:wcstombs.obj
 0002:00017830       ??_C@_1GI@EEJDEALP@?$AAm?$AAi?$AAn?$AAk?$AAe?$AAr?$AAn?$AAe?$AAl?$AA?2?$AAc?$AAr?$AAt?$AAs?$AA?2?$AAu?$AAc?$AAr?$AAt?$AA?2?$AAs?$AAr?$AAc?$AA?2?$AAa?$AAp?$AAp?$AAc?$AAr?$AAt?$AA?2?$AAc@ 0000000180083830     libucrtd:wcstombs.obj
 0002:00017898       ??_C@_1CG@LLJCAOHF@?$AA_?$AAw?$AAc?$AAs?$AAt?$AAo?$AAm?$AAb?$AAs?$AA_?$AAl?$AA_?$AAh?$AAe?$AAl?$AAp?$AAe?$AAr?$AA?$AA@ 0000000180083898     libucrtd:wcstombs.obj
 0002:000178c0       ??_C@_1JI@DFNKFCLG@?$AA?$CI?$AAd?$AAs?$AAt?$AA?5?$AA?$CB?$AA?$DN?$AA?5?$AAn?$AAu?$AAl?$AAl?$AAp?$AAt?$AAr?$AA?5?$AA?$CG?$AA?$CG?$AA?5?$AAs?$AAi?$AAz?$AAe?$AAI?$AAn?$AAB?$AAy?$AAt?$AAe?$AAs?$AA?5?$AA?$DO@ 00000001800838c0     libucrtd:wcstombs.obj
 0002:00017958       ??_C@_1BM@BDMCLLDL@?$AA_?$AAw?$AAc?$AAs?$AAt?$AAo?$AAm?$AAb?$AAs?$AA_?$AAs?$AA_?$AAl?$AA?$AA@ 0000000180083958     libucrtd:wcstombs.obj
 0002:00017978       ??_C@_1CM@KEOGBFLI@?$AAs?$AAi?$AAz?$AAe?$AAI?$AAn?$AAB?$AAy?$AAt?$AAe?$AAs?$AA?5?$AA?$DO?$AA?5?$AAr?$AAe?$AAt?$AAs?$AAi?$AAz?$AAe?$AA?$AA@ 0000000180083978     libucrtd:wcstombs.obj
 0002:000179b0       ??_C@_1GI@IMEEHIAK@?$AAm?$AAi?$AAn?$AAk?$AAe?$AAr?$AAn?$AAe?$AAl?$AA?2?$AAc?$AAr?$AAt?$AAs?$AA?2?$AAu?$AAc?$AAr?$AAt?$AA?2?$AAs?$AAr?$AAc?$AA?2?$AAa?$AAp?$AAp?$AAc?$AAr?$AAt?$AA?2?$AAc@ 00000001800839b0     libucrtd:_fptostr.obj
 0002:00017a18       ??_C@_1DG@NMGBKPMI@?$AA_?$AA_?$AAa?$AAc?$AAr?$AAt?$AA_?$AAf?$AAp?$AA_?$AAs?$AAt?$AAr?$AAf?$AAl?$AAt?$AA_?$AAt?$AAo?$AA_?$AAs?$AAt?$AAr?$AAi?$AAn?$AAg?$AA?$AA@ 0000000180083a18     libucrtd:_fptostr.obj
 0002:00017a50       ??_C@_1IE@EAOKIIFP@?$AAb?$AAu?$AAf?$AAf?$AAe?$AAr?$AA_?$AAc?$AAo?$AAu?$AAn?$AAt?$AA?5?$AA?$DO?$AA?5?$AAs?$AAt?$AAa?$AAt?$AAi?$AAc?$AA_?$AAc?$AAa?$AAs?$AAt?$AA?$DM?$AAs?$AAi?$AAz?$AAe?$AA_@ 0000000180083a50     libucrtd:_fptostr.obj
 0002:00017ad8       ??_C@_1CA@EDEEBMBB@?$AAp?$AAf?$AAl?$AAt?$AA?5?$AA?$CB?$AA?$DN?$AA?5?$AAn?$AAu?$AAl?$AAl?$AAp?$AAt?$AAr?$AA?$AA@ 0000000180083ad8     libucrtd:_fptostr.obj
 0002:00017b00       ?large_power_data@?1??multiply_by_power_of_ten@__crt_strtox@@YA_NAEAUbig_integer@2@I@Z@4QBIB 0000000180083b00     libucrtd:cfout.obj
 0002:00018410       ?large_power_indices@?1??multiply_by_power_of_ten@__crt_strtox@@YA_NAEAUbig_integer@2@I@Z@4QBUunpack_index@?1??12@YA_N0I@Z@B 0000000180084410     libucrtd:cfout.obj
 0002:000184a8       ?small_powers_of_ten@?6??multiply_by_power_of_ten@__crt_strtox@@YA_NAEAUbig_integer@2@I@Z@4QBIB 00000001800844a8     libucrtd:cfout.obj
 0002:000184d0       ??_C@_1DI@GICAMMFM@?$AA?$CI?$AA?$CC?$AAD?$AAi?$AAv?$AAi?$AAs?$AAi?$AAo?$AAn?$AA?5?$AAb?$AAy?$AA?5?$AAz?$AAe?$AAr?$AAo?$AA?$CC?$AA?0?$AA?5?$AAf?$AAa?$AAl?$AAs?$AAe?$AA?$CJ?$AA?$AA@ 00000001800844d0     libucrtd:cfout.obj
 0002:00018510       ??_C@_1GO@BFGDDONN@?$AAm?$AAi?$AAn?$AAk?$AAe?$AAr?$AAn?$AAe?$AAl?$AA?2?$AAc?$AAr?$AAt?$AAs?$AA?2?$AAu?$AAc?$AAr?$AAt?$AA?2?$AAi?$AAn?$AAc?$AA?2?$AAc?$AAo?$AAr?$AAe?$AAc?$AAr?$AAt?$AA_@ 0000000180084510     libucrtd:cfout.obj
 0002:00018580       ??_C@_1GC@DDAKNBNC@?$AAm?$AAi?$AAn?$AAk?$AAe?$AAr?$AAn?$AAe?$AAl?$AA?2?$AAc?$AAr?$AAt?$AAs?$AA?2?$AAu?$AAc?$AAr?$AAt?$AA?2?$AAs?$AAr?$AAc?$AA?2?$AAa?$AAp?$AAp?$AAc?$AAr?$AAt?$AA?2?$AAc@ 0000000180084580     libucrtd:cfout.obj
 0002:000185e8       ??_C@_1BM@FAAOAKKO@?$AA_?$AA_?$AAa?$AAc?$AAr?$AAt?$AA_?$AAf?$AAl?$AAt?$AAo?$AAu?$AAt?$AA?$AA@ 00000001800845e8     libucrtd:cfout.obj
 0002:00018610       ??_C@_1EI@OACEJKEP@?$AAs?$AAt?$AAr?$AAc?$AAp?$AAy?$AA_?$AAs?$AA?$CI?$AAr?$AAe?$AAs?$AAu?$AAl?$AAt?$AA?0?$AA?5?$AAr?$AAe?$AAs?$AAu?$AAl?$AAt?$AA_?$AAc?$AAo?$AAu?$AAn?$AAt?$AA?0?$AA?5?$AA?$CC@ 0000000180084610     libucrtd:cfout.obj
 0002:00018658       ??_C@_01GBGANLPD@0?$AA@    0000000180084658     libucrtd:cfout.obj
 0002:00018660       ??_C@_1FC@KIECGFMP@?$AAs?$AAt?$AAr?$AAc?$AAp?$AAy?$AA_?$AAs?$AA?$CI?$AAr?$AAe?$AAs?$AAu?$AAl?$AAt?$AA?0?$AA?5?$AAr?$AAe?$AAs?$AAu?$AAl?$AAt?$AA_?$AAc?$AAo?$AAu?$AAn?$AAt?$AA?0?$AA?5?$AA?$CC@ 0000000180084660     libucrtd:cfout.obj
 0002:000186b4       ??_C@_05DNEBIAHO@1?$CDINF?$AA@ 00000001800846b4     libucrtd:cfout.obj
 0002:000186c0       ??_C@_1FC@NFPJEIBD@?$AAs?$AAt?$AAr?$AAc?$AAp?$AAy?$AA_?$AAs?$AA?$CI?$AAr?$AAe?$AAs?$AAu?$AAl?$AAt?$AA?0?$AA?5?$AAr?$AAe?$AAs?$AAu?$AAl?$AAt?$AA_?$AAc?$AAo?$AAu?$AAn?$AAt?$AA?0?$AA?5?$AA?$CC@ 00000001800846c0     libucrtd:cfout.obj
 0002:00018714       ??_C@_06IMKFLFPG@1?$CDQNAN?$AA@ 0000000180084714     libucrtd:cfout.obj
 0002:00018720       ??_C@_1FC@DEJHIMLO@?$AAs?$AAt?$AAr?$AAc?$AAp?$AAy?$AA_?$AAs?$AA?$CI?$AAr?$AAe?$AAs?$AAu?$AAl?$AAt?$AA?0?$AA?5?$AAr?$AAe?$AAs?$AAu?$AAl?$AAt?$AA_?$AAc?$AAo?$AAu?$AAn?$AAt?$AA?0?$AA?5?$AA?$CC@ 0000000180084720     libucrtd:cfout.obj
 0002:00018774       ??_C@_06PGGFOGJG@1?$CDSNAN?$AA@ 0000000180084774     libucrtd:cfout.obj
 0002:00018780       ??_C@_1FC@KMLHLFPC@?$AAs?$AAt?$AAr?$AAc?$AAp?$AAy?$AA_?$AAs?$AA?$CI?$AAr?$AAe?$AAs?$AAu?$AAl?$AAt?$AA?0?$AA?5?$AAr?$AAe?$AAs?$AAu?$AAl?$AAt?$AA_?$AAc?$AAo?$AAu?$AAn?$AAt?$AA?0?$AA?5?$AA?$CC@ 0000000180084780     libucrtd:cfout.obj
 0002:000187d4       ??_C@_05PHHOCPM@1?$CDIND?$AA@ 00000001800847d4     libucrtd:cfout.obj
 0002:000187e0       ??_C@_1DE@KHKADFOO@?$AAm?$AAa?$AAn?$AAt?$AAi?$AAs?$AAs?$AAa?$AA_?$AAb?$AAu?$AAf?$AAf?$AAe?$AAr?$AA_?$AAc?$AAo?$AAu?$AAn?$AAt?$AA?5?$AA?$DO?$AA?5?$AA0?$AA?$AA@ 00000001800847e0     libucrtd:cfout.obj
 0002:00018820       ??_C@_1FI@LFKLOPAC@?$AA?$CI?$AA?$CC?$AAu?$AAn?$AAe?$AAx?$AAp?$AAe?$AAc?$AAt?$AAe?$AAd?$AA?5?$AAi?$AAn?$AAp?$AAu?$AAt?$AA?5?$AAv?$AAa?$AAl?$AAu?$AAe?$AA?$DL?$AA?5?$AAl?$AAo?$AAg?$AA1?$AA0?$AA?5@ 0000000180084820     libucrtd:cfout.obj
 0002:00018880       ??_C@_1FG@MLHBDPBG@?$AAq?$AAu?$AAo?$AAt?$AAi?$AAe?$AAn?$AAt?$AA?5?$AA?$DM?$AA?5?$AAd?$AAi?$AAg?$AAi?$AAt?$AAs?$AA_?$AAp?$AAe?$AAr?$AA_?$AAi?$AAt?$AAe?$AAr?$AAa?$AAt?$AAi?$AAo?$AAn?$AA_@ 0000000180084880     libucrtd:cfout.obj
 0002:000188e0       ??_C@_1GC@DFIGBGJI@?$AAm?$AAi?$AAn?$AAk?$AAe?$AAr?$AAn?$AAe?$AAl?$AA?2?$AAc?$AAr?$AAt?$AAs?$AA?2?$AAu?$AAc?$AAr?$AAt?$AA?2?$AAs?$AAr?$AAc?$AA?2?$AAa?$AAp?$AAp?$AAc?$AAr?$AAt?$AA?2?$AAs@ 00000001800848e0     libucrtd:_flsbuf.obj
 0002:00018950       ??_C@_1HO@MLMGPAFH@?$AA?$CI?$AA?$CC?$AAi?$AAn?$AAc?$AAo?$AAn?$AAs?$AAi?$AAs?$AAt?$AAe?$AAn?$AAt?$AA?5?$AAI?$AAO?$AAB?$AA?5?$AAf?$AAi?$AAe?$AAl?$AAd?$AAs?$AA?$CC?$AA?0?$AA?5?$AAs?$AAt?$AAr?$AAe@ 0000000180084950     libucrtd:_flsbuf.obj
 0002:000189d0       ??_C@_1GC@CIJNGKLD@?$AAm?$AAi?$AAn?$AAk?$AAe?$AAr?$AAn?$AAe?$AAl?$AA?2?$AAc?$AAr?$AAt?$AAs?$AA?2?$AAu?$AAc?$AAr?$AAt?$AA?2?$AAs?$AAr?$AAc?$AA?2?$AAa?$AAp?$AAp?$AAc?$AAr?$AAt?$AA?2?$AAl@ 00000001800849d0     libucrtd:setmode.obj
 0002:00018a38       ??_C@_1CC@ODGEBJBO@?$AAp?$AAM?$AAo?$AAd?$AAe?$AA?5?$AA?$CB?$AA?$DN?$AA?5?$AAn?$AAu?$AAl?$AAl?$AAp?$AAt?$AAr?$AA?$AA@ 0000000180084a38     libucrtd:setmode.obj
 0002:00018a60       ??_C@_1BG@CKGMPOFH@?$AA_?$AAg?$AAe?$AAt?$AA_?$AAf?$AAm?$AAo?$AAd?$AAe?$AA?$AA@ 0000000180084a60     libucrtd:setmode.obj
 0002:00018a80       ??_C@_1HK@GGMCFJDH@?$AAm?$AAi?$AAn?$AAk?$AAe?$AAr?$AAn?$AAe?$AAl?$AA?2?$AAc?$AAr?$AAt?$AAs?$AA?2?$AAu?$AAc?$AAr?$AAt?$AA?2?$AAs?$AAr?$AAc?$AA?2?$AAa?$AAp?$AAp?$AAc?$AAr?$AAt?$AA?2?$AAi@ 0000000180084a80     libucrtd:string_utilities.obj
 0002:00018b00       ??_C@_1EA@EAGMBFGP@?$AA_?$AA_?$AAa?$AAc?$AAr?$AAt?$AA_?$AAc?$AAo?$AAp?$AAy?$AA_?$AAp?$AAa?$AAt?$AAh?$AA_?$AAt?$AAo?$AA_?$AAw?$AAi?$AAd?$AAe?$AA_?$AAs?$AAt?$AAr?$AAi?$AAn?$AAg?$AA?$AA@ 0000000180084b00     libucrtd:string_utilities.obj
 0002:00018b40       ??_C@_0DN@PGJNBGOL@minkernel?2crts?2ucrt?2src?2appcrt?2i@ 0000000180084b40     libucrtd:string_utilities.obj
 0002:00018b80       ??_C@_0DA@IEKPAGFB@minkernel?2crts?2ucrt?2src?2appcrt?2l@ 0000000180084b80     libucrtd:chsize.obj
 0002:00018bb0       ??_C@_1EK@PDBKILLM@?$AA?$CI?$AAm?$AAa?$AAs?$AAk?$AA?$CG?$AA?$HO?$AA?$CI?$AA_?$AAM?$AAC?$AAW?$AA_?$AAD?$AAN?$AA?$HM?$AA_?$AAM?$AAC?$AAW?$AA_?$AAE?$AAM?$AA?$HM?$AA_?$AAM?$AAC?$AAW?$AA_?$AAR?$AAC?$AA?$CJ@ 0000000180084bb0     libucrtd:ieee.obj
 0002:00018c00       ??_C@_1GC@IEFABLII@?$AAm?$AAi?$AAn?$AAk?$AAe?$AAr?$AAn?$AAe?$AAl?$AA?2?$AAc?$AAr?$AAt?$AAs?$AA?2?$AAu?$AAc?$AAr?$AAt?$AA?2?$AAs?$AAr?$AAc?$AA?2?$AAa?$AAp?$AAp?$AAc?$AAr?$AAt?$AA?2?$AAt@ 0000000180084c00     libucrtd:ieee.obj
 0002:00018ec0       ??_C@_1BA@BALFACEM@?$AAC?$AAO?$AAN?$AAO?$AAU?$AAT?$AA$?$AA?$AA@ 0000000180084ec0     libucrtd:initcon.obj
 0002:00018ed0       __log10_256_lead           0000000180084ed0     libucrtd:log10_256_lead_tail_table.obj
 0002:000196e0       __log10_256_tail           00000001800856e0     libucrtd:log10_256_lead_tail_table.obj
 0002:00019ef0       __log_F_inv_qword          0000000180085ef0     libucrtd:log_f_inv_qword_table.obj
 0002:0001a708       ??_7type_info@@6B@         0000000180086708     LIBCMTD:std_type_info_static.obj
 0002:0001a7a8       _pDestructExceptionObject  00000001800867a8     libvcruntimed:frame.obj
 0002:0001a7b8       ??_7exception@std@@6B@     00000001800867b8     libvcruntimed:frame.obj
 0002:0001a7c8       ??_C@_0BC@EOODALEL@Unknown?5exception?$AA@ 00000001800867c8     libvcruntimed:frame.obj
 0002:0001a7e8       ??_7bad_exception@std@@6B@ 00000001800867e8     libvcruntimed:frame.obj
 0002:0001a7f8       ??_C@_0O@DPKOEFFH@bad?5exception?$AA@ 00000001800867f8     libvcruntimed:frame.obj
 0002:0001a810       ??_C@_1FK@OACNEHHA@?$AAt?$AAo?$AA?9?$AA?$DO?$AA_?$AAW?$AAh?$AAa?$AAt?$AA?5?$AA?$DN?$AA?$DN?$AA?5?$AAn?$AAu?$AAl?$AAl?$AAp?$AAt?$AAr?$AA?5?$AA?$CG?$AA?$CG?$AA?5?$AAt?$AAo?$AA?9?$AA?$DO?$AA_?$AAD?$AAo?$AAF@ 0000000180086810     libvcruntimed:std_exception.obj
 0002:0001a870       ??_C@_1GK@GJEBHBCE@?$AAf?$AA?3?$AA?2?$AAd?$AAd?$AA?2?$AAv?$AAc?$AAt?$AAo?$AAo?$AAl?$AAs?$AA?2?$AAc?$AAr?$AAt?$AA?2?$AAv?$AAc?$AAr?$AAu?$AAn?$AAt?$AAi?$AAm?$AAe?$AA?2?$AAs?$AAr?$AAc?$AA?2@ 0000000180086870     libvcruntimed:std_exception.obj
 0002:0001a980       _load_config_used          0000000180086980     LIBCMTD:loadcfg.obj
 0002:0001aa18       ??_R4type_info@@6B@        0000000180086a18     LIBCMTD:std_type_info_static.obj
 0002:0001aa40       ??_R3type_info@@8          0000000180086a40     LIBCMTD:std_type_info_static.obj
 0002:0001aa58       ??_R2type_info@@8          0000000180086a58     LIBCMTD:std_type_info_static.obj
 0002:0001aa68       ??_R1A@?0A@EA@type_info@@8 0000000180086a68     LIBCMTD:std_type_info_static.obj
 0002:0001aa90       ??_R4exception@std@@6B@    0000000180086a90     libvcruntimed:frame.obj
 0002:0001aab8       ??_R3exception@std@@8      0000000180086ab8     libvcruntimed:frame.obj
 0002:0001aad0       ??_R2exception@std@@8      0000000180086ad0     libvcruntimed:frame.obj
 0002:0001aae0       ??_R1A@?0A@EA@exception@std@@8 0000000180086ae0     libvcruntimed:frame.obj
 0002:0001ab08       ??_R4bad_exception@std@@6B@ 0000000180086b08     libvcruntimed:frame.obj
 0002:0001ab30       ??_R3bad_exception@std@@8  0000000180086b30     libvcruntimed:frame.obj
 0002:0001ab48       ??_R2bad_exception@std@@8  0000000180086b48     libvcruntimed:frame.obj
 0002:0001ab60       ??_R1A@?0A@EA@bad_exception@std@@8 0000000180086b60     libvcruntimed:frame.obj
 0002:0001ab88       ?_TraceLoggingMetadata@?1??_TlgWrite@__vcrt_trace_logging_provider@@YAJPEBU_TlgProvider_t@2@PEFBXPEBU_GUID@@2IPEAU_EVENT_DATA_DESCRIPTOR@@@Z@4U_TraceLoggingMetadata_t@2@B 0000000180086b88     libvcruntimed:telemetry.obj
 0002:0001ac3b       ?_TraceLoggingMetadataEnd@?1??_TlgWrite@__vcrt_trace_logging_provider@@YAJPEBU_TlgProvider_t@2@PEFBXPEBU_GUID@@2IPEAU_EVENT_DATA_DESCRIPTOR@@@Z@4EB 0000000180086c3b     libvcruntimed:telemetry.obj
 0002:0001af98       __rtc_iaa                  0000000180086f98     LIBCMTD:_initsect_.obj
 0002:0001afa0       __rtc_izz                  0000000180086fa0     LIBCMTD:_initsect_.obj
 0002:0001afa8       __rtc_taa                  0000000180086fa8     LIBCMTD:_initsect_.obj
 0002:0001afb0       __rtc_tzz                  0000000180086fb0     LIBCMTD:_initsect_.obj
 0002:0001ccb0       _TI2?AVbad_exception@std@@ 0000000180088cb0     libvcruntimed:frame.obj
 0002:0001ccd0       _CTA2?AVbad_exception@std@@ 0000000180088cd0     libvcruntimed:frame.obj
 0002:0001cce8       _CT??_R0?AVbad_exception@std@@@8??0bad_exception@std@@QEAA@AEBV01@@Z24 0000000180088ce8     libvcruntimed:frame.obj
 0002:0001cd10       _CT??_R0?AVexception@std@@@8??0exception@std@@QEAA@AEBV01@@Z24 0000000180088d10     libvcruntimed:frame.obj
 0002:0001cd94       __IMPORT_DESCRIPTOR_KERNEL32 0000000180088d94     kernel32:KERNEL32.dll
 0002:0001cda8       __IMPORT_DESCRIPTOR_ADVAPI32 0000000180088da8     advapi32:ADVAPI32.dll
 0002:0001cdbc       __NULL_IMPORT_DESCRIPTOR   0000000180088dbc     kernel32:KERNEL32.dll
 0003:00000790       __security_cookie          000000018008a790     LIBCMTD:gs_cookie.obj
 0003:00000798       __security_cookie_complement 000000018008a798     LIBCMTD:gs_cookie.obj
 0003:000007a0       _fltused                   000000018008a7a0     LIBCMTD:fltused.obj
 0003:000007a4       __scrt_native_dllmain_reason 000000018008a7a4     LIBCMTD:utility.obj
 0003:000007a8       __isa_available            000000018008a7a8     LIBCMTD:_cpu_disp_.obj
 0003:000007ac       __isa_enabled              000000018008a7ac     LIBCMTD:_cpu_disp_.obj
 0003:000007b0       __memcpy_nt_iters          000000018008a7b0     LIBCMTD:_cpu_disp_.obj
 0003:00000824       _crtDbgFlag                000000018008a824     libucrtd:debug_heap.obj
 0003:00000828       _crtBreakAlloc             000000018008a828     libucrtd:debug_heap.obj
 0003:00000830       __abort_behavior           000000018008a830     libucrtd:abort.obj
 0003:00000840       _iob                       000000018008a840     libucrtd:_file.obj
 0003:00000950       _lookuptrailbytes          000000018008a950     libucrtd:read.obj
 0003:00000a50       __badioinfo                000000018008aa50     libucrtd:ioinit.obj
 0003:00000aa0       __acrt_initial_locale_data 000000018008aaa0     libucrtd:nlsdata.obj
 0003:00000bf8       __acrt_initial_locale_pointers 000000018008abf8     libucrtd:nlsdata.obj
 0003:00000c08       __acrt_wide_c_locale_string 000000018008ac08     libucrtd:nlsdata.obj
 0003:00000c10       __acrt_initial_multibyte_data 000000018008ac10     libucrtd:mbctype.obj
 0003:00000e38       __acrt_current_multibyte_data 000000018008ae38     libucrtd:mbctype.obj
 0003:00000f40       _mbctype                   000000018008af40     libucrtd:mbctype.obj
 0003:00001050       _mbcasemap                 000000018008b050     libucrtd:mbctype.obj
 0003:00001150       _pfnAllocHook              000000018008b150     libucrtd:debug_heap_hook.obj
 0003:00001160       _crtAssertBusy             000000018008b160     libucrtd:dbgrptt.obj
 0003:00001168       _CrtDbgMode                000000018008b168     libucrtd:dbgrptt.obj
 0003:00001178       _CrtDbgFile                000000018008b178     libucrtd:dbgrptt.obj
 0003:00001190       _pwctype                   000000018008b190     libucrtd:ctype.obj
 0003:00001198       __globallocalestatus       000000018008b198     libucrtd:glstatus.obj
 0003:000011a0       __acrt_lconv_c             000000018008b1a0     libucrtd:localeconv.obj
 0003:00001238       __acrt_lconv_static_decimal 000000018008b238     libucrtd:localeconv.obj
 0003:0000123c       __acrt_lconv_static_W_decimal 000000018008b23c     libucrtd:localeconv.obj
 0003:00001250       __dcrt_lowio_console_output_handle 000000018008b250     libucrtd:initcon.obj
 0003:00001260       ??_R0?AVtype_info@@@8      000000018008b260     LIBCMTD:std_type_info_static.obj
 0003:00001280       ??_R0?AVbad_exception@std@@@8 000000018008b280     libvcruntimed:frame.obj
 0003:000012a8       ??_R0?AVexception@std@@@8  000000018008b2a8     libvcruntimed:frame.obj
 0003:000019e0       __scrt_current_native_startup_state 000000018008b9e0     LIBCMTD:utility.obj
 0003:000019e8       __scrt_native_startup_lock 000000018008b9e8     LIBCMTD:utility.obj
 0003:00001a00       ?__type_info_root_node@@3U__type_info_node@@A 000000018008ba00     LIBCMTD:tncleanup.obj
 0003:00001a10       ?_OptionsStorage@?1??__local_stdio_printf_options@@9@4_KA 000000018008ba10     LIBCMTD:default_local_stdio_options.obj
 0003:00001a18       ?_OptionsStorage@?1??__local_stdio_scanf_options@@9@4_KA 000000018008ba18     LIBCMTD:default_local_stdio_options.obj
 0003:00001a20       __scrt_debugger_hook_flag  000000018008ba20     LIBCMTD:utility_desktop.obj
 0003:00001a24       __favor                    000000018008ba24     LIBCMTD:_cpu_disp_.obj
 0003:00001b48       __pPurecall                000000018008bb48     libvcruntimed:purevirt_data.obj
 0003:00001b50       ?pArgList@UnDecorator@@0PEAVReplicator@@EA 000000018008bb50     libvcruntimed:undname.obj
 0003:00001b58       ?pZNameList@UnDecorator@@0PEAVReplicator@@EA 000000018008bb58     libvcruntimed:undname.obj
 0003:00001b60       ?pTemplateArgList@UnDecorator@@0PEAVReplicator@@EA 000000018008bb60     libvcruntimed:undname.obj
 0003:00001b68       ?gName@UnDecorator@@0PEBDEB 000000018008bb68     libvcruntimed:undname.obj
 0003:00001b70       ?name@UnDecorator@@0PEBDEB 000000018008bb70     libvcruntimed:undname.obj
 0003:00001b78       ?outputString@UnDecorator@@0PEADEA 000000018008bb78     libvcruntimed:undname.obj
 0003:00001b80       ?maxStringLength@UnDecorator@@0HA 000000018008bb80     libvcruntimed:undname.obj
 0003:00001b84       ?disableFlags@UnDecorator@@0KA 000000018008bb84     libvcruntimed:undname.obj
 0003:00001b88       ?fExplicitTemplateParams@UnDecorator@@0_NA 000000018008bb88     libvcruntimed:undname.obj
 0003:00001b89       ?fGetTemplateArgumentList@UnDecorator@@0_NA 000000018008bb89     libvcruntimed:undname.obj
 0003:00001b90       ?m_pGetParameter@UnDecorator@@0P6APEADJ@ZEA 000000018008bb90     libvcruntimed:undname.obj
 0003:00001bd8       _environ_table             000000018008bbd8     libucrtd:environment_initialization.obj
 0003:00001be0       _wenviron_table            000000018008bbe0     libucrtd:environment_initialization.obj
 0003:00001be8       __dcrt_initial_wide_environment 000000018008bbe8     libucrtd:environment_initialization.obj
 0003:00001bf0       __dcrt_initial_narrow_environment 000000018008bbf0     libucrtd:environment_initialization.obj
 0003:00001bf8       __acrt_atexit_table        000000018008bbf8     libucrtd:onexit.obj
 0003:00001c10       __acrt_at_quick_exit_table 000000018008bc10     libucrtd:onexit.obj
 0003:00001c60       _pfnDumpClient             000000018008bc60     libucrtd:debug_heap.obj
 0003:000022b0       _nstream                   000000018008c2b0     libucrtd:_file.obj
 0003:000022b8       __piob                     000000018008c2b8     libucrtd:_file.obj
 0003:000022c0       _cflush                    000000018008c2c0     libucrtd:_file.obj
 0003:000022f0       __pioinfo                  000000018008c2f0     libucrtd:ioinit.obj
 0003:000026f0       _nhandle                   000000018008c6f0     libucrtd:ioinit.obj
 0003:000026f4       __acrt_locale_changed_data 000000018008c6f4     libucrtd:wsetlocale.obj
 0003:000026f8       __acrt_current_locale_data 000000018008c6f8     libucrtd:nlsdata.obj
 0003:00002700       __fma3_is_available        000000018008c700     libucrtd:fma3_available.obj
 0003:00002704       __use_fma3_lib             000000018008c704     libucrtd:fma3_available.obj
 0003:00002ac4       __mbcodepage               000000018008cac4     libucrtd:mbctype.obj
 0003:00002ac8       __ismbcodepage             000000018008cac8     libucrtd:mbctype.obj
 0003:00002ad0       __mbulinfo                 000000018008cad0     libucrtd:mbctype.obj
 0003:00002ae0       __mblocalename             000000018008cae0     libucrtd:mbctype.obj
 0003:00002af0       __acrt_heap                000000018008caf0     libucrtd:heap_handle.obj
 0003:00002af8       __argv                     000000018008caf8     libucrtd:argv_data.obj
 0003:00002b00       __wargv                    000000018008cb00     libucrtd:argv_data.obj
 0003:00002b08       _acmdln                    000000018008cb08     libucrtd:argv_data.obj
 0003:00002b10       _wcmdln                    000000018008cb10     libucrtd:argv_data.obj
 0003:00002b28       __acrt_stdout_buffer       000000018008cb28     libucrtd:_sftbuf.obj
 0003:00002b30       __acrt_stderr_buffer       000000018008cb30     libucrtd:_sftbuf.obj
 0003:00002b40       _pfnReportHook             000000018008cb40     libucrtd:dbgrptt.obj
 0003:00002b48       _pReportHookList           000000018008cb48     libucrtd:dbgrptt.obj
 0003:00002b50       _pReportHookListW          000000018008cb50     libucrtd:dbgrptt.obj
 0003:00002b60       _commode                   000000018008cb60     libucrtd:ncommode.obj
 0003:00002b64       __acrt_lconv_static_null   000000018008cb64     libucrtd:localeconv.obj
 0003:00002b68       __acrt_lconv_static_W_null 000000018008cb68     libucrtd:localeconv.obj
 0003:00002b6c       _umaskval                  000000018008cb6c     libucrtd:umask.obj
 0003:00002b70       _fmode                     000000018008cb70     libucrtd:txtmode.obj
 0003:00002b78       ?g_OutOfMemoryExceptionCallback@@3P6APEAXXZEA 000000018008cb78     libvcruntimed:frame.obj
 0003:00002b80       __scrt_ucrt_dll_is_in_use  000000018008cb80     <common>
 0003:00002b88       __dyn_tls_init_callback    000000018008cb88     <common>

 entry point at        0001:000294d0

 Static symbols

 0000:fff6e000       .debug$S                   0000000180000000     kernel32:KERNEL32.dll
 0000:fff6e000       .debug$S                   0000000180000000     gamecode.exp
 0000:fff6e000       .debug$S                   0000000180000000     kernel32:KERNEL32.dll
 0000:fff6e000       .debug$S                   0000000180000000     kernel32:KERNEL32.dll
 0000:fff6e000       .debug$S                   0000000180000000     kernel32:KERNEL32.dll
 0000:fff6e000       .debug$S                   0000000180000000     kernel32:KERNEL32.dll
 0000:fff6e000       .debug$S                   0000000180000000     kernel32:KERNEL32.dll
 0000:fff6e000       .debug$S                   0000000180000000     kernel32:KERNEL32.dll
 0000:fff6e000       .debug$S                   0000000180000000     kernel32:KERNEL32.dll
 0000:fff6e000       .debug$S                   0000000180000000     kernel32:KERNEL32.dll
 0000:fff6e000       .debug$S                   0000000180000000     kernel32:KERNEL32.dll
 0000:fff6e000       .debug$S                   0000000180000000     kernel32:KERNEL32.dll
 0000:fff6e000       .debug$S                   0000000180000000     kernel32:KERNEL32.dll
 0000:fff6e000       .debug$S                   0000000180000000     kernel32:KERNEL32.dll
 0000:fff6e000       .debug$S                   0000000180000000     kernel32:KERNEL32.dll
 0000:fff6e000       .debug$S                   0000000180000000     kernel32:KERNEL32.dll
 0000:fff6e000       .debug$S                   0000000180000000     kernel32:KERNEL32.dll
 0000:fff6e000       .debug$S                   0000000180000000     kernel32:KERNEL32.dll
 0000:fff6e000       .debug$S                   0000000180000000     kernel32:KERNEL32.dll
 0000:fff6e000       .debug$S                   0000000180000000     kernel32:KERNEL32.dll
 0000:fff6e000       .debug$S                   0000000180000000     kernel32:KERNEL32.dll
 0000:fff6e000       .debug$S                   0000000180000000     kernel32:KERNEL32.dll
 0000:fff6e000       .debug$S                   0000000180000000     kernel32:KERNEL32.dll
 0000:fff6e000       .debug$S                   0000000180000000     kernel32:KERNEL32.dll
 0000:fff6e000       .debug$S                   0000000180000000     kernel32:KERNEL32.dll
 0000:fff6e000       .debug$S                   0000000180000000     kernel32:KERNEL32.dll
 0000:fff6e000       .debug$S                   0000000180000000     kernel32:KERNEL32.dll
 0000:fff6e000       .debug$S                   0000000180000000     kernel32:KERNEL32.dll
 0000:fff6e000       .debug$S                   0000000180000000     kernel32:KERNEL32.dll
 0000:fff6e000       .debug$S                   0000000180000000     kernel32:KERNEL32.dll
 0000:fff6e000       .debug$S                   0000000180000000     kernel32:KERNEL32.dll
 0000:fff6e000       .debug$S                   0000000180000000     kernel32:KERNEL32.dll
 0000:fff6e000       .debug$S                   0000000180000000     kernel32:KERNEL32.dll
 0000:fff6e000       .debug$S                   0000000180000000     kernel32:KERNEL32.dll
 0000:fff6e000       .debug$S                   0000000180000000     kernel32:KERNEL32.dll
 0000:fff6e000       .debug$S                   0000000180000000     kernel32:KERNEL32.dll
 0000:fff6e000       .debug$S                   0000000180000000     kernel32:KERNEL32.dll
 0000:fff6e000       .debug$S                   0000000180000000     kernel32:KERNEL32.dll
 0000:fff6e000       .debug$S                   0000000180000000     kernel32:KERNEL32.dll
 0000:fff6e000       .debug$S                   0000000180000000     kernel32:KERNEL32.dll
 0000:fff6e000       .debug$S                   0000000180000000     kernel32:KERNEL32.dll
 0000:fff6e000       .debug$S                   0000000180000000     kernel32:KERNEL32.dll
 0000:fff6e000       .debug$S                   0000000180000000     kernel32:KERNEL32.dll
 0000:fff6e000       .debug$S                   0000000180000000     kernel32:KERNEL32.dll
 0000:fff6e000       .debug$S                   0000000180000000     kernel32:KERNEL32.dll
 0000:fff6e000       .debug$S                   0000000180000000     kernel32:KERNEL32.dll
 0000:fff6e000       .debug$S                   0000000180000000     kernel32:KERNEL32.dll
 0000:fff6e000       .debug$S                   0000000180000000     kernel32:KERNEL32.dll
 0000:fff6e000       .debug$S                   0000000180000000     kernel32:KERNEL32.dll
 0000:fff6e000       .debug$S                   0000000180000000     kernel32:KERNEL32.dll
 0000:fff6e000       .debug$S                   0000000180000000     kernel32:KERNEL32.dll
 0000:fff6e000       .debug$S                   0000000180000000     kernel32:KERNEL32.dll
 0000:fff6e000       .debug$S                   0000000180000000     kernel32:KERNEL32.dll
 0000:fff6e000       .debug$S                   0000000180000000     kernel32:KERNEL32.dll
 0000:fff6e000       .debug$S                   0000000180000000     advapi32:ADVAPI32.dll
 0000:fff6e000       .debug$S                   0000000180000000     kernel32:KERNEL32.dll
 0000:fff6e000       .debug$S                   0000000180000000     kernel32:KERNEL32.dll
 0000:fff6e000       .debug$S                   0000000180000000     kernel32:KERNEL32.dll
 0000:fff6e000       .debug$S                   0000000180000000     kernel32:KERNEL32.dll
 0000:fff6e000       .debug$S                   0000000180000000     kernel32:KERNEL32.dll
 0000:fff6e000       .debug$S                   0000000180000000     kernel32:KERNEL32.dll
 0000:fff6e000       .debug$S                   0000000180000000     kernel32:KERNEL32.dll
 0000:fff6e000       .debug$S                   0000000180000000     kernel32:KERNEL32.dll
 0000:fff6e000       .debug$S                   0000000180000000     kernel32:KERNEL32.dll
 0000:fff6e000       .debug$S                   0000000180000000     kernel32:KERNEL32.dll
 0000:fff6e000       .debug$S                   0000000180000000     kernel32:KERNEL32.dll
 0000:fff6e000       .debug$S                   0000000180000000     kernel32:KERNEL32.dll
 0000:fff6e000       .debug$S                   0000000180000000     kernel32:KERNEL32.dll
 0000:fff6e000       .debug$S                   0000000180000000     kernel32:KERNEL32.dll
 0000:fff6e000       .debug$S                   0000000180000000     kernel32:KERNEL32.dll
 0000:fff6e000       .debug$S                   0000000180000000     kernel32:KERNEL32.dll
 0000:fff6e000       .debug$S                   0000000180000000     kernel32:KERNEL32.dll
 0000:fff6e000       .debug$S                   0000000180000000     kernel32:KERNEL32.dll
 0000:fff6e000       .debug$S                   0000000180000000     kernel32:KERNEL32.dll
 0000:fff6e000       .debug$S                   0000000180000000     kernel32:KERNEL32.dll
 0000:fff6e000       .debug$S                   0000000180000000     kernel32:KERNEL32.dll
 0000:fff6e000       .debug$S                   0000000180000000     kernel32:KERNEL32.dll
 0000:fff6e000       .debug$S                   0000000180000000     kernel32:KERNEL32.dll
 0000:fff6e000       .debug$S                   0000000180000000     kernel32:KERNEL32.dll
 0000:fff6e000       .debug$S                   0000000180000000     kernel32:KERNEL32.dll
 0000:fff6e000       .debug$S                   0000000180000000     kernel32:KERNEL32.dll
 0000:fff6e000       .debug$S                   0000000180000000     kernel32:KERNEL32.dll
 0000:fff6e000       .debug$S                   0000000180000000     kernel32:KERNEL32.dll
 0000:fff6e000       .debug$S                   0000000180000000     kernel32:KERNEL32.dll
 0000:fff6e000       .debug$S                   0000000180000000     kernel32:KERNEL32.dll
 0000:fff6e000       .debug$S                   0000000180000000     kernel32:KERNEL32.dll
 0000:fff6e000       .debug$S                   0000000180000000     kernel32:KERNEL32.dll
 0000:fff6e000       .debug$S                   0000000180000000     kernel32:KERNEL32.dll
 0000:fff6e000       .debug$S                   0000000180000000     kernel32:KERNEL32.dll
 0000:fff6e000       .debug$S                   0000000180000000     kernel32:KERNEL32.dll
 0001:00005450       ?c2MakeProxy@@YAXPEBXW4C2_TYPE@@PEAUc2Proxy@@@Z 0000000180006450 f   gamecode.obj
 0001:000055f0       ?c2Support@@YAHPEBUc2v@@HU1@@Z 00000001800065f0 f   gamecode.obj
 0001:000056a0       ?c2L@@YA?AUc2v@@PEAUc2Simplex@@@Z 00000001800066a0 f   gamecode.obj
 0001:00005860       ?c2Witness@@YAXPEAUc2Simplex@@PEAUc2v@@1@Z 0000000180006860 f   gamecode.obj
 0001:00005bf0       ?c2D@@YA?AUc2v@@PEAUc2Simplex@@@Z 0000000180006bf0 f   gamecode.obj
 0001:00005ce0       ?c22@@YAXPEAUc2Simplex@@@Z 0000000180006ce0 f   gamecode.obj
 0001:00005ea0       ?c23@@YAXPEAUc2Simplex@@@Z 0000000180006ea0 f   gamecode.obj
 0001:00006520       ?c2Clip@@YAHPEAUc2v@@Uc2h@@@Z 0000000180007520 f   gamecode.obj
 0001:00006700       ?c2SidePlanes@@YAHPEAUc2v@@Uc2x@@PEBUc2Poly@@HPEAUc2h@@@Z 0000000180007700 f   gamecode.obj
 0001:00006990       ?c2KeepDeep@@YAXPEAUc2v@@Uc2h@@PEAUc2Manifold@@@Z 0000000180007990 f   gamecode.obj
 0001:00006a90       ?c2CapsuleSupport@@YA?AUc2v@@Uc2Capsule@@U1@@Z 0000000180007a90 f   gamecode.obj
 0001:00006b60       ?c2AntinormalFace@@YAXUc2Capsule@@PEBUc2Poly@@Uc2x@@PEAHPEAUc2v@@@Z 0000000180007b60 f   gamecode.obj
 0001:00006da0       ?c2CheckFaces@@YAMPEBUc2Poly@@Uc2x@@01PEAH@Z 0000000180007da0 f   gamecode.obj
 0001:00007080       ?c2Incident@@YAXPEAUc2v@@PEBUc2Poly@@Uc2x@@12H@Z 0000000180008080 f   gamecode.obj
 0001:00007250       ?MinkowskiSum@@YA?AUminkowskirect@@PEAUentity@@0@Z 0000000180008250 f   gamecode.obj
 0001:00007310       ?CheckCollision@@YAHPEAUentity@@0@Z 0000000180008310 f   gamecode.obj
 0001:00008230       ?stbir__min@@YAHHH@Z       0000000180009230 f   gamecode.obj
 0001:00008270       ?stbir__saturate@@YAMM@Z   0000000180009270 f   gamecode.obj
 0001:000082b0       ?stbir__srgb_to_linear@@YAMM@Z 00000001800092b0 f   gamecode.obj
 0001:00008320       ?stbir__linear_to_srgb@@YAMM@Z 0000000180009320 f   gamecode.obj
 0001:00008390       ?stbir__linear_to_srgb_uchar@@YAEM@Z 0000000180009390 f   gamecode.obj
 0001:00008450       ?stbir__filter_trapezoid@@YAMMM@Z 0000000180009450 f   gamecode.obj
 0001:00008530       ?stbir__support_trapezoid@@YAMM@Z 0000000180009530 f   gamecode.obj
 0001:00008590       ?stbir__filter_triangle@@YAMMM@Z 0000000180009590 f   gamecode.obj
 0001:000085e0       ?stbir__filter_cubic@@YAMMM@Z 00000001800095e0 f   gamecode.obj
 0001:000086c0       ?stbir__filter_catmullrom@@YAMMM@Z 00000001800096c0 f   gamecode.obj
 0001:000087a0       ?stbir__filter_mitchell@@YAMMM@Z 00000001800097a0 f   gamecode.obj
 0001:00008890       ?stbir__support_zero@@YAMM@Z 0000000180009890 f   gamecode.obj
 0001:000088a0       ?stbir__support_one@@YAMM@Z 00000001800098a0 f   gamecode.obj
 0001:000088c0       ?stbir__support_two@@YAMM@Z 00000001800098c0 f   gamecode.obj
 0001:000088e0       ?stbir__use_upsampling@@YAHM@Z 00000001800098e0 f   gamecode.obj
 0001:00008920       ?stbir__use_width_upsampling@@YAHPEAUstbir__info@@@Z 0000000180009920 f   gamecode.obj
 0001:00008950       ?stbir__use_height_upsampling@@YAHPEAUstbir__info@@@Z 0000000180009950 f   gamecode.obj
 0001:00008980       ?stbir__get_filter_pixel_width@@YAHW4stbir_filter@@M@Z 0000000180009980 f   gamecode.obj
 0001:00008a60       ?stbir__get_filter_pixel_margin@@YAHW4stbir_filter@@M@Z 0000000180009a60 f   gamecode.obj
 0001:00008a90       ?stbir__get_coefficient_width@@YAHW4stbir_filter@@M@Z 0000000180009a90 f   gamecode.obj
 0001:00008b30       ?stbir__get_contributors@@YAHMW4stbir_filter@@HH@Z 0000000180009b30 f   gamecode.obj
 0001:00008b80       ?stbir__get_total_horizontal_coefficients@@YAHPEAUstbir__info@@@Z 0000000180009b80 f   gamecode.obj
 0001:00008bc0       ?stbir__get_total_vertical_coefficients@@YAHPEAUstbir__info@@@Z 0000000180009bc0 f   gamecode.obj
 0001:00008c00       ?stbir__get_contributor@@YAPEAUstbir__contributors@@PEAU1@H@Z 0000000180009c00 f   gamecode.obj
 0001:00008c20       ?stbir__get_coefficient@@YAPEAMPEAMW4stbir_filter@@MHH@Z 0000000180009c20 f   gamecode.obj
 0001:00008c70       ?stbir__edge_wrap_slow@@YAHW4stbir_edge@@HH@Z 0000000180009c70 f   gamecode.obj
 0001:00008dd0       ?stbir__edge_wrap@@YAHW4stbir_edge@@HH@Z 0000000180009dd0 f   gamecode.obj
 0001:00008e20       ?stbir__calculate_sample_range_upsample@@YAXHMMMPEAH0PEAM@Z 0000000180009e20 f   gamecode.obj
 0001:00008f10       ?stbir__calculate_sample_range_downsample@@YAXHMMMPEAH0PEAM@Z 0000000180009f10 f   gamecode.obj
 0001:00009000       ?stbir__calculate_coefficients_upsample@@YAXPEAUstbir__info@@W4stbir_filter@@MHHMPEAUstbir__contributors@@PEAM@Z 000000018000a000 f   gamecode.obj
 0001:00009370       ?stbir__calculate_coefficients_downsample@@YAXPEAUstbir__info@@W4stbir_filter@@MHHMPEAUstbir__contributors@@PEAM@Z 000000018000a370 f   gamecode.obj
 0001:00009570       ?stbir__normalize_downsample_coefficients@@YAXPEAUstbir__info@@PEAUstbir__contributors@@PEAMW4stbir_filter@@MMHH@Z 000000018000a570 f   gamecode.obj
 0001:00009a30       ?stbir__calculate_filters@@YAXPEAUstbir__info@@PEAUstbir__contributors@@PEAMW4stbir_filter@@MMHH@Z 000000018000aa30 f   gamecode.obj
 0001:00009d60       ?stbir__get_decode_buffer@@YAPEAMPEAUstbir__info@@@Z 000000018000ad60 f   gamecode.obj
 0001:00009da0       ?stbir__decode_scanline@@YAXPEAUstbir__info@@H@Z 000000018000ada0 f   gamecode.obj
 0001:0000a82c       $LN97                      000000018000b82c     gamecode.obj
 0001:0000a860       ?stbir__get_ring_buffer_entry@@YAPEAMPEAMHH@Z 000000018000b860 f   gamecode.obj
 0001:0000a890       ?stbir__add_empty_ring_buffer_entry@@YAPEAMPEAUstbir__info@@H@Z 000000018000b890 f   gamecode.obj
 0001:0000a9b0       ?stbir__resample_horizontal_upsample@@YAXPEAUstbir__info@@HPEAM@Z 000000018000b9b0 f   gamecode.obj
 0001:0000b200       ?stbir__resample_horizontal_downsample@@YAXPEAUstbir__info@@HPEAM@Z 000000018000c200 f   gamecode.obj
 0001:0000bc40       ?stbir__decode_and_resample_upsample@@YAXPEAUstbir__info@@H@Z 000000018000cc40 f   gamecode.obj
 0001:0000bcc0       ?stbir__decode_and_resample_downsample@@YAXPEAUstbir__info@@H@Z 000000018000ccc0 f   gamecode.obj
 0001:0000bd60       ?stbir__get_ring_buffer_scanline@@YAPEAMHPEAMHHHH@Z 000000018000cd60 f   gamecode.obj
 0001:0000bdc0       ?stbir__encode_scanline@@YAXPEAUstbir__info@@HPEAXPEAMHHH@Z 000000018000cdc0 f   gamecode.obj
 0001:0000c6c8       $LN82                      000000018000d6c8     gamecode.obj
 0001:0000c6f0       ?stbir__resample_vertical_upsample@@YAXPEAUstbir__info@@HHHM@Z 000000018000d6f0 f   gamecode.obj
 0001:0000d150       ?stbir__resample_vertical_downsample@@YAXPEAUstbir__info@@HHHM@Z 000000018000e150 f   gamecode.obj
 0001:0000d810       ?stbir__buffer_loop_upsample@@YAXPEAUstbir__info@@@Z 000000018000e810 f   gamecode.obj
 0001:0000da70       ?stbir__empty_ring_buffer@@YAXPEAUstbir__info@@H@Z 000000018000ea70 f   gamecode.obj
 0001:0000dcc0       ?stbir__buffer_loop_downsample@@YAXPEAUstbir__info@@@Z 000000018000ecc0 f   gamecode.obj
 0001:0000def0       ?stbir__setup@@YAXPEAUstbir__info@@HHHHH@Z 000000018000eef0 f   gamecode.obj
 0001:0000df50       ?stbir__calculate_transform@@YAXPEAUstbir__info@@MMMMPEAM@Z 000000018000ef50 f   gamecode.obj
 0001:0000e100       ?stbir__choose_filter@@YAXPEAUstbir__info@@W4stbir_filter@@1@Z 000000018000f100 f   gamecode.obj
 0001:0000e1a0       ?stbir__calculate_memory@@YAIPEAUstbir__info@@@Z 000000018000f1a0 f   gamecode.obj
 0001:0000e480       ?stbir__resize_allocated@@YAHPEAUstbir__info@@PEBXHPEAXHHIW4stbir_datatype@@W4stbir_edge@@4W4stbir_colorspace@@2_K@Z 000000018000f480 f   gamecode.obj
 0001:0000ebe0       ?stbir__resize_arbitrary@@YAHPEAXPEBXHHH0HHHMMMMPEAMHHIW4stbir_datatype@@W4stbir_filter@@4W4stbir_edge@@5W4stbir_colorspace@@@Z 000000018000fbe0 f   gamecode.obj
 0001:0000fcb0       ?stbi__cpuid3@@YAHXZ       0000000180010cb0 f   gamecode.obj
 0001:0000fd10       ?stbi__sse2_available@@YAHXZ 0000000180010d10 f   gamecode.obj
 0001:0000fd50       ?stbi__refill_buffer@@YAXPEAUstbi__context@@@Z 0000000180010d50 f   gamecode.obj
 0001:0000fe10       ?stbi__start_mem@@YAXPEAUstbi__context@@PEBEH@Z 0000000180010e10 f   gamecode.obj
 0001:0000fea0       ?stbi__start_callbacks@@YAXPEAUstbi__context@@PEAUstbi_io_callbacks@@PEAX@Z 0000000180010ea0 f   gamecode.obj
 0001:0000ff40       ?stbi__stdio_read@@YAHPEAXPEADH@Z 0000000180010f40 f   gamecode.obj
 0001:0000ff80       ?stbi__stdio_skip@@YAXPEAXH@Z 0000000180010f80 f   gamecode.obj
 0001:0000ffb0       ?stbi__stdio_eof@@YAHPEAX@Z 0000000180010fb0 f   gamecode.obj
 0001:0000ffd0       ?stbi__start_file@@YAXPEAUstbi__context@@PEAU_iobuf@@@Z 0000000180010fd0 f   gamecode.obj
 0001:00010000       ?stbi__rewind@@YAXPEAUstbi__context@@@Z 0000000180011000 f   gamecode.obj
 0001:00010040       ?stbi__jpeg_test@@YAHPEAUstbi__context@@@Z 0000000180011040 f   gamecode.obj
 0001:000100c0       ?stbi__jpeg_load@@YAPEAEPEAUstbi__context@@PEAH11H@Z 00000001800110c0 f   gamecode.obj
 0001:00010140       ?stbi__jpeg_info@@YAHPEAUstbi__context@@PEAH11@Z 0000000180011140 f   gamecode.obj
 0001:000101b0       ?stbi__png_test@@YAHPEAUstbi__context@@@Z 00000001800111b0 f   gamecode.obj
 0001:000101e0       ?stbi__png_load@@YAPEAEPEAUstbi__context@@PEAH11H@Z 00000001800111e0 f   gamecode.obj
 0001:00010240       ?stbi__png_info@@YAHPEAUstbi__context@@PEAH11@Z 0000000180011240 f   gamecode.obj
 0001:00010290       ?stbi__bmp_test@@YAHPEAUstbi__context@@@Z 0000000180011290 f   gamecode.obj
 0001:000102c0       ?stbi__bmp_load@@YAPEAEPEAUstbi__context@@PEAH11H@Z 00000001800112c0 f   gamecode.obj
 0001:000110b0       ?stbi__bmp_info@@YAHPEAUstbi__context@@PEAH11@Z 00000001800120b0 f   gamecode.obj
 0001:00011170       ?stbi__tga_test@@YAHPEAUstbi__context@@@Z 0000000180012170 f   gamecode.obj
 0001:00011310       ?stbi__tga_load@@YAPEAEPEAUstbi__context@@PEAH11H@Z 0000000180012310 f   gamecode.obj
 0001:00011c70       ?stbi__tga_info@@YAHPEAUstbi__context@@PEAH11@Z 0000000180012c70 f   gamecode.obj
 0001:00011ee0       ?stbi__psd_test@@YAHPEAUstbi__context@@@Z 0000000180012ee0 f   gamecode.obj
 0001:00011f30       ?stbi__psd_load@@YAPEAEPEAUstbi__context@@PEAH11H@Z 0000000180012f30 f   gamecode.obj
 0001:00012750       ?stbi__psd_info@@YAHPEAUstbi__context@@PEAH11@Z 0000000180013750 f   gamecode.obj
 0001:00012860       ?stbi__hdr_test@@YAHPEAUstbi__context@@@Z 0000000180013860 f   gamecode.obj
 0001:00012890       ?stbi__hdr_load@@YAPEAMPEAUstbi__context@@PEAH11H@Z 0000000180013890 f   gamecode.obj
 0001:00012f60       ?stbi__hdr_info@@YAHPEAUstbi__context@@PEAH11@Z 0000000180013f60 f   gamecode.obj
 0001:00013150       ?stbi__pic_test@@YAHPEAUstbi__context@@@Z 0000000180014150 f   gamecode.obj
 0001:00013180       ?stbi__pic_load@@YAPEAEPEAUstbi__context@@PEAH11H@Z 0000000180014180 f   gamecode.obj
 0001:00013360       ?stbi__pic_info@@YAHPEAUstbi__context@@PEAH11@Z 0000000180014360 f   gamecode.obj
 0001:000135a0       ?stbi__gif_test@@YAHPEAUstbi__context@@@Z 00000001800145a0 f   gamecode.obj
 0001:000135d0       ?stbi__gif_load@@YAPEAEPEAUstbi__context@@PEAH11H@Z 00000001800145d0 f   gamecode.obj
 0001:000136e0       ?stbi__gif_info@@YAHPEAUstbi__context@@PEAH11@Z 00000001800146e0 f   gamecode.obj
 0001:00013720       ?stbi__pnm_test@@YAHPEAUstbi__context@@@Z 0000000180014720 f   gamecode.obj
 0001:00013790       ?stbi__pnm_load@@YAPEAEPEAUstbi__context@@PEAH11H@Z 0000000180014790 f   gamecode.obj
 0001:000138f0       ?stbi__pnm_info@@YAHPEAUstbi__context@@PEAH11@Z 00000001800148f0 f   gamecode.obj
 0001:00013a30       ?stbi__err@@YAHPEBD@Z      0000000180014a30 f   gamecode.obj
 0001:00013a50       ?stbi__malloc@@YAPEAX_K@Z  0000000180014a50 f   gamecode.obj
 0001:00013a70       ?stbi__ldr_to_hdr@@YAPEAMPEAEHHH@Z 0000000180014a70 f   gamecode.obj
 0001:00013c10       ?stbi__hdr_to_ldr@@YAPEAEPEAMHHH@Z 0000000180014c10 f   gamecode.obj
 0001:00013e40       ?stbi__load_main@@YAPEAEPEAUstbi__context@@PEAH11H@Z 0000000180014e40 f   gamecode.obj
 0001:000140a0       ?stbi__load_flip@@YAPEAEPEAUstbi__context@@PEAH11H@Z 00000001800150a0 f   gamecode.obj
 0001:00014270       ?stbi__float_postprocess@@YAXPEAMPEAH11H@Z 0000000180015270 f   gamecode.obj
 0001:00014400       ?stbi__fopen@@YAPEAU_iobuf@@PEBD0@Z 0000000180015400 f   gamecode.obj
 0001:00014440       ?stbi__loadf_main@@YAPEAMPEAUstbi__context@@PEAH11H@Z 0000000180015440 f   gamecode.obj
 0001:00014570       ?stbi__get8@@YAEPEAUstbi__context@@@Z 0000000180015570 f   gamecode.obj
 0001:00014620       ?stbi__at_eof@@YAHPEAUstbi__context@@@Z 0000000180015620 f   gamecode.obj
 0001:000146a0       ?stbi__skip@@YAXPEAUstbi__context@@H@Z 00000001800156a0 f   gamecode.obj
 0001:00014770       ?stbi__getn@@YAHPEAUstbi__context@@PEAEH@Z 0000000180015770 f   gamecode.obj
 0001:000148d0       ?stbi__get16be@@YAHPEAUstbi__context@@@Z 00000001800158d0 f   gamecode.obj
 0001:00014920       ?stbi__get32be@@YAIPEAUstbi__context@@@Z 0000000180015920 f   gamecode.obj
 0001:00014960       ?stbi__get16le@@YAHPEAUstbi__context@@@Z 0000000180015960 f   gamecode.obj
 0001:000149a0       ?stbi__get32le@@YAIPEAUstbi__context@@@Z 00000001800159a0 f   gamecode.obj
 0001:000149e0       ?stbi__compute_y@@YAEHHH@Z 00000001800159e0 f   gamecode.obj
 0001:00014a10       ?stbi__convert_format@@YAPEAEPEAEHHII@Z 0000000180015a10 f   gamecode.obj
 0001:000153d4       $LN64                      00000001800163d4     gamecode.obj
 0001:00015450       ?stbi__build_huffman@@YAHPEAUstbi__huffman@@PEAH@Z 0000000180016450 f   gamecode.obj
 0001:000156e0       ?stbi__build_fast_ac@@YAXPEAFPEAUstbi__huffman@@@Z 00000001800166e0 f   gamecode.obj
 0001:00015860       ?stbi__grow_buffer_unsafe@@YAXPEAUstbi__jpeg@@@Z 0000000180016860 f   gamecode.obj
 0001:00015950       ?stbi__jpeg_huff_decode@@YAHPEAUstbi__jpeg@@PEAUstbi__huffman@@@Z 0000000180016950 f   gamecode.obj
 0001:00015bf0       ?stbi__extend_receive@@YAHPEAUstbi__jpeg@@H@Z 0000000180016bf0 f   gamecode.obj
 0001:00015d00       ?stbi__jpeg_get_bits@@YAHPEAUstbi__jpeg@@H@Z 0000000180016d00 f   gamecode.obj
 0001:00015dc0       ?stbi__jpeg_get_bit@@YAHPEAUstbi__jpeg@@@Z 0000000180016dc0 f   gamecode.obj
 0001:00015e40       ?stbi__jpeg_decode_block@@YAHPEAUstbi__jpeg@@QEAFPEAUstbi__huffman@@2PEAFHPEAE@Z 0000000180016e40 f   gamecode.obj
 0001:00016130       ?stbi__jpeg_decode_block_prog_dc@@YAHPEAUstbi__jpeg@@QEAFPEAUstbi__huffman@@H@Z 0000000180017130 f   gamecode.obj
 0001:000162a0       ?stbi__jpeg_decode_block_prog_ac@@YAHPEAUstbi__jpeg@@QEAFPEAUstbi__huffman@@PEAF@Z 00000001800172a0 f   gamecode.obj
 0001:000168f0       ?stbi__clamp@@YAEH@Z       00000001800178f0 f   gamecode.obj
 0001:00016930       ?stbi__idct_block@@YAXPEAEHQEAF@Z 0000000180017930 f   gamecode.obj
 0001:000173d0       ?stbi__idct_simd@@YAXPEAEHQEAF@Z 00000001800183d0 f   gamecode.obj
 0001:00019ee0       ?stbi__get_marker@@YAEPEAUstbi__jpeg@@@Z 000000018001aee0 f   gamecode.obj
 0001:00019f70       ?stbi__jpeg_reset@@YAXPEAUstbi__jpeg@@@Z 000000018001af70 f   gamecode.obj
 0001:0001a050       ?stbi__parse_entropy_coded_data@@YAHPEAUstbi__jpeg@@@Z 000000018001b050 f   gamecode.obj
 0001:0001acb0       ?stbi__jpeg_dequantize@@YAXPEAFPEAE@Z 000000018001bcb0 f   gamecode.obj
 0001:0001ad10       ?stbi__jpeg_finish@@YAXPEAUstbi__jpeg@@@Z 000000018001bd10 f   gamecode.obj
 0001:0001aee0       ?stbi__process_marker@@YAHPEAUstbi__jpeg@@H@Z 000000018001bee0 f   gamecode.obj
 0001:0001b360       ?stbi__process_scan_header@@YAHPEAUstbi__jpeg@@@Z 000000018001c360 f   gamecode.obj
 0001:0001b6a0       ?stbi__process_frame_header@@YAHPEAUstbi__jpeg@@H@Z 000000018001c6a0 f   gamecode.obj
 0001:0001bf20       ?stbi__decode_jpeg_header@@YAHPEAUstbi__jpeg@@H@Z 000000018001cf20 f   gamecode.obj
 0001:0001c070       ?stbi__decode_jpeg_image@@YAHPEAUstbi__jpeg@@@Z 000000018001d070 f   gamecode.obj
 0001:0001c220       ?resample_row_1@@YAPEAEPEAE00HH@Z 000000018001d220 f   gamecode.obj
 0001:0001c240       ?stbi__resample_row_v_2@@YAPEAEPEAE00HH@Z 000000018001d240 f   gamecode.obj
 0001:0001c2c0       ?stbi__resample_row_h_2@@YAPEAEPEAE00HH@Z 000000018001d2c0 f   gamecode.obj
 0001:0001c4a0       ?stbi__resample_row_hv_2@@YAPEAEPEAE00HH@Z 000000018001d4a0 f   gamecode.obj
 0001:0001c630       ?stbi__resample_row_hv_2_simd@@YAPEAEPEAE00HH@Z 000000018001d630 f   gamecode.obj
 0001:0001cca0       ?stbi__resample_row_generic@@YAPEAEPEAE00HH@Z 000000018001dca0 f   gamecode.obj
 0001:0001cd30       ?stbi__YCbCr_to_RGB_row@@YAXPEAEPEBE11HH@Z 000000018001dd30 f   gamecode.obj
 0001:0001cf00       ?stbi__YCbCr_to_RGB_simd@@YAXPEAEPEBE11HH@Z 000000018001df00 f   gamecode.obj
 0001:0001d6d0       ?stbi__setup_jpeg@@YAXPEAUstbi__jpeg@@@Z 000000018001e6d0 f   gamecode.obj
 0001:0001d760       ?stbi__cleanup_jpeg@@YAXPEAUstbi__jpeg@@@Z 000000018001e760 f   gamecode.obj
 0001:0001d8c0       ?load_jpeg_image@@YAPEAEPEAUstbi__jpeg@@PEAH11H@Z 000000018001e8c0 f   gamecode.obj
 0001:0001e270       ?stbi__jpeg_info_raw@@YAHPEAUstbi__jpeg@@PEAH11@Z 000000018001f270 f   gamecode.obj
 0001:0001e310       ?stbi__bitreverse16@@YAHH@Z 000000018001f310 f   gamecode.obj
 0001:0001e3a0       ?stbi__bit_reverse@@YAHHH@Z 000000018001f3a0 f   gamecode.obj
 0001:0001e3f0       ?stbi__zbuild_huffman@@YAHPEAUstbi__zhuffman@@PEAEH@Z 000000018001f3f0 f   gamecode.obj
 0001:0001e780       ?stbi__zget8@@YAEPEAUstbi__zbuf@@@Z 000000018001f780 f   gamecode.obj
 0001:0001e7d0       ?stbi__fill_bits@@YAXPEAUstbi__zbuf@@@Z 000000018001f7d0 f   gamecode.obj
 0001:0001e870       ?stbi__zreceive@@YAIPEAUstbi__zbuf@@H@Z 000000018001f870 f   gamecode.obj
 0001:0001e910       ?stbi__zhuffman_decode_slowpath@@YAHPEAUstbi__zbuf@@PEAUstbi__zhuffman@@@Z 000000018001f910 f   gamecode.obj
 0001:0001ea40       ?stbi__zhuffman_decode@@YAHPEAUstbi__zbuf@@PEAUstbi__zhuffman@@@Z 000000018001fa40 f   gamecode.obj
 0001:0001eaf0       ?stbi__zexpand@@YAHPEAUstbi__zbuf@@PEADH@Z 000000018001faf0 f   gamecode.obj
 0001:0001ec10       ?stbi__parse_huffman_block@@YAHPEAUstbi__zbuf@@@Z 000000018001fc10 f   gamecode.obj
 0001:0001eee0       ?stbi__compute_huffman_codes@@YAHPEAUstbi__zbuf@@@Z 000000018001fee0 f   gamecode.obj
 0001:0001f230       ?stbi__parse_uncompressed_block@@YAHPEAUstbi__zbuf@@@Z 0000000180020230 f   gamecode.obj
 0001:0001f440       ?stbi__parse_zlib_header@@YAHPEAUstbi__zbuf@@@Z 0000000180020440 f   gamecode.obj
 0001:0001f4e0       ?stbi__init_zdefaults@@YAXXZ 00000001800204e0 f   gamecode.obj
 0001:0001f5b0       ?stbi__parse_zlib@@YAHPEAUstbi__zbuf@@H@Z 00000001800205b0 f   gamecode.obj
 0001:0001f700       ?stbi__do_zlib@@YAHPEAUstbi__zbuf@@PEADHHH@Z 0000000180020700 f   gamecode.obj
 0001:0001f780       ?stbi__get_chunk_header@@YA?AUstbi__pngchunk@@PEAUstbi__context@@@Z 0000000180020780 f   gamecode.obj
 0001:0001f7c0       ?stbi__check_png_header@@YAHPEAUstbi__context@@@Z 00000001800207c0 f   gamecode.obj
 0001:0001f830       ?stbi__paeth@@YAHHHH@Z     0000000180020830 f   gamecode.obj
 0001:0001f8d0       ?stbi__create_png_image_raw@@YAHPEAUstbi__png@@PEAEIHIIHH@Z 00000001800208d0 f   gamecode.obj
 0001:000210fc       $LN170                     00000001800220fc     gamecode.obj
 0001:00021118       $LN169                     0000000180022118     gamecode.obj
 0001:00021134       $LN168                     0000000180022134     gamecode.obj
 0001:00021160       ?stbi__create_png_image@@YAHPEAUstbi__png@@PEAEIHHHH@Z 0000000180022160 f   gamecode.obj
 0001:00021610       ?stbi__compute_transparency@@YAHPEAUstbi__png@@QEAEH@Z 0000000180022610 f   gamecode.obj
 0001:000217e0       ?stbi__compute_transparency16@@YAHPEAUstbi__png@@QEAGH@Z 00000001800227e0 f   gamecode.obj
 0001:000219b0       ?stbi__expand_png_palette@@YAHPEAUstbi__png@@PEAEHH@Z 00000001800229b0 f   gamecode.obj
 0001:00021bf0       ?stbi__reduce_png@@YAHPEAUstbi__png@@@Z 0000000180022bf0 f   gamecode.obj
 0001:00021ce0       ?stbi__de_iphone@@YAXPEAUstbi__png@@@Z 0000000180022ce0 f   gamecode.obj
 0001:00021fa0       ?stbi__parse_png_file@@YAHPEAUstbi__png@@HH@Z 0000000180022fa0 f   gamecode.obj
 0001:00022c80       ?stbi__do_png@@YAPEAEPEAUstbi__png@@PEAH11H@Z 0000000180023c80 f   gamecode.obj
 0001:00022e50       ?stbi__png_info_raw@@YAHPEAUstbi__png@@PEAH11@Z 0000000180023e50 f   gamecode.obj
 0001:00022ef0       ?stbi__bmp_test_raw@@YAHPEAUstbi__context@@@Z 0000000180023ef0 f   gamecode.obj
 0001:00022fb0       ?stbi__high_bit@@YAHI@Z    0000000180023fb0 f   gamecode.obj
 0001:00023070       ?stbi__bitcount@@YAHI@Z    0000000180024070 f   gamecode.obj
 0001:00023100       ?stbi__shiftsigned@@YAHHHH@Z 0000000180024100 f   gamecode.obj
 0001:000231a0       ?stbi__bmp_parse_header@@YAPEAXPEAUstbi__context@@PEAUstbi__bmp_data@@@Z 00000001800241a0 f   gamecode.obj
 0001:000236b0       ?stbi__tga_get_comp@@YAHHHPEAH@Z 00000001800246b0 f   gamecode.obj
 0001:00023820       ?stbi__pic_is4@@YAHPEAUstbi__context@@PEBD@Z 0000000180024820 f   gamecode.obj
 0001:00023880       ?stbi__pic_test_core@@YAHPEAUstbi__context@@@Z 0000000180024880 f   gamecode.obj
 0001:00023900       ?stbi__readval@@YAPEAEPEAUstbi__context@@HPEAE@Z 0000000180024900 f   gamecode.obj
 0001:000239b0       ?stbi__copyval@@YAXHPEAEPEBE@Z 00000001800249b0 f   gamecode.obj
 0001:00023a30       ?stbi__pic_load_core@@YAPEAEPEAUstbi__context@@HHPEAHPEAE@Z 0000000180024a30 f   gamecode.obj
 0001:00024070       ?stbi__gif_test_raw@@YAHPEAUstbi__context@@@Z 0000000180025070 f   gamecode.obj
 0001:00024110       ?stbi__gif_parse_colortable@@YAXPEAUstbi__context@@QEAY03EHH@Z 0000000180025110 f   gamecode.obj
 0001:00024210       ?stbi__gif_header@@YAHPEAUstbi__context@@PEAUstbi__gif@@PEAHH@Z 0000000180025210 f   gamecode.obj
 0001:000243e0       ?stbi__gif_info_raw@@YAHPEAUstbi__context@@PEAH11@Z 00000001800253e0 f   gamecode.obj
 0001:00024490       ?stbi__out_gif_code@@YAXPEAUstbi__gif@@G@Z 0000000180025490 f   gamecode.obj
 0001:00024710       ?stbi__process_gif_raster@@YAPEAEPEAUstbi__context@@PEAUstbi__gif@@@Z 0000000180025710 f   gamecode.obj
 0001:00024b60       ?stbi__fill_gif_background@@YAXPEAUstbi__gif@@HHHH@Z 0000000180025b60 f   gamecode.obj
 0001:00024c90       ?stbi__gif_load_next@@YAPEAEPEAUstbi__context@@PEAUstbi__gif@@PEAHH@Z 0000000180025c90 f   gamecode.obj
 0001:000254f0       ?stbi__hdr_test_core@@YAHPEAUstbi__context@@@Z 00000001800264f0 f   gamecode.obj
 0001:00025560       ?stbi__hdr_gettoken@@YAPEADPEAUstbi__context@@PEAD@Z 0000000180026560 f   gamecode.obj
 0001:00025620       ?stbi__hdr_convert@@YAXPEAMPEAEH@Z 0000000180026620 f   gamecode.obj
 0001:00025890       ?stbi__pnm_isspace@@YAHD@Z 0000000180026890 f   gamecode.obj
 0001:00025900       ?stbi__pnm_skip_whitespace@@YAXPEAUstbi__context@@PEAD@Z 0000000180026900 f   gamecode.obj
 0001:000259b0       ?stbi__pnm_isdigit@@YAHD@Z 00000001800269b0 f   gamecode.obj
 0001:000259f0       ?stbi__pnm_getinteger@@YAHPEAUstbi__context@@PEAD@Z 00000001800269f0 f   gamecode.obj
 0001:00025a60       ?stbi__info_main@@YAHPEAUstbi__context@@PEAH11@Z 0000000180026a60 f   gamecode.obj
 0001:00025bf0       ?ResizeBitmap@@YAXPEAUloaded_bitmap@@HH@Z 0000000180026bf0 f   gamecode.obj
 0001:00025cd0       ?LoadBitmap@@YA?AUloaded_bitmap@@PEBDPEAUmemory_arena@@@Z 0000000180026cd0 f   gamecode.obj
 0001:00025dc0       ?DrawBitmap@@YAXPEAUloaded_bitmap@@0MMM@Z 0000000180026dc0 f   gamecode.obj
 0001:000260f0       ?DrawPixel@@YAXPEAUgame_offscreen_buffer@@MMMMMM@Z 00000001800270f0 f   gamecode.obj
 0001:00026260       ?DrawRectangle@@YAXUrectangle2i@@Tv2@@1PEAUgame_offscreen_buffer@@MMMM@Z 0000000180027260 f   gamecode.obj
 0001:000265e0       ?CreateEntity@@YAPEAUentity@@PEAUgame_state@@W4entity_flag@@@Z 00000001800275e0 f   gamecode.obj
 0001:00026680       ?InitializeWall@@YAXPEAUentity@@MMMM@Z 0000000180027680 f   gamecode.obj
 0001:00026750       ?RenderEntity@@YAXPEAUentity@@Urectangle2i@@PEAUgame_offscreen_buffer@@@Z 0000000180027750 f   gamecode.obj
 0001:00026900       ?MoveEntity@@YA?ATv2@@PEAUentity@@PEAUgame_input@@@Z 0000000180027900 f   gamecode.obj
 0001:00029020       $$000000                   000000018002a020     LIBCMTD:_chkstk_.obj
 0001:00029090       $$000000                   000000018002a090     LIBCMTD:_amdsecgs_.obj
 0001:000290d0       ?dllmain_crt_dispatch@@YAHQEAUHINSTANCE__@@KQEAX@Z 000000018002a0d0 f   LIBCMTD:dll_dllmain.obj
 0001:00029160       ?dllmain_crt_process_attach@@YAHQEAUHINSTANCE__@@QEAX@Z 000000018002a160 f   LIBCMTD:dll_dllmain.obj
 0001:000292b0       ?dllmain_crt_process_detach@@YAH_N@Z 000000018002a2b0 f   LIBCMTD:dll_dllmain.obj
 0001:00029330       ?dllmain_dispatch@@YAHQEAUHINSTANCE__@@KQEAX@Z 000000018002a330 f   LIBCMTD:dll_dllmain.obj
 0001:00029480       ?dllmain_raw@@YAHQEAUHINSTANCE__@@KQEAX@Z 000000018002a480 f   LIBCMTD:dll_dllmain.obj
 0001:000296f0       capture_previous_context   000000018002a6f0 f   LIBCMTD:gs_report.obj
 0001:000297d0       ?find_pe_section@@YAPEAU_IMAGE_SECTION_HEADER@@QEAE_K@Z 000000018002a7d0 f   LIBCMTD:utility.obj
 0001:000298a0       ?is_potentially_valid_image_base@@YA_NQEAX@Z 000000018002a8a0 f   LIBCMTD:utility.obj
 0001:0002a680       _TlgDefineProvider_annotation__Tlg_Microsoft_CRTProviderProv 000000018002b680 f   libvcruntimed:telemetry.obj
 0001:0002a690       ?__telemetry_getfilename@@YAXPEAUHINSTANCE__@@PEA_WK@Z 000000018002b690 f   libvcruntimed:telemetry.obj
 0001:0002af50       init_memcpy_functions      000000018002bf50 f   libvcruntimed:initialization.obj
 0001:0002b0a0       ?try_get_EventRegister@@YAP6AKPEBU_GUID@@P6AX0KE_K1PEAU_EVENT_FILTER_DESCRIPTOR@@PEAX@Z3PEA_K@ZXZ 000000018002c0a0 f   libvcruntimed:winapi_downlevel.obj
 0001:0002b0d0       ?try_get_EventSetInformation@@YAP6AK_KW4_EVENT_INFO_CLASS@@PEAXK@ZXZ 000000018002c0d0 f   libvcruntimed:winapi_downlevel.obj
 0001:0002b100       ?try_get_EventUnregister@@YAP6AK_K@ZXZ 000000018002c100 f   libvcruntimed:winapi_downlevel.obj
 0001:0002b130       ?try_get_EventWriteTransfer@@YAP6AK_KPEBU_EVENT_DESCRIPTOR@@PEBU_GUID@@2KPEAU_EVENT_DATA_DESCRIPTOR@@@ZXZ 000000018002c130 f   libvcruntimed:winapi_downlevel.obj
 0001:0002b160       ?try_get_FlsAlloc@@YAP6AKP6AXPEAX@Z@ZXZ 000000018002c160 f   libvcruntimed:winapi_downlevel.obj
 0001:0002b190       ?try_get_FlsFree@@YAP6AHK@ZXZ 000000018002c190 f   libvcruntimed:winapi_downlevel.obj
 0001:0002b1c0       ?try_get_FlsGetValue@@YAP6APEAXK@ZXZ 000000018002c1c0 f   libvcruntimed:winapi_downlevel.obj
 0001:0002b1f0       ?try_get_FlsSetValue@@YAP6AHKPEAX@ZXZ 000000018002c1f0 f   libvcruntimed:winapi_downlevel.obj
 0001:0002b220       ?try_get_InitializeCriticalSectionEx@@YAP6AHPEAU_RTL_CRITICAL_SECTION@@KK@ZXZ 000000018002c220 f   libvcruntimed:winapi_downlevel.obj
 0001:0002b250       ?try_get_first_available_module@@YAPEAUHINSTANCE__@@QEBW4module_id@?A0xece66f1d@@0@Z 000000018002c250 f   libvcruntimed:winapi_downlevel.obj
 0001:0002b2b0       ?try_get_function@@YAPEAXW4function_id@?A0xece66f1d@@QEBDQEBW4module_id@2@2@Z 000000018002c2b0 f   libvcruntimed:winapi_downlevel.obj
 0001:0002b450       ?try_get_module@@YAPEAUHINSTANCE__@@W4module_id@?A0xece66f1d@@@Z 000000018002c450 f   libvcruntimed:winapi_downlevel.obj
 0001:0002b5b0       ?try_get_proc_address_from_first_available_module@@YAPEAXQEBDQEBW4module_id@?A0xece66f1d@@1@Z 000000018002c5b0 f   libvcruntimed:winapi_downlevel.obj
 0001:0002b600       ?try_load_library_from_system_directory@@YAPEAUHINSTANCE__@@QEB_W@Z 000000018002c600 f   libucrtd:winapi_thunks.obj
 0001:0002b600       ?try_load_library_from_system_directory@@YAPEAUHINSTANCE__@@QEB_W@Z 000000018002c600 f   libvcruntimed:winapi_downlevel.obj
 0001:0002bad0       $$000000                   000000018002cad0     libvcruntimed:_jmpuwind_.obj
 0001:0002bc00       ?store_and_initialize_ptd@@YA_NQEAU__vcrt_ptd@@@Z 000000018002cc00 f   libvcruntimed:per_thread_data.obj
 0001:0002c090       ??$common_assert@_W@@YAXQEB_W0IQEAX@Z 000000018002d090 f   libucrtd:assert.obj
 0001:0002c120       ??$common_assert_to_message_box@_W@@YAXQEB_W0IQEAX@Z 000000018002d120 f   libucrtd:assert.obj
 0001:0002c220       ??$common_assert_to_message_box_build_string@_W@@YAXQEA_W_KQEB_W2IQEAX@Z 000000018002d220 f   libucrtd:assert.obj
 0001:0002d030       ??$common_assert_to_stderr@_W@@YAXQEB_W0I@Z 000000018002e030 f   libucrtd:assert.obj
 0001:0002d450       ?common_assert_to_stderr_direct@@YAXQEB_W0I@Z 000000018002e450 f   libucrtd:assert.obj
 0001:0002d550       ?get_assert_format@@YAPEB_W_W@Z 000000018002e550 f   libucrtd:assert.obj
 0001:0002d560       ?get_banner_text@@YAPEB_W_W@Z 000000018002e560 f   libucrtd:assert.obj
 0001:0002d570       ?get_box_intro@@YAPEB_W_W@Z 000000018002e570 f   libucrtd:assert.obj
 0001:0002d580       ?get_dot_dot_dot@@YAPEB_W_W@Z 000000018002e580 f   libucrtd:assert.obj
 0001:0002d590       ?get_double_newline@@YAPEB_W_W@Z 000000018002e590 f   libucrtd:assert.obj
 0001:0002d5a0       ?get_expression_intro@@YAPEB_W_W@Z 000000018002e5a0 f   libucrtd:assert.obj
 0001:0002d5b0       ?get_file_intro@@YAPEB_W_W@Z 000000018002e5b0 f   libucrtd:assert.obj
 0001:0002d5f0       ?get_help_intro@@YAPEB_W_W@Z 000000018002e5f0 f   libucrtd:assert.obj
 0001:0002d600       ?get_info_intro@@YAPEB_W_W@Z 000000018002e600 f   libucrtd:assert.obj
 0001:0002d610       ?get_line_intro@@YAPEB_W_W@Z 000000018002e610 f   libucrtd:assert.obj
 0001:0002d620       ?get_newline@@YAPEB_W_W@Z  000000018002e620 f   libucrtd:assert.obj
 0001:0002d630       ?get_program_intro@@YAPEB_W_W@Z 000000018002e630 f   libucrtd:assert.obj
 0001:0002d640       ?get_program_name_unknown_text@@YAPEB_W_W@Z 000000018002e640 f   libucrtd:assert.obj
 0001:0002d640       ?get_program_name_unknown_text@@YAPEB_W_W@Z 000000018002e640 f   libucrtd:dbgrpt.obj
 0001:0002d8c0       ??$common_fopen_s@D@@YAHQEAPEAU_iobuf@@QEBD1@Z 000000018002e8c0 f   libucrtd:fopen.obj
 0001:0002d9b0       ??$common_fsopen@D@@YAPEAU_iobuf@@QEBD0H@Z 000000018002e9b0 f   libucrtd:fopen.obj
 0001:0002ecf0       memcpy_s                   000000018002fcf0 f   libucrtd:fread.obj
 0001:0002ecf0       memcpy_s                   000000018002fcf0 f   libucrtd:mbctype.obj
 0001:0002ecf0       memcpy_s                   000000018002fcf0 f   libucrtd:cfout.obj
 0001:0002ecf0       memcpy_s                   000000018002fcf0 f   libucrtd:assert.obj
 0001:0002ef60       ?common_fseek@@YAHV__crt_stdio_stream@@_JH@Z 000000018002ff60 f   libucrtd:fseek.obj
 0001:0002f130       ?common_fseek_binary_mode_read_only_fast_track_nolock@@YA_NV__crt_stdio_stream@@_JH@Z 0000000180030130 f   libucrtd:fseek.obj
 0001:0002f360       ?common_fseek_nolock@@YAHV__crt_stdio_stream@@_JH@Z 0000000180030360 f   libucrtd:fseek.obj
 0001:0002f5d0       ??$common_ftell@J@@YAJV__crt_stdio_stream@@@Z 00000001800305d0 f   libucrtd:ftell.obj
 0001:0002f6d0       ??$common_ftell_nolock@J@@YAJV__crt_stdio_stream@@@Z 00000001800306d0 f   libucrtd:ftell.obj
 0001:0002f710       ??$common_ftell_nolock@_J@@YA_JV__crt_stdio_stream@@@Z 0000000180030710 f   libucrtd:ftell.obj
 0001:0002fa40       ?common_ftell_read_mode_nolock@@YA_JV__crt_stdio_stream@@_J1@Z 0000000180030a40 f   libucrtd:ftell.obj
 0001:0002fd50       ?common_ftell_translated_utf8_nolock@@YA_JV__crt_stdio_stream@@_J@Z 0000000180030d50 f   libucrtd:ftell.obj
 0001:00030470       $$000000                   0000000180031470     libucrtd:strncmp.obj
 0001:00031fd0       $$000000                   0000000180032fd0     libucrtd:pow.obj
 0001:000338a0       ?xcptlookup@@YAPEAU__crt_signal_action_t@@KQEAU1@@Z 00000001800348a0 f   libucrtd:exception_filter.obj
 0001:00033bc8       $LN25                      0000000180034bc8     libucrtd:exception_filter.obj
 0001:00033c60       ?atexit_exception_filter@@YAHK@Z 0000000180034c60 f   libucrtd:exit.obj
 0001:00033d00       ?common_exit@@YAXHW4_crt_exit_cleanup_mode@@W4_crt_exit_return_mode@@@Z 0000000180034d00 f   libucrtd:exit.obj
 0001:00033e50       ?exit_or_terminate_process@@YAXI@Z 0000000180034e50 f   libucrtd:exit.obj
 0001:00033ea0       ?is_managed_app@@YA_NXZ    0000000180034ea0 f   libucrtd:exit.obj
 0001:00033f50       ?should_call_terminate_process@@YA_NXZ 0000000180034f50 f   libucrtd:exit.obj
 0001:00033fb0       ?try_cor_exit_process@@YAXI@Z 0000000180034fb0 f   libucrtd:exit.obj
 0001:000340d8       ??$common_initialize_environment_nolock@D@@YAHXZ 00000001800350d8 f   libucrtd:environment_initialization.obj
 0001:00034150       ??$create_environment@D@@YAQEAPEADQEAD@Z 0000000180035150 f   libucrtd:environment_initialization.obj
 0001:000342a0       ??$free_environment@_W@@YAXQEAPEA_W@Z 00000001800352a0 f   libucrtd:environment_initialization.obj
 0001:000342a0       ??$free_environment@D@@YAXQEAPEAD@Z 00000001800352a0 f   libucrtd:environment_initialization.obj
 0001:000342e8       ??$uninitialize_environment_internal@D@@YAXAEAPEAPEAD@Z 00000001800352e8 f   libucrtd:environment_initialization.obj
 0001:00034304       ??$uninitialize_environment_internal@_W@@YAXAEAPEAPEA_W@Z 0000000180035304 f   libucrtd:environment_initialization.obj
 0001:00034560       ??R<lambda_942beefa13ab35ff55f86422493ffd6a>@@QEBAHXZ 0000000180035560 f   libucrtd:onexit.obj
 0001:00034870       ??R<lambda_e971338317bfa523bb8920b43d823727>@@QEBAHXZ 0000000180035870 f   libucrtd:onexit.obj
 0001:00034ba0       initialize_global_variables 0000000180035ba0 f   libucrtd:initialization.obj
 0001:00034bc0       initialize_c               0000000180035bc0 f   libucrtd:initialization.obj
 0001:00034bf0       uninitialize_global_state_isolation 0000000180035bf0 f   libucrtd:initialization.obj
 0001:00034bf0       uninitialize_c             0000000180035bf0 f   libucrtd:initialization.obj
 0001:00034c00       initialize_global_state_isolation 0000000180035c00 f   libucrtd:initialization.obj
 0001:00034c00       initialize_environment     0000000180035c00 f   libucrtd:initialization.obj
 0001:00034c10       uninitialize_environment   0000000180035c10 f   libucrtd:initialization.obj
 0001:00034c40       initialize_pointers        0000000180035c40 f   libucrtd:initialization.obj
 0001:00034ca0       uninitialize_vcruntime     0000000180035ca0 f   libucrtd:initialization.obj
 0001:00034cc0       uninitialize_allocated_memory 0000000180035cc0 f   libucrtd:initialization.obj
 0001:00034d90       report_memory_leaks        0000000180035d90 f   libucrtd:initialization.obj
 0001:00034f00       $$000000                   0000000180035f00     libucrtd:strlen.obj
 0001:00034fc0       ?block_from_header@@YAPEAEQEAU_CrtMemBlockHeader@@@Z 0000000180035fc0 f   libucrtd:debug_heap.obj
 0001:00034fd0       ?check_block@@YA_NQEAU_CrtMemBlockHeader@@@Z 0000000180035fd0 f   libucrtd:debug_heap.obj
 0001:00035390       ?check_bytes@@YA_NQEBEE_K@Z 0000000180036390 f   libucrtd:debug_heap.obj
 0001:00035400       ?dump_all_object_since_nolock@@YAXQEBU_CrtMemState@@@Z 0000000180036400 f   libucrtd:debug_heap.obj
 0001:000357d0       ?free_dbg_nolock@@YAXQEAXH@Z 00000001800367d0 f   libucrtd:debug_heap.obj
 0001:00035e30       ?header_from_block@@YAPEAU_CrtMemBlockHeader@@QEBX@Z 0000000180036e30 f   libucrtd:debug_heap.obj
 0001:00035e40       ?heap_alloc_dbg@@YAPEAX_KHQEBDH@Z 0000000180036e40 f   libucrtd:debug_heap.obj
 0001:00035ee0       ?heap_alloc_dbg_internal@@YAPEAX_KHQEBDH@Z 0000000180036ee0 f   libucrtd:debug_heap.obj
 0001:00036320       ?is_bad_read_pointer@@YA_NQEBX_K@Z 0000000180037320 f   libucrtd:debug_heap.obj
 0001:00036430       ?is_block_an_aligned_allocation@@YA_NQEBX@Z 0000000180037430 f   libucrtd:debug_heap.obj
 0001:00036470       ?is_block_type_valid@@YA_NH@Z 0000000180037470 f   libucrtd:debug_heap.obj
 0001:000364c0       ?print_block_data@@YAXQEAU__crt_locale_pointers@@QEAU_CrtMemBlockHeader@@@Z 00000001800374c0 f   libucrtd:debug_heap.obj
 0001:000366e0       ?realloc_dbg_nolock@@YAPEAXQEAXQEA_KHQEBDH_N@Z 00000001800376e0 f   libucrtd:debug_heap.obj
 0001:00036f00       ?validate_heap_if_required_nolock@@YAXXZ 0000000180037f00 f   libucrtd:debug_heap.obj
 0001:00037ba0       ??$common_tcscpy_s@D@@YAHQEAD_KQEBD@Z 0000000180038ba0 f   libucrtd:strcpy_s.obj
 0001:000380a0       $$000000                   00000001800390a0     libucrtd:strcmp.obj
 0001:00038120       ??$common_message_window@D@@YAHHQEAXQEBD111@Z 0000000180039120 f   libucrtd:dbgrpt.obj
 0001:000387d0       ??$common_message_window@_W@@YAHHQEAXQEB_W111@Z 00000001800397d0 f   libucrtd:dbgrpt.obj
 0001:00038e90       ?get_output_message_format@@YAPEB_WD@Z 0000000180039e90 f   libucrtd:dbgrpt.obj
 0001:00038ea0       ?get_output_message_format@@YAPEB_W_W@Z 0000000180039ea0 f   libucrtd:dbgrpt.obj
 0001:00038eb0       ?get_program_name_unknown_text@@YAPEBDD@Z 0000000180039eb0 f   libucrtd:dbgrpt.obj
 0001:00039410       ??$common_vfprintf@Vstandard_base@__crt_stdio_output@@_W@@YAH_KQEAU_iobuf@@QEB_WQEAU__crt_locale_pointers@@QEAD@Z 000000018003a410 f   libucrtd:output.obj
 0001:000395d0       ??$common_vsnprintf_s@D@@YAH_KQEAD00QEBDQEAU__crt_locale_pointers@@1@Z 000000018003a5d0 f   libucrtd:output.obj
 0001:00039b90       ??$common_vsnprintf_s@_W@@YAH_KQEA_W00QEB_WQEAU__crt_locale_pointers@@QEAD@Z 000000018003ab90 f   libucrtd:output.obj
 0001:0003a160       ??$common_vsprintf@Vformat_validation_base@__crt_stdio_output@@D@@YAH_KQEAD0QEBDQEAU__crt_locale_pointers@@1@Z 000000018003b160 f   libucrtd:output.obj
 0001:0003a640       ??$common_vsprintf@Vformat_validation_base@__crt_stdio_output@@_W@@YAH_KQEA_W0QEB_WQEAU__crt_locale_pointers@@QEAD@Z 000000018003b640 f   libucrtd:output.obj
 0001:0003ab10       ??$common_vsprintf@Vstandard_base@__crt_stdio_output@@_W@@YAH_KQEA_W0QEB_WQEAU__crt_locale_pointers@@QEAD@Z 000000018003bb10 f   libucrtd:output.obj
 0001:0003afe0       ??$common_vsprintf_s@D@@YAH_KQEAD0QEBDQEAU__crt_locale_pointers@@1@Z 000000018003bfe0 f   libucrtd:output.obj
 0001:0003c230       ??0<lambda_16bc4ecb55b4718497c16bceaea2ceaf>@@QEAA@AEBQEAU_iobuf@@@Z 000000018003d230 f   libucrtd:output.obj
 0001:0003c230       ??0<lambda_7b91131dde12e1c3dfc74ff76b3f2eac>@@QEAA@AEBQEAU_iobuf@@@Z 000000018003d230 f   libucrtd:output.obj
 0001:0003c230       ??0<lambda_e8c63f3eaa5b5d1d090047a93e563945>@@QEAA@AEBQEAU_iobuf@@@Z 000000018003d230 f   libucrtd:setvbuf.obj
 0001:0003c230       ??0<lambda_d99a45a39bf155923106577f928afec0>@@QEAA@AEBQEAU_iobuf@@@Z 000000018003d230 f   libucrtd:setvbuf.obj
 0001:0003c250       ??0<lambda_dd75445284c072d0bd3768540cc698fa>@@QEAA@AEBQEAU_iobuf@@AEBQEAU__crt_locale_pointers@@AEB_KAEBQEB_WAEBQEAD@Z 000000018003d250 f   libucrtd:output.obj
 0001:0003c8d0       ??R<lambda_dd75445284c072d0bd3768540cc698fa>@@QEBAHXZ 000000018003d8d0 f   libucrtd:output.obj
 0001:0003d3ec       $LN30                      000000018003e3ec     libucrtd:output.obj
 0001:0003d74c       $LN30                      000000018003e74c     libucrtd:output.obj
 0001:0003daac       $LN30                      000000018003eaac     libucrtd:output.obj
 0001:0003de0c       $LN30                      000000018003ee0c     libucrtd:output.obj
 0001:0003eaf8       $LN37                      000000018003faf8     libucrtd:output.obj
 0001:0003eb20       $LN36                      000000018003fb20     libucrtd:output.obj
 0001:0003ef78       $LN37                      000000018003ff78     libucrtd:output.obj
 0001:0003efa0       $LN36                      000000018003ffa0     libucrtd:output.obj
 0001:0003f3f8       $LN37                      00000001800403f8     libucrtd:output.obj
 0001:0003f420       $LN36                      0000000180040420     libucrtd:output.obj
 0001:0003f878       $LN37                      0000000180040878     libucrtd:output.obj
 0001:0003f8a0       $LN36                      00000001800408a0     libucrtd:output.obj
 0001:0003fd04       $LN38                      0000000180040d04     libucrtd:output.obj
 0001:0003fd34       $LN37                      0000000180040d34     libucrtd:output.obj
 0001:000401cc       $LN38                      00000001800411cc     libucrtd:output.obj
 0001:000401fc       $LN37                      00000001800411fc     libucrtd:output.obj
 0001:0004069c       $LN38                      000000018004169c     libucrtd:output.obj
 0001:000406cc       $LN37                      00000001800416cc     libucrtd:output.obj
 0001:00040b6c       $LN38                      0000000180041b6c     libucrtd:output.obj
 0001:00040b9c       $LN37                      0000000180041b9c     libucrtd:output.obj
 0001:00040dc0       $LN17                      0000000180041dc0     libucrtd:output.obj
 0001:00044c40       capture_current_context    0000000180045c40 f   LIBCMTD:gs_report.obj
 0001:00044c40       ?capture_current_context@@YAXQEAU_CONTEXT@@@Z 0000000180045c40 f   libucrtd:invalid_parameter.obj
 0001:00044fd0       ?issue_debug_notification@@YA_NQEB_W@Z 0000000180045fd0 f   libucrtd:report_runtime_error.obj
 0001:00045030       ?should_write_error_to_console@@YA_NXZ 0000000180046030 f   libucrtd:report_runtime_error.obj
 0001:00045070       ?write_string_to_console@@YAXQEB_W@Z 0000000180046070 f   libucrtd:report_runtime_error.obj
 0001:00045550       ??$common_xtox@KD@@YAHKQEAD_KI_N@Z 0000000180046550 f   libucrtd:xtoa.obj
 0001:00045790       ??$common_xtox@K_W@@YAHKQEA_W_KI_N@Z 0000000180046790 f   libucrtd:xtoa.obj
 0001:000459e0       ??$common_xtox_s@KD@@YAHKQEAD_KI_N@Z 00000001800469e0 f   libucrtd:xtoa.obj
 0001:00045d90       ??$common_xtox_s@K_W@@YAHKQEA_W_KI_N@Z 0000000180046d90 f   libucrtd:xtoa.obj
 0001:00046300       ??$common_tcscat_s@_W@@YAHQEA_W_KQEB_W@Z 0000000180047300 f   libucrtd:wcscat_s.obj
 0001:000469b0       ??$common_tcscpy_s@_W@@YAHQEA_W_KQEB_W@Z 00000001800479b0 f   libucrtd:wcscpy_s.obj
 0001:00046ec0       ??$common_tcsncat_s@_W@@YAHQEA_W_KQEB_W1@Z 0000000180047ec0 f   libucrtd:wcsncat_s.obj
 0001:00047690       ??$common_tcscat_s@D@@YAHQEAD_KQEBD@Z 0000000180048690 f   libucrtd:strcat_s.obj
 0001:00047d20       ??$common_show_message_box@_W@@YAHQEB_W0I@Z 0000000180048d20 f   libucrtd:crtmbox.obj
 0001:00047f60       ??$message_box_wait_thread@_W@@YAKQEAX@Z 0000000180048f60 f   libucrtd:crtmbox.obj
 0001:00048110       ??0<lambda_6ac21da2756cd333d25ba1adc9a0001e>@@QEAA@AEBQEAU__acrt_ptd@@@Z 0000000180049110 f i libucrtd:per_thread_data.obj
 0001:00048110       ??0<lambda_e9ab68cc08dfd839979545c079379e6e>@@QEAA@AEBH@Z 0000000180049110 f i libucrtd:commit.obj
 0001:00048110       ??0<lambda_876a65b173b8412d3a47c70a915b0cf4>@@QEAA@AEBQEAU__acrt_ptd@@@Z 0000000180049110 f i libucrtd:per_thread_data.obj
 0001:00048110       ??0<lambda_a8f98972ebaa5f7148d35bffe53bd70d>@@QEAA@AEBH@Z 0000000180049110 f i libucrtd:close.obj
 0001:00048110       ??0<lambda_e971338317bfa523bb8920b43d823727>@@QEAA@AEBQEAU_onexit_table_t@@@Z 0000000180049110 f i libucrtd:onexit.obj
 0001:00048110       ??0<lambda_2f900415df1f7f624cdaaefe86d0b1c0>@@QEAA@AEBQEAU__acrt_ptd@@@Z 0000000180049110 f i libucrtd:mbctype.obj
 0001:00048110       ??0<lambda_698284760c8add0bfb0756c19673e34b>@@QEAA@AEBQEAU__acrt_ptd@@@Z 0000000180049110 f i libucrtd:per_thread_data.obj
 0001:00048620       common_flush_all           0000000180049620 f   libucrtd:fflush.obj
 0001:000488a0       ??0<lambda_108d78a972a15edee025c8b3efe121dc>@@QEAA@AEB_KAEBV__crt_stdio_stream@@AEBHAEBQEAD@Z 00000001800498a0 f   libucrtd:setvbuf.obj
 0001:00048900       ??R<lambda_108d78a972a15edee025c8b3efe121dc>@@QEBAHXZ 0000000180049900 f   libucrtd:setvbuf.obj
 0001:00048a70       ??R<lambda_16bc4ecb55b4718497c16bceaea2ceaf>@@QEBAXXZ 0000000180049a70 f   libucrtd:output.obj
 0001:00048a70       ??R<lambda_d99a45a39bf155923106577f928afec0>@@QEBAXXZ 0000000180049a70 f   libucrtd:setvbuf.obj
 0001:00048a90       ??R<lambda_e8c63f3eaa5b5d1d090047a93e563945>@@QEBAXXZ 0000000180049a90 f   libucrtd:setvbuf.obj
 0001:00048a90       ??R<lambda_7b91131dde12e1c3dfc74ff76b3f2eac>@@QEBAXXZ 0000000180049a90 f   libucrtd:output.obj
 0001:00048ab0       ?set_buffer@@YAHV__crt_stdio_stream@@QEAD_KH@Z 0000000180049ab0 f   libucrtd:setvbuf.obj
 0001:00048eb0       ??0<lambda_8773731b9ba2edf4362dda13ebc82854>@@QEAA@AEBW4__acrt_lock_id@@@Z 0000000180049eb0 f   libucrtd:per_thread_data.obj
 0001:00048eb0       ??0<lambda_5e887d1dcbef67a5eb4283622ba103bf>@@QEAA@AEBW4__acrt_lock_id@@@Z 0000000180049eb0 f   libucrtd:per_thread_data.obj
 0001:00048eb0       ??0<lambda_b0d8f1f77f5878de4f648f281b223c15>@@QEAA@AEBW4__acrt_lock_id@@@Z 0000000180049eb0 f   libucrtd:onexit.obj
 0001:00048eb0       ??0<lambda_7adb6fc9c0d6a5bd4e2d9c212ec7cdcc>@@QEAA@AEBW4__acrt_lock_id@@@Z 0000000180049eb0 f   libucrtd:onexit.obj
 0001:00048eb0       ??0<lambda_341c25c0346d94847f1f3c463c57e077>@@QEAA@AEBW4__acrt_lock_id@@@Z 0000000180049eb0 f   libucrtd:per_thread_data.obj
 0001:00048eb0       ??0<lambda_2ce24b26f23dade10250ef086380d911>@@QEAA@AEBH@Z 0000000180049eb0 f   libucrtd:commit.obj
 0001:00048eb0       ??0<lambda_dc9d2797ccde5d239b4a0efae8ebd7db>@@QEAA@AEBW4__acrt_lock_id@@@Z 0000000180049eb0 f   libucrtd:signal.obj
 0001:00048eb0       ??0<lambda_441f2315ac0f593d45428a8fceb6abe6>@@QEAA@AEBW4__acrt_lock_id@@@Z 0000000180049eb0 f   libucrtd:mbctype.obj
 0001:00048eb0       ??0<lambda_c36588078e9f5dfd39652860aa6b3aaf>@@QEAA@AEBW4__acrt_lock_id@@@Z 0000000180049eb0 f   libucrtd:signal.obj
 0001:00048eb0       ??0<lambda_6262c464c96e4c69799ed44814c7c457>@@QEAA@AEBH@Z 0000000180049eb0 f   libucrtd:commit.obj
 0001:00048eb0       ??0<lambda_d22e02de4d14401f49897516b29a2b7c>@@QEAA@AEBW4__acrt_lock_id@@@Z 0000000180049eb0 f   libucrtd:onexit.obj
 0001:00048eb0       ??0<lambda_41932305e351933ebe8f8be3ed8bb5dc>@@QEAA@AEBW4__acrt_lock_id@@@Z 0000000180049eb0 f   libucrtd:per_thread_data.obj
 0001:00048eb0       ??0<lambda_2c95662d60720604e97e3009a1ee1859>@@QEAA@AEBW4__acrt_lock_id@@@Z 0000000180049eb0 f   libucrtd:per_thread_data.obj
 0001:00048eb0       ??0<lambda_1d10a5a8ccb596b49763520e59d5af47>@@QEAA@AEBW4__acrt_lock_id@@@Z 0000000180049eb0 f   libucrtd:mbctype.obj
 0001:00048eb0       ??0<lambda_b0b8599c9027f5b14541fbbd6863d1f1>@@QEAA@AEBW4__acrt_lock_id@@@Z 0000000180049eb0 f   libucrtd:onexit.obj
 0001:00048eb0       ??0<lambda_fb3a7dec4e47f37f22dae91bb15c9095>@@QEAA@AEBW4__acrt_lock_id@@@Z 0000000180049eb0 f   libucrtd:per_thread_data.obj
 0001:00048eb0       ??0<lambda_4f1f1a84956f0d44b74de224c960ff76>@@QEAA@AEBH@Z 0000000180049eb0 f   libucrtd:close.obj
 0001:00048eb0       ??0<lambda_72d1df2b273a38828b1ce30cbf4cdab5>@@QEAA@AEBW4__acrt_lock_id@@@Z 0000000180049eb0 f   libucrtd:per_thread_data.obj
 0001:00048eb0       ??0<lambda_dfb8eca1e75fef3034a8fb18dd509707>@@QEAA@AEBW4__acrt_lock_id@@@Z 0000000180049eb0 f   libucrtd:per_thread_data.obj
 0001:00048eb0       ??0<lambda_f6ca65dda28655a1cf758c1c4e38e52a>@@QEAA@AEBH@Z 0000000180049eb0 f   libucrtd:close.obj
 0001:00048ed0       ??R<lambda_ec61778202f4f5fc7e7711acc23c3bca>@@QEBAP6AXH@ZXZ 0000000180049ed0 f   libucrtd:signal.obj
 0001:00048f00       ?get_global_action_nolock@@YAPEAP6AXH@ZH@Z 0000000180049f00 f   libucrtd:signal.obj
 0001:00048fe0       ?siglookup@@YAPEAU__crt_signal_action_t@@HQEAU1@@Z 0000000180049fe0 f   libucrtd:signal.obj
 0001:00049598       $LN48                      000000018004a598     libucrtd:signal.obj
 0001:000495a4       $LN47                      000000018004a5a4     libucrtd:signal.obj
 0001:00049790       ?find_or_allocate_unused_stream_nolock@@YA?AV__crt_stdio_stream@@XZ 000000018004a790 f   libucrtd:stream.obj
 0001:0004a450       $LN78                      000000018004b450     libucrtd:openfile.obj
 0001:0004a484       $LN77                      000000018004b484     libucrtd:openfile.obj
 0001:0004a4e0       ??$common_openfile@D@@YAPEAU_iobuf@@QEBD0HV__crt_stdio_stream@@@Z 000000018004b4e0 f   libucrtd:openfile.obj
 0001:0004ab60       ??R<lambda_4f1f1a84956f0d44b74de224c960ff76>@@QEBAXXZ 000000018004bb60 f   libucrtd:close.obj
 0001:0004ab60       ??R<lambda_2ce24b26f23dade10250ef086380d911>@@QEBAXXZ 000000018004bb60 f   libucrtd:commit.obj
 0001:0004ab80       ??R<lambda_a8f98972ebaa5f7148d35bffe53bd70d>@@QEBAHXZ 000000018004bb80 f   libucrtd:close.obj
 0001:0004ac30       ??R<lambda_6262c464c96e4c69799ed44814c7c457>@@QEBAXXZ 000000018004bc30 f   libucrtd:commit.obj
 0001:0004ac30       ??R<lambda_f6ca65dda28655a1cf758c1c4e38e52a>@@QEBAXXZ 000000018004bc30 f   libucrtd:close.obj
 0001:0004ac50       ?close_os_handle_nolock@@YAKH@Z 000000018004bc50 f   libucrtd:close.obj
 0001:0004b150       ??$translate_text_mode_nolock@D@@YAHHQEAD_K@Z 000000018004c150 f   libucrtd:read.obj
 0001:0004b530       ??$translate_text_mode_nolock@_W@@YAHHQEA_W_K@Z 000000018004c530 f   libucrtd:read.obj
 0001:0004b940       ?store_lookahead@@YAXHD@Z  000000018004c940 f   libucrtd:read.obj
 0001:0004b980       ?store_lookahead@@YAXH_W@Z 000000018004c980 f   libucrtd:read.obj
 0001:0004ba60       ?translate_ansi_or_utf8_nolock@@YAHHQEAD_KQEA_W1@Z 000000018004ca60 f   libucrtd:read.obj
 0001:0004be20       ?translate_utf16_from_console_nolock@@YAHHQEA_W_K@Z 000000018004ce20 f   libucrtd:read.obj
 0001:0004d070       ??$common_refill_and_read_nolock@D@@YAHV__crt_stdio_stream@@@Z 000000018004e070 f   libucrtd:_filbuf.obj
 0001:0004d440       ?get_context_nolock@@YAHV__crt_stdio_stream@@D@Z 000000018004e440 f   libucrtd:_filbuf.obj
 0001:0004d450       ?is_buffer_valid_nolock@@YA_NV__crt_stdio_stream@@D@Z 000000018004e450 f   libucrtd:_filbuf.obj
 0001:0004d4a0       ?read_character_nolock@@YAEV__crt_stdio_stream@@HD@Z 000000018004e4a0 f   libucrtd:_filbuf.obj
 0001:0004d540       ??$common_lseek@_J@@YA_JH_JH@Z 000000018004e540 f   libucrtd:lseek.obj
 0001:0004d7e0       ??$common_lseek_nolock@_J@@YA_JH_JH@Z 000000018004e7e0 f   libucrtd:lseek.obj
 0001:0004d8f0       ?common_lseek_do_seek_nolock@@YA_JQEAX_JH@Z 000000018004e8f0 f   libucrtd:lseek.obj
 0001:0004d9b0       ?get_std_handle_id@@YAKH@Z 000000018004e9b0 f   libucrtd:ioinit.obj
 0001:0004da00       ?initialize_inherited_file_handles_nolock@@YAXXZ 000000018004ea00 f   libucrtd:ioinit.obj
 0001:0004dbb0       ?initialize_stdio_handles_nolock@@YAXXZ 000000018004ebb0 f   libucrtd:ioinit.obj
 0001:0004e2b0       _get_fname                 000000018004f2b0 f   libucrtd:fpexcept.obj
 0001:0004fa70       ??0<lambda_4466841279450cc726390878d4a41900>@@QEAA@AEBQEAU__acrt_ptd@@AEBQEAPEAU__crt_locale_data@@@Z 0000000180050a70 f   libucrtd:per_thread_data.obj
 0001:0004fa70       ??0<lambda_942beefa13ab35ff55f86422493ffd6a>@@QEAA@AEBQEAU_onexit_table_t@@AEBQ6AHXZ@Z 0000000180050a70 f   libucrtd:onexit.obj
 0001:0004fb00       ??R<lambda_4466841279450cc726390878d4a41900>@@QEBAXXZ 0000000180050b00 f   libucrtd:per_thread_data.obj
 0001:0004fb30       ??R<lambda_698284760c8add0bfb0756c19673e34b>@@QEBAXXZ 0000000180050b30 f   libucrtd:per_thread_data.obj
 0001:0004fb50       ??R<lambda_6ac21da2756cd333d25ba1adc9a0001e>@@QEBAXXZ 0000000180050b50 f   libucrtd:per_thread_data.obj
 0001:0004fbc0       ??R<lambda_876a65b173b8412d3a47c70a915b0cf4>@@QEBAXXZ 0000000180050bc0 f   libucrtd:per_thread_data.obj
 0001:0004fbe0       ??R<lambda_dc9d2797ccde5d239b4a0efae8ebd7db>@@QEBAXXZ 0000000180050be0 f   libucrtd:signal.obj
 0001:0004fbe0       ??R<lambda_41932305e351933ebe8f8be3ed8bb5dc>@@QEBAXXZ 0000000180050be0 f   libucrtd:per_thread_data.obj
 0001:0004fbe0       ??R<lambda_dfb8eca1e75fef3034a8fb18dd509707>@@QEBAXXZ 0000000180050be0 f   libucrtd:per_thread_data.obj
 0001:0004fbe0       ??R<lambda_2c95662d60720604e97e3009a1ee1859>@@QEBAXXZ 0000000180050be0 f   libucrtd:per_thread_data.obj
 0001:0004fbe0       ??R<lambda_1d10a5a8ccb596b49763520e59d5af47>@@QEBAXXZ 0000000180050be0 f   libucrtd:mbctype.obj
 0001:0004fbe0       ??R<lambda_7adb6fc9c0d6a5bd4e2d9c212ec7cdcc>@@QEBAXXZ 0000000180050be0 f   libucrtd:onexit.obj
 0001:0004fbe0       ??R<lambda_b0b8599c9027f5b14541fbbd6863d1f1>@@QEBAXXZ 0000000180050be0 f   libucrtd:onexit.obj
 0001:0004fbe0       ??R<lambda_341c25c0346d94847f1f3c463c57e077>@@QEBAXXZ 0000000180050be0 f   libucrtd:per_thread_data.obj
 0001:0004fc00       ??R<lambda_8773731b9ba2edf4362dda13ebc82854>@@QEBAXXZ 0000000180050c00 f   libucrtd:per_thread_data.obj
 0001:0004fc00       ??R<lambda_b0d8f1f77f5878de4f648f281b223c15>@@QEBAXXZ 0000000180050c00 f   libucrtd:onexit.obj
 0001:0004fc00       ??R<lambda_5e887d1dcbef67a5eb4283622ba103bf>@@QEBAXXZ 0000000180050c00 f   libucrtd:per_thread_data.obj
 0001:0004fc00       ??R<lambda_c36588078e9f5dfd39652860aa6b3aaf>@@QEBAXXZ 0000000180050c00 f   libucrtd:signal.obj
 0001:0004fc00       ??R<lambda_d22e02de4d14401f49897516b29a2b7c>@@QEBAXXZ 0000000180050c00 f   libucrtd:onexit.obj
 0001:0004fc00       ??R<lambda_441f2315ac0f593d45428a8fceb6abe6>@@QEBAXXZ 0000000180050c00 f   libucrtd:mbctype.obj
 0001:0004fc00       ??R<lambda_fb3a7dec4e47f37f22dae91bb15c9095>@@QEBAXXZ 0000000180050c00 f   libucrtd:per_thread_data.obj
 0001:0004fc00       ??R<lambda_72d1df2b273a38828b1ce30cbf4cdab5>@@QEBAXXZ 0000000180050c00 f   libucrtd:per_thread_data.obj
 0001:0004fc20       ?construct_ptd@@YAXQEAU__acrt_ptd@@QEAPEAU__crt_locale_data@@@Z 0000000180050c20 f   libucrtd:per_thread_data.obj
 0001:0004fd00       ?construct_ptd_array@@YAXQEAU__acrt_ptd@@@Z 0000000180050d00 f   libucrtd:per_thread_data.obj
 0001:0004fd80       ?destroy_fls@@YAXPEAX@Z    0000000180050d80 f   libucrtd:per_thread_data.obj
 0001:0004fdc0       ?destroy_ptd@@YAXQEAU__acrt_ptd@@@Z 0000000180050dc0 f   libucrtd:per_thread_data.obj
 0001:0004fee0       ?destroy_ptd_array@@YAXQEAU__acrt_ptd@@@Z 0000000180050ee0 f   libucrtd:per_thread_data.obj
 0001:0004ff30       ?get_ptd_head@@YAPEAU__acrt_ptd@@XZ 0000000180050f30 f   libucrtd:per_thread_data.obj
 0001:00050020       ?internal_getptd_noexit@@YAPEAU__acrt_ptd@@XZ 0000000180051020 f   libucrtd:per_thread_data.obj
 0001:000500d0       ?replace_current_thread_locale_nolock@@YAXQEAU__acrt_ptd@@QEAU__crt_locale_data@@@Z 00000001800510d0 f   libucrtd:per_thread_data.obj
 0001:00050190       ?try_get_ptd_head@@YAPEAU__acrt_ptd@@XZ 0000000180051190 f   libucrtd:per_thread_data.obj
 0001:00050430       _call_matherr              0000000180051430 f   libucrtd:libm_error.obj
 0001:000504c0       _exception_enabled         00000001800514c0 f   libucrtd:libm_error.obj
 0001:00050cb4       $LN10                      0000000180051cb4     libucrtd:pow_special.obj
 0001:00050e10       ?invalid_function_sentinel@@YAPEAXXZ 0000000180051e10 f   libucrtd:winapi_thunks.obj
 0001:00050e10       ?invalid_function_sentinel@@YAPEAXXZ 0000000180051e10 f   libvcruntimed:winapi_downlevel.obj
 0001:00050e20       ?try_get_AreFileApisANSI@@YAP6AHXZXZ 0000000180051e20 f   libucrtd:winapi_thunks.obj
 0001:00050e50       ?try_get_FlsAlloc@@YAP6AKP6AXPEAX@Z@ZXZ 0000000180051e50 f   libucrtd:winapi_thunks.obj
 0001:00050e80       ?try_get_FlsFree@@YAP6AHK@ZXZ 0000000180051e80 f   libucrtd:winapi_thunks.obj
 0001:00050eb0       ?try_get_FlsGetValue@@YAP6APEAXK@ZXZ 0000000180051eb0 f   libucrtd:winapi_thunks.obj
 0001:00050ee0       ?try_get_FlsSetValue@@YAP6AHKPEAX@ZXZ 0000000180051ee0 f   libucrtd:winapi_thunks.obj
 0001:00050f10       ?try_get_GetActiveWindow@@YAP6APEAUHWND__@@XZXZ 0000000180051f10 f   libucrtd:winapi_thunks.obj
 0001:00050f40       ?try_get_GetCurrentPackageId@@YAP6AJPEAIPEAE@ZXZ 0000000180051f40 f   libucrtd:winapi_thunks.obj
 0001:00050f70       ?try_get_GetLastActivePopup@@YAP6APEAUHWND__@@PEAU1@@ZXZ 0000000180051f70 f   libucrtd:winapi_thunks.obj
 0001:00050fa0       ?try_get_GetProcessWindowStation@@YAP6APEAUHWINSTA__@@XZXZ 0000000180051fa0 f   libucrtd:winapi_thunks.obj
 0001:00050fd0       ?try_get_GetUserObjectInformationW@@YAP6AHPEAXH0KPEAK@ZXZ 0000000180051fd0 f   libucrtd:winapi_thunks.obj
 0001:00051000       ?try_get_InitializeCriticalSectionEx@@YAP6AHPEAU_RTL_CRITICAL_SECTION@@KK@ZXZ 0000000180052000 f   libucrtd:winapi_thunks.obj
 0001:00051030       ?try_get_LCMapStringEx@@YAP6AHPEB_WK0HPEA_WHPEAU_nlsversioninfo@@PEAX_J@ZXZ 0000000180052030 f   libucrtd:winapi_thunks.obj
 0001:00051060       ?try_get_LocaleNameToLCID@@YAP6AKPEB_WK@ZXZ 0000000180052060 f   libucrtd:winapi_thunks.obj
 0001:00051090       ?try_get_MessageBoxA@@YAP6AHPEAUHWND__@@PEBD1I@ZXZ 0000000180052090 f   libucrtd:winapi_thunks.obj
 0001:000510c0       ?try_get_MessageBoxW@@YAP6AHPEAUHWND__@@PEB_W1I@ZXZ 00000001800520c0 f   libucrtd:winapi_thunks.obj
 0001:000510f0       ?try_get_first_available_module@@YAPEAUHINSTANCE__@@QEBW4module_id@?A0x1dd686d3@@0@Z 00000001800520f0 f   libucrtd:winapi_thunks.obj
 0001:00051150       ?try_get_function@@YAPEAXW4function_id@?A0x1dd686d3@@QEBDQEBW4module_id@2@2@Z 0000000180052150 f   libucrtd:winapi_thunks.obj
 0001:000512f0       ?try_get_module@@YAPEAUHINSTANCE__@@W4module_id@?A0x1dd686d3@@@Z 00000001800522f0 f   libucrtd:winapi_thunks.obj
 0001:00051450       ?try_get_proc_address_from_first_available_module@@YAPEAXQEBDQEBW4module_id@?A0x1dd686d3@@1@Z 0000000180052450 f   libucrtd:winapi_thunks.obj
 0001:00051d20       ??R<lambda_2f900415df1f7f624cdaaefe86d0b1c0>@@QEBAXXZ 0000000180052d20 f   libucrtd:mbctype.obj
 0001:00051e80       ?CPtoLocaleName@@YAPEB_WH@Z 0000000180052e80 f   libucrtd:mbctype.obj
 0001:00051f20       ?getSystemCP@@YAHH@Z       0000000180052f20 f   libucrtd:mbctype.obj
 0001:00052000       ?setSBCS@@YAXPEAU__crt_multibyte_data@@@Z 0000000180053000 f   libucrtd:mbctype.obj
 0001:00052100       ?setSBUpLow@@YAXPEAU__crt_multibyte_data@@@Z 0000000180053100 f   libucrtd:mbctype.obj
 0001:000524e0       ?setmbcp_internal@@YAHH_N@Z 00000001800534e0 f   libucrtd:mbctype.obj
 0001:00053420       ?select_heap@@YAPEAXQEAX@Z 0000000180054420 f   libucrtd:free_base.obj
 0001:00053560       ?is_lfh_enabled@@YA_NXZ    0000000180054560 f   libucrtd:expand.obj
 0001:00054f10       ?fast_check@@YAHHH@Z       0000000180055f10 f   libucrtd:_ctype.obj
 0001:00054fc0       ??$common_tox_l@$1?internal_isupper_l@@YA_NHQEAU__crt_locale_pointers@@@Z$1?internal_map_lower@@YAHH0@Z@@YAHHKQEAU__crt_locale_pointers@@@Z 0000000180055fc0 f   libucrtd:tolower_toupper.obj
 0001:000552e0       ?internal_isupper_l@@YA_NHQEAU__crt_locale_pointers@@@Z 00000001800562e0 f   libucrtd:tolower_toupper.obj
 0001:00055320       ?internal_map_lower@@YAHHQEAU__crt_locale_pointers@@@Z 0000000180056320 f   libucrtd:tolower_toupper.obj
 0001:00055c30       ??$common_strnlen@E@@YA_KQEBE_K@Z 0000000180056c30 f   libucrtd:strnlen.obj
 0001:00055c90       ??$common_strnlen@G@@YA_KQEBG_K@Z 0000000180056c90 f   libucrtd:strnlen.obj
 0001:00055cf0       ??$common_strnlen_c@E@@YA_KQEBE_K@Z 0000000180056cf0 f   libucrtd:strnlen.obj
 0001:00055d60       ??$common_strnlen_c@G@@YA_KQEBG_K@Z 0000000180056d60 f   libucrtd:strnlen.obj
 0001:00055dd0       ??$common_strnlen_simd@$00E@@YA_KQEBE_K@Z 0000000180056dd0 f   libucrtd:strnlen.obj
 0001:00056040       ??$common_strnlen_simd@$00G@@YA_KQEBG_K@Z 0000000180057040 f   libucrtd:strnlen.obj
 0001:000562d0       ??$common_strnlen_simd@$0A@E@@YA_KQEBE_K@Z 00000001800572d0 f   libucrtd:strnlen.obj
 0001:00056590       ??$common_strnlen_simd@$0A@G@@YA_KQEBG_K@Z 0000000180057590 f   libucrtd:strnlen.obj
 0001:00056ba0       ?fp_format_a@@YAHQEBNPEAD_KQEAD2H_NIQEAU__crt_locale_pointers@@@Z 0000000180057ba0 f   libucrtd:cvt.obj
 0001:00057440       ?fp_format_e@@YAHQEBNQEAD_K12H_NIQEAU__crt_locale_pointers@@@Z 0000000180058440 f   libucrtd:cvt.obj
 0001:000575f0       ?fp_format_e_internal@@YAHQEAD_KH_NIQEAU_strflt@@2QEAU__crt_locale_pointers@@@Z 00000001800585f0 f   libucrtd:cvt.obj
 0001:00057a20       ?fp_format_f@@YAHQEBNQEAD_K12HQEAU__crt_locale_pointers@@@Z 0000000180058a20 f   libucrtd:cvt.obj
 0001:00057b70       ?fp_format_f_internal@@YAHQEAD_KHQEAU_strflt@@_NQEAU__crt_locale_pointers@@@Z 0000000180058b70 f   libucrtd:cvt.obj
 0001:00057dc0       ?fp_format_g@@YAHQEBNQEAD_K12H_NIQEAU__crt_locale_pointers@@@Z 0000000180058dc0 f   libucrtd:cvt.obj
 0001:00058000       ?fp_format_nan_or_infinity@@YAHW4__acrt_fp_class@@_NPEAD_K1@Z 0000000180059000 f   libucrtd:cvt.obj
 0001:00058280       ?shift_bytes@@YAXQEAD_K0H@Z 0000000180059280 f   libucrtd:cvt.obj
 0001:0005887c       $LN34                      000000018005987c     libucrtd:cvt.obj
 0001:00058890       $LN33                      0000000180059890     libucrtd:cvt.obj
 0001:000588c0       ?fputwc_binary_nolock@@YAG_WV__crt_stdio_stream@@@Z 00000001800598c0 f   libucrtd:fputwc.obj
 0001:00058cb0       ??$common_tcsncpy_s@_W@@YAHQEA_W_KQEB_W1@Z 0000000180059cb0 f   libucrtd:wcsncpy_s.obj
 0001:00059550       ??R<lambda_e9ab68cc08dfd839979545c079379e6e>@@QEBAHXZ 000000018005a550 f   libucrtd:commit.obj
 0001:000597f0       ?write_binary_nolock@@YA?AUwrite_result@?A0x4392dfaa@@HQEBDI@Z 000000018005a7f0 f   libucrtd:write.obj
 0001:000598d0       ?write_double_translated_ansi_nolock@@YA?AUwrite_result@?A0x4392dfaa@@HQEBDI@Z 000000018005a8d0 f   libucrtd:write.obj
 0001:00059ed0       ?write_double_translated_unicode_nolock@@YA?AUwrite_result@?A0x4392dfaa@@QEBDI@Z 000000018005aed0 f   libucrtd:write.obj
 0001:0005a030       ?write_requires_double_translation_nolock@@YA_NH@Z 000000018005b030 f   libucrtd:write.obj
 0001:0005a150       ?write_text_ansi_nolock@@YA?AUwrite_result@?A0x4392dfaa@@HQEBDI@Z 000000018005b150 f   libucrtd:write.obj
 0001:0005a380       ?write_text_utf16le_nolock@@YA?AUwrite_result@?A0x4392dfaa@@HQEBDI@Z 000000018005b380 f   libucrtd:write.obj
 0001:0005a5c0       ?write_text_utf8_nolock@@YA?AUwrite_result@?A0x4392dfaa@@HQEBDI@Z 000000018005b5c0 f   libucrtd:write.obj
 0001:0005b810       ??$common_sopen_dispatch@D@@YAHQEBDHHHQEAHH@Z 000000018005c810 f   libucrtd:open.obj
 0001:0005bbd0       ?configure_text_mode@@YAHHUfile_options@?A0xc3dee958@@HAEAW4__crt_lowio_text_mode@@@Z 000000018005cbd0 f   libucrtd:open.obj
 0001:0005c170       ?create_file@@YAPEAXQEB_WQEAU_SECURITY_ATTRIBUTES@@Ufile_options@?A0xc3dee958@@@Z 000000018005d170 f   libucrtd:open.obj
 0001:0005c1e0       ?decode_access_flags@@YAKH@Z 000000018005d1e0 f   libucrtd:open.obj
 0001:0005c300       ?decode_open_create_flags@@YAKH@Z 000000018005d300 f   libucrtd:open.obj
 0001:0005c450       ?decode_options@@YA?AUfile_options@?A0xc3dee958@@HHH@Z 000000018005d450 f   libucrtd:open.obj
 0001:0005c5e0       ?decode_sharing_flags@@YAKHH@Z 000000018005d5e0 f   libucrtd:open.obj
 0001:0005c710       ?is_text_mode@@YA_NH@Z     000000018005d710 f   libucrtd:open.obj
 0001:0005c790       ?truncate_ctrl_z_if_present@@YAHH@Z 000000018005d790 f   libucrtd:open.obj
 0001:0005de20       $$000000                   000000018005ee20     libucrtd:fpsr.obj
 0001:0005de80       __get_machine_status       000000018005ee80 f   libucrtd:_fenvutils.obj
 0001:0005ef50       ??$free_crt_array@D$0M@@@YAXAEAY0M@PEAD@Z 000000018005ff50 f   libucrtd:inittime.obj
 0001:0005ef50       ??$free_crt_array@_W$0M@@@YAXAEAY0M@PEA_W@Z 000000018005ff50 f   libucrtd:inittime.obj
 0001:0005ef70       ??$free_crt_array@D$01@@YAXAEAY01PEAD@Z 000000018005ff70 f   libucrtd:inittime.obj
 0001:0005ef70       ??$free_crt_array@_W$01@@YAXAEAY01PEA_W@Z 000000018005ff70 f   libucrtd:inittime.obj
 0001:0005ef90       ??$free_crt_array@D$06@@YAXAEAY06PEAD@Z 000000018005ff90 f   libucrtd:inittime.obj
 0001:0005ef90       ??$free_crt_array@_W$06@@YAXAEAY06PEA_W@Z 000000018005ff90 f   libucrtd:inittime.obj
 0001:0005efb0       ?free_crt_array_internal@@YAXQEAPEBX_K@Z 000000018005ffb0 f   libucrtd:inittime.obj
 0001:0005f180       ?GetTableIndexFromLocaleName@@YAHPEB_W@Z 0000000180060180 f   libucrtd:lcidtoname_downlevel.obj
 0001:0005f230       ?__wcsnicmp_ascii@@YAHPEB_W0_K@Z 0000000180060230 f   libucrtd:lcidtoname_downlevel.obj
 0001:0005f3a0       ?initialize_multibyte@@YAHXZ 00000001800603a0 f   libucrtd:multibyte_initializer.obj
 0001:0005f3d0       ?__acrt_LCMapStringA_stat@@YAHPEAU__crt_locale_pointers@@PEB_WKPEBDHPEADHHH@Z 00000001800603d0 f   libucrtd:lcmapstringa.obj
 0001:0005fb10       ?_mbstowcs_l_helper@@YA_KPEA_WPEBD_KPEAU__crt_locale_pointers@@@Z 0000000180060b10 f   libucrtd:mbstowcs.obj
 0001:000606a0       ?_wcstombs_l_helper@@YA_KPEADPEB_W_KPEAU__crt_locale_pointers@@@Z 00000001800616a0 f   libucrtd:wcstombs.obj
 0001:00060ee0       ?wcsncnt@@YA_KPEB_W_K@Z    0000000180061ee0 f   libucrtd:wcstombs.obj
 0001:00061960       ??$convert_to_fos_high_precision@N@@YAXNIQEAHQEAD_K@Z 0000000180062960 f   libucrtd:cfout.obj
 0001:00063b80       ??$common_flush_and_write_nolock@D@@YAHHV__crt_stdio_stream@@@Z 0000000180064b80 f   libucrtd:_flsbuf.obj
 0001:00063df0       ??$common_flush_and_write_nolock@_W@@YAHHV__crt_stdio_stream@@@Z 0000000180064df0 f   libucrtd:_flsbuf.obj
 0001:00064060       ??$write_buffer_nolock@D@@YA_NDV__crt_stdio_stream@@@Z 0000000180065060 f   libucrtd:_flsbuf.obj
 0001:000642d0       ??$write_buffer_nolock@_W@@YA_N_WV__crt_stdio_stream@@@Z 00000001800652d0 f   libucrtd:_flsbuf.obj
 0001:00064ef0       _abstract_cw               0000000180065ef0 f   libucrtd:ieee.obj
 0001:00065040       _abstract_sw               0000000180066040 f   libucrtd:ieee.obj
 0001:00065130       _hw_cw                     0000000180066130 f   libucrtd:ieee.obj
 0001:000652a0       common_control87           00000001800662a0 f   libucrtd:ieee.obj
 0001:00065420       $$000000                   0000000180066420     libucrtd:log10.obj
 0001:00065b90       _log_special_common        0000000180066b90 f   libucrtd:log_special.obj
 0001:00066090       $$000000                   0000000180067090     libvcruntimed:memcpy.obj
 0001:00066137       MoveSmall                  0000000180067137     libvcruntimed:memcpy.obj
 0001:000664e0       $$000000                   00000001800674e0     libvcruntimed:memset.obj
 0001:000665cc       MsetTab                    00000001800675cc     libvcruntimed:memset.obj
 0001:00066690       $$000000                   0000000180067690     libvcruntimed:memcmp.obj
 0001:00066b90       ?_CatchTryBlock@@YAPEBU_s_TryBlockMapEntry@@PEBU_s_FuncInfo@@H@Z 0000000180067b90 f   libvcruntimed:trnsctrl.obj
 0001:00067b30       ?CatchIt@@YAXPEAUEHExceptionRecord@@PEA_KPEAU_CONTEXT@@PEAU_xDISPATCHER_CONTEXT@@PEBU_s_FuncInfo@@PEBU_s_HandlerType@@PEBU_s_CatchableType@@PEBU_s_TryBlockMapEntry@@H1EE@Z 0000000180068b30 f   libvcruntimed:frame.obj
 0001:00067c10       ?ExFilterRethrow@@YAHPEAU_EXCEPTION_POINTERS@@PEAUEHExceptionRecord@@PEAH@Z 0000000180068c10 f   libvcruntimed:frame.obj
 0001:00067d10       ?FindHandler@@YAXPEAUEHExceptionRecord@@PEA_KPEAU_CONTEXT@@PEAU_xDISPATCHER_CONTEXT@@PEBU_s_FuncInfo@@EH1@Z 0000000180068d10 f   libvcruntimed:frame.obj
 0001:00068530       ?FindHandlerForForeignException@@YAXPEAUEHExceptionRecord@@PEA_KPEAU_CONTEXT@@PEAU_xDISPATCHER_CONTEXT@@PEBU_s_FuncInfo@@HH1@Z 0000000180069530 f   libvcruntimed:frame.obj
 0001:000688a0       ?IsInExceptionSpec@@YAEPEAUEHExceptionRecord@@PEBU_s_ESTypeList@@@Z 00000001800698a0 f   libvcruntimed:frame.obj
 0001:000689b0       ?Is_bad_exception_allowed@@YAEPEBU_s_ESTypeList@@@Z 00000001800699b0 f   libvcruntimed:frame.obj
 0001:00068b30       ?__RethrowException@@YAXPEAUEHExceptionRecord@@@Z 0000000180069b30 f   libvcruntimed:frame.obj
 0001:00069db0       $$000000                   000000018006adb0     libvcruntimed:handlers.obj
 0001:0006a150       $$000000                   000000018006b150     LIBCMTD:_guard_dispatch_.obj
 0001:0006a170       ?fin$0@?0??dllmain_crt_process_attach@@YAHQEAUHINSTANCE__@@QEAX@Z@4HA 000000018006b170 f   LIBCMTD:dll_dllmain.obj
 0001:0006a190       ?fin$0@?0??dllmain_crt_process_detach@@YAH_N@Z@4HA 000000018006b190 f   LIBCMTD:dll_dllmain.obj
 0001:0006a1b0       ?filt$0@?0??dllmain_dispatch@@YAHQEAUHINSTANCE__@@KQEAX@Z@4HA 000000018006b1b0 f   LIBCMTD:dll_dllmain.obj
 0001:0006a200       __scrt_is_nonwritable_in_current_image$filt$0 000000018006b200 f   LIBCMTD:utility.obj
 0001:0006a240       ?fin$0@?0???$common_fsopen@D@@YAPEAU_iobuf@@QEBD0H@Z@4HA 000000018006b240 f   libucrtd:fopen.obj
 0001:0006a270       fclose$fin$0               000000018006b270 f   libucrtd:fclose.obj
 0001:0006a2a0       fread_s$fin$0              000000018006b2a0 f   libucrtd:fread.obj
 0001:0006a2c0       ?fin$0@?0??common_fseek@@YAHV__crt_stdio_stream@@_JH@Z@4HA 000000018006b2c0 f   libucrtd:fseek.obj
 0001:0006a2f0       ?fin$0@?0???$common_ftell@J@@YAJV__crt_stdio_stream@@@Z@4HA 000000018006b2f0 f   libucrtd:ftell.obj
 0001:0006a320       ?filt$0@?0??common_exit@@YAXHW4_crt_exit_cleanup_mode@@W4_crt_exit_return_mode@@@Z@4HA 000000018006b320 f   libucrtd:exit.obj
 0001:0006a34b       ?fin$1@?0??common_exit@@YAXHW4_crt_exit_cleanup_mode@@W4_crt_exit_return_mode@@@Z@4HA 000000018006b34b f   libucrtd:exit.obj
 0001:0006a370       ?fin$0@?0???$?RV<lambda_b0d8f1f77f5878de4f648f281b223c15>@@AEAV<lambda_942beefa13ab35ff55f86422493ffd6a>@@V<lambda_7adb6fc9c0d6a5bd4e2d9c212ec7cdcc>@@@?$__crt_seh_guarded_call@H@@QEAAH$$QEAV<lambda_b0d8f1f77f5878de4f648f281b223c15>@@AEAV<lambda_942beefa13ab35ff55f86422493ffd6a>@@$$QEAV<lambda_7adb6fc9c0d6a5bd4e2d9c212ec7cdcc>@@@Z@4HA 000000018006b370 f   libucrtd:onexit.obj
 0001:0006a370       ?fin$0@?0???$?RV<lambda_c36588078e9f5dfd39652860aa6b3aaf>@@AEAV<lambda_ec61778202f4f5fc7e7711acc23c3bca>@@V<lambda_dc9d2797ccde5d239b4a0efae8ebd7db>@@@?$__crt_seh_guarded_call@P6AXH@Z@@QEAAP6AXH@Z$$QEAV<lambda_c36588078e9f5dfd39652860aa6b3aaf>@@AEAV<lambda_ec61778202f4f5fc7e7711acc23c3bca>@@$$QEAV<lambda_dc9d2797ccde5d239b4a0efae8ebd7db>@@@Z@4HA 000000018006b370 f   libucrtd:signal.obj
 0001:0006a370       ?fin$0@?0???$?RV<lambda_d22e02de4d14401f49897516b29a2b7c>@@AEAV<lambda_e971338317bfa523bb8920b43d823727>@@V<lambda_b0b8599c9027f5b14541fbbd6863d1f1>@@@?$__crt_seh_guarded_call@H@@QEAAH$$QEAV<lambda_d22e02de4d14401f49897516b29a2b7c>@@AEAV<lambda_e971338317bfa523bb8920b43d823727>@@$$QEAV<lambda_b0b8599c9027f5b14541fbbd6863d1f1>@@@Z@4HA 000000018006b370 f   libucrtd:onexit.obj
 0001:0006a390       ?fin$0@?0??heap_alloc_dbg_internal@@YAPEAX_KHQEBDH@Z@4HA 000000018006b390 f   libucrtd:debug_heap.obj
 0001:0006a390       _CrtMemCheckpoint$fin$0    000000018006b390 f   libucrtd:debug_heap.obj
 0001:0006a3b0       __BuildCatchObjectHelper$filt$0 000000018006b3b0 f   libvcruntimed:frame.obj
 0001:0006a3b0       __BuildCatchObject$filt$0  000000018006b3b0 f   libvcruntimed:frame.obj
 0001:0006a3b0       terminate$filt$0           000000018006b3b0 f   libucrtd:terminate.obj
 0001:0006a3b0       ?filt$0@?0??is_bad_read_pointer@@YA_NQEBX_K@Z@4HA 000000018006b3b0 f   libucrtd:debug_heap.obj
 0001:0006a3d0       ?fin$0@?0??validate_heap_if_required_nolock@@YAXXZ@4HA 000000018006b3d0 f   libucrtd:debug_heap.obj
 0001:0006a3f0       _CrtSetDbgFlag$fin$0       000000018006b3f0 f   libucrtd:debug_heap.obj
 0001:0006a3f0       _msize_dbg$fin$0           000000018006b3f0 f   libucrtd:debug_heap.obj
 0001:0006a3f0       _CrtCheckMemory$fin$0      000000018006b3f0 f   libucrtd:debug_heap.obj
 0001:0006a3f0       _CrtMemDumpAllObjectsSince$fin$0 000000018006b3f0 f   libucrtd:debug_heap.obj
 0001:0006a3f0       _realloc_dbg$fin$0         000000018006b3f0 f   libucrtd:debug_heap.obj
 0001:0006a410       common_flush_all$fin$0     000000018006b410 f   libucrtd:fflush.obj
 0001:0006a433       common_flush_all$fin$1     000000018006b433 f   libucrtd:fflush.obj
 0001:0006a450       fflush$fin$0               000000018006b450 f   libucrtd:fflush.obj
 0001:0006a470       ?fin$0@?0???$?RV<lambda_7b91131dde12e1c3dfc74ff76b3f2eac>@@AEAV<lambda_dd75445284c072d0bd3768540cc698fa>@@V<lambda_16bc4ecb55b4718497c16bceaea2ceaf>@@@?$__crt_seh_guarded_call@H@@QEAAH$$QEAV<lambda_7b91131dde12e1c3dfc74ff76b3f2eac>@@AEAV<lambda_dd75445284c072d0bd3768540cc698fa>@@$$QEAV<lambda_16bc4ecb55b4718497c16bceaea2ceaf>@@@Z@4HA 000000018006b470 f   libucrtd:output.obj
 0001:0006a470       ?fin$0@?0???$?RV<lambda_e8c63f3eaa5b5d1d090047a93e563945>@@AEAV<lambda_108d78a972a15edee025c8b3efe121dc>@@V<lambda_d99a45a39bf155923106577f928afec0>@@@?$__crt_seh_guarded_call@H@@QEAAH$$QEAV<lambda_e8c63f3eaa5b5d1d090047a93e563945>@@AEAV<lambda_108d78a972a15edee025c8b3efe121dc>@@$$QEAV<lambda_d99a45a39bf155923106577f928afec0>@@@Z@4HA 000000018006b470 f   libucrtd:setvbuf.obj
 0001:0006a490       raise$fin$0                000000018006b490 f   libucrtd:signal.obj
 0001:0006a4c0       _read$fin$0                000000018006b4c0 f   libucrtd:read.obj
 0001:0006a4c0       ?fin$0@?0???$common_lseek@_J@@YA_JH_JH@Z@4HA 000000018006b4c0 f   libucrtd:lseek.obj
 0001:0006a4c0       _write$fin$0               000000018006b4c0 f   libucrtd:write.obj
 0001:0006a4e0       _alloc_osfhnd$fin$0        000000018006b4e0 f   libucrtd:osfinfo.obj
 0001:0006a4e0       __acrt_initialize_lowio$fin$0 000000018006b4e0 f   libucrtd:ioinit.obj
 0001:0006a500       _ctrlfp$filt$0             000000018006b500 f   libucrtd:fpctrl.obj
 0001:0006a550       ?fin$0@?0???$?RV<lambda_fb3a7dec4e47f37f22dae91bb15c9095>@@AEAV<lambda_698284760c8add0bfb0756c19673e34b>@@V<lambda_dfb8eca1e75fef3034a8fb18dd509707>@@@?$__crt_seh_guarded_call@X@@QEAAX$$QEAV<lambda_fb3a7dec4e47f37f22dae91bb15c9095>@@AEAV<lambda_698284760c8add0bfb0756c19673e34b>@@$$QEAV<lambda_dfb8eca1e75fef3034a8fb18dd509707>@@@Z@4HA 000000018006b550 f   libucrtd:per_thread_data.obj
 0001:0006a550       ?fin$0@?0???$?RV<lambda_441f2315ac0f593d45428a8fceb6abe6>@@AEAV<lambda_2f900415df1f7f624cdaaefe86d0b1c0>@@V<lambda_1d10a5a8ccb596b49763520e59d5af47>@@@?$__crt_seh_guarded_call@X@@QEAAX$$QEAV<lambda_441f2315ac0f593d45428a8fceb6abe6>@@AEAV<lambda_2f900415df1f7f624cdaaefe86d0b1c0>@@$$QEAV<lambda_1d10a5a8ccb596b49763520e59d5af47>@@@Z@4HA 000000018006b550 f   libucrtd:mbctype.obj
 0001:0006a550       ?fin$0@?0???$?RV<lambda_8773731b9ba2edf4362dda13ebc82854>@@AEAV<lambda_6ac21da2756cd333d25ba1adc9a0001e>@@V<lambda_2c95662d60720604e97e3009a1ee1859>@@@?$__crt_seh_guarded_call@X@@QEAAX$$QEAV<lambda_8773731b9ba2edf4362dda13ebc82854>@@AEAV<lambda_6ac21da2756cd333d25ba1adc9a0001e>@@$$QEAV<lambda_2c95662d60720604e97e3009a1ee1859>@@@Z@4HA 000000018006b550 f   libucrtd:per_thread_data.obj
 0001:0006a550       ?fin$0@?0???$?RV<lambda_72d1df2b273a38828b1ce30cbf4cdab5>@@AEAV<lambda_876a65b173b8412d3a47c70a915b0cf4>@@V<lambda_41932305e351933ebe8f8be3ed8bb5dc>@@@?$__crt_seh_guarded_call@X@@QEAAX$$QEAV<lambda_72d1df2b273a38828b1ce30cbf4cdab5>@@AEAV<lambda_876a65b173b8412d3a47c70a915b0cf4>@@$$QEAV<lambda_41932305e351933ebe8f8be3ed8bb5dc>@@@Z@4HA 000000018006b550 f   libucrtd:per_thread_data.obj
 0001:0006a550       ?fin$0@?0???$?RV<lambda_5e887d1dcbef67a5eb4283622ba103bf>@@AEAV<lambda_4466841279450cc726390878d4a41900>@@V<lambda_341c25c0346d94847f1f3c463c57e077>@@@?$__crt_seh_guarded_call@X@@QEAAX$$QEAV<lambda_5e887d1dcbef67a5eb4283622ba103bf>@@AEAV<lambda_4466841279450cc726390878d4a41900>@@$$QEAV<lambda_341c25c0346d94847f1f3c463c57e077>@@@Z@4HA 000000018006b550 f   libucrtd:per_thread_data.obj
 0001:0006a570       __acrt_update_thread_multibyte_data$fin$0 000000018006b570 f   libucrtd:mbctype.obj
 0001:0006a590       _query_new_handler$fin$0   000000018006b590 f   libucrtd:new_handler.obj
 0001:0006a590       _free_dbg$fin$0            000000018006b590 f   libucrtd:debug_heap.obj
 0001:0006a5b0       _VCrtDbgReportA$fin$0      000000018006b5b0 f   libucrtd:dbgrptt.obj
 0001:0006a5cb       _VCrtDbgReportA$fin$1      000000018006b5cb f   libucrtd:dbgrptt.obj
 0001:0006a5f0       _VCrtDbgReportW$fin$0      000000018006b5f0 f   libucrtd:dbgrptt.obj
 0001:0006a60b       _VCrtDbgReportW$fin$1      000000018006b60b f   libucrtd:dbgrptt.obj
 0001:0006a630       ?dtor$0@?0??fp_format_a@@YAHQEBNPEAD_KQEAD2H_NIQEAU__crt_locale_pointers@@@Z@4HA 000000018006b630 f   libucrtd:cvt.obj
 0001:0006a650       ?fin$0@?0??__acrt_stdio_allocate_stream@@YA?AV__crt_stdio_stream@@XZ@4HA 000000018006b650 f   libucrtd:stream.obj
 0001:0006a650       _fcloseall$fin$0           000000018006b650 f   libucrtd:closeall.obj
 0001:0006a670       ?fin$0@?0???$?RV<lambda_2ce24b26f23dade10250ef086380d911>@@AEAV<lambda_e9ab68cc08dfd839979545c079379e6e>@@V<lambda_6262c464c96e4c69799ed44814c7c457>@@@?$__crt_seh_guarded_call@H@@QEAAH$$QEAV<lambda_2ce24b26f23dade10250ef086380d911>@@AEAV<lambda_e9ab68cc08dfd839979545c079379e6e>@@$$QEAV<lambda_6262c464c96e4c69799ed44814c7c457>@@@Z@4HA 000000018006b670 f   libucrtd:commit.obj
 0001:0006a670       ?fin$0@?0???$?RV<lambda_4f1f1a84956f0d44b74de224c960ff76>@@AEAV<lambda_a8f98972ebaa5f7148d35bffe53bd70d>@@V<lambda_f6ca65dda28655a1cf758c1c4e38e52a>@@@?$__crt_seh_guarded_call@H@@QEAAH$$QEAV<lambda_4f1f1a84956f0d44b74de224c960ff76>@@AEAV<lambda_a8f98972ebaa5f7148d35bffe53bd70d>@@$$QEAV<lambda_f6ca65dda28655a1cf758c1c4e38e52a>@@@Z@4HA 000000018006b670 f   libucrtd:close.obj
 0001:0006a690       ?fin$0@?0???$common_sopen_dispatch@D@@YAHQEBDHHHQEAHH@Z@4HA 000000018006b690 f   libucrtd:open.obj
 0001:0006a730       __acrt_lowio_ensure_fh_exists$fin$0 000000018006b730 f   libucrtd:osfinfo.obj
 0001:0006a750       __acrt_uninitialize_locale$fin$0 000000018006b750 f   libucrtd:wsetlocale.obj
 0001:0006a750       __acrt_update_thread_locale_data$fin$0 000000018006b750 f   libucrtd:locale_refcounting.obj
 0001:0006a770       ?dtor$0@?0??_wcstombs_l_helper@@YA_KPEADPEB_W_KPEAU__crt_locale_pointers@@@Z@4HA 000000018006b770 f   libucrtd:wcstombs.obj
 0001:0006a790       common_control87$filt$0    000000018006b790 f   libucrtd:ieee.obj
 0001:0006a7e0       _IsNonwritableInCurrentImage$filt$0 000000018006b7e0 f   LIBCMTD:pesect.obj
 0001:0006a820       _CallSETranslator$filt$0   000000018006b820 f   libvcruntimed:trnsctrl.obj
 0001:0006a880       __CxxCallCatchBlock$filt$0 000000018006b880 f   libvcruntimed:frame.obj
 0001:0006a8a9       __CxxCallCatchBlock$fin$1  000000018006b8a9 f   libvcruntimed:frame.obj
 0001:0006a940       __DestructExceptionObject$filt$0 000000018006b940 f   libvcruntimed:frame.obj
 0001:0006a970       __FrameUnwindToState$filt$0 000000018006b970 f   libvcruntimed:frame.obj
 0001:0006a991       __FrameUnwindToState$fin$1 000000018006b991 f   libvcruntimed:frame.obj
 0002:00000300       $SG22529                   000000018006c300     gamecode.obj
 0002:0000030d       $SG23398                   000000018006c30d     gamecode.obj
 0002:00000310       $SG23556                   000000018006c310     gamecode.obj
 0002:00000328       $SG19462                   000000018006c328     gamecode.obj
 0002:00000330       $SG12292                   000000018006c330     gamecode.obj
 0002:00000398       $SG12296                   000000018006c398     gamecode.obj
 0002:000003c0       $SG12293                   000000018006c3c0     gamecode.obj
 0002:00000418       $SG19464                   000000018006c418     gamecode.obj
 0002:00000424       $SG19483                   000000018006c424     gamecode.obj
 0002:00000428       $SG12299                   000000018006c428     gamecode.obj
 0002:00000450       $SG12295                   000000018006c450     gamecode.obj
 0002:000004b8       $SG23564                   000000018006c4b8     gamecode.obj
 0002:000004d0       $SG12298                   000000018006c4d0     gamecode.obj
 0002:00000538       $SG12302                   000000018006c538     gamecode.obj
 0002:00000560       $SG12301                   000000018006c560     gamecode.obj
 0002:000005c8       $SG12305                   000000018006c5c8     gamecode.obj
 0002:000005f0       $SG12304                   000000018006c5f0     gamecode.obj
 0002:00000658       $SG12308                   000000018006c658     gamecode.obj
 0002:00000680       $SG12307                   000000018006c680     gamecode.obj
 0002:000006e8       $SG23573                   000000018006c6e8     gamecode.obj
 0002:000006f8       $SG21529                   000000018006c6f8     gamecode.obj
 0002:00000710       $SG21528                   000000018006c710     gamecode.obj
 0002:00000768       $SG24610                   000000018006c768     gamecode.obj
 0002:00000770       $SG24609                   000000018006c770     gamecode.obj
 0002:000007d0       $SG24616                   000000018006c7d0     gamecode.obj
 0002:00000830       $SG24617                   000000018006c830     gamecode.obj
 0002:000008a0       $SG24628                   000000018006c8a0     gamecode.obj
 0002:00000900       $SG24629                   000000018006c900     gamecode.obj
 0002:00000904       $SG23726                   000000018006c904     gamecode.obj
 0002:00000908       $SG23605                   000000018006c908     gamecode.obj
 0002:00000914       $SG23729                   000000018006c914     gamecode.obj
 0002:00000918       $SG21564                   000000018006c918     gamecode.obj
 0002:00000924       $SG19658                   000000018006c924     gamecode.obj
 0002:00000928       $SG21567                   000000018006c928     gamecode.obj
 0002:00000938       $SG25667                   000000018006c938     gamecode.obj
 0002:00000950       $SG25666                   000000018006c950     gamecode.obj
 0002:000009b0       $SG25668                   000000018006c9b0     gamecode.obj
 0002:00000a10       $SG25669                   000000018006ca10     gamecode.obj
 0002:00000a24       $SG23765                   000000018006ca24     gamecode.obj
 0002:00000a28       $SG22649                   000000018006ca28     gamecode.obj
 0002:00000a30       $SG21605                   000000018006ca30     gamecode.obj
 0002:00000a88       $SG25727                   000000018006ca88     gamecode.obj
 0002:00000ab0       $SG21606                   000000018006cab0     gamecode.obj
 0002:00000afc       $SG23767                   000000018006cafc     gamecode.obj
 0002:00000b00       $SG22651                   000000018006cb00     gamecode.obj
 0002:00000b10       $SG21627                   000000018006cb10     gamecode.obj
 0002:00000b68       $SG21628                   000000018006cb68     gamecode.obj
 0002:00000b88       $SG22655                   000000018006cb88     gamecode.obj
 0002:00000b90       $SG25726                   000000018006cb90     gamecode.obj
 0002:00000bf0       $SG25728                   000000018006cbf0     gamecode.obj
 0002:00000c50       $SG25729                   000000018006cc50     gamecode.obj
 0002:00000c74       $SG24832                   000000018006cc74     gamecode.obj
 0002:00000c78       $SG22657                   000000018006cc78     gamecode.obj
 0002:00000c84       $SG24847                   000000018006cc84     gamecode.obj
 0002:00000c88       $SG22661                   000000018006cc88     gamecode.obj
 0002:00000c90       $SG22675                   000000018006cc90     gamecode.obj
 0002:00000c98       $SG22676                   000000018006cc98     gamecode.obj
 0002:00000ca0       $SG21653                   000000018006cca0     gamecode.obj
 0002:00000cb4       $SG23910                   000000018006ccb4     gamecode.obj
 0002:00000cb8       $SG22678                   000000018006ccb8     gamecode.obj
 0002:00000cc0       $SG21655                   000000018006ccc0     gamecode.obj
 0002:00000ccc       $SG20980                   000000018006cccc     gamecode.obj
 0002:00000cd4       $SG20985                   000000018006ccd4     gamecode.obj
 0002:00000cdc       $SG19384                   000000018006ccdc     gamecode.obj
 0002:00000ce0       $SG23718                   000000018006cce0     gamecode.obj
 0002:00000cf0       $SG23719                   000000018006ccf0     gamecode.obj
 0002:00000cf8       $SG23722                   000000018006ccf8     gamecode.obj
 0002:00000d10       $SG23724                   000000018006cd10     gamecode.obj
 0002:00000d28       $SG23727                   000000018006cd28     gamecode.obj
 0002:00000d40       $SG23730                   000000018006cd40     gamecode.obj
 0002:00000d58       $SG21683                   000000018006cd58     gamecode.obj
 0002:00000d70       $SG25780                   000000018006cd70     gamecode.obj
 0002:00000dd0       $SG25781                   000000018006cdd0     gamecode.obj
 0002:00000df0       $SG19640                   000000018006cdf0     gamecode.obj
 0002:00000e48       $SG12472                   000000018006ce48     gamecode.obj
 0002:00000e78       $SG21689                   000000018006ce78     gamecode.obj
 0002:00000e90       $SG19641                   000000018006ce90     gamecode.obj
 0002:00000ed0       $SG12473                   000000018006ced0     gamecode.obj
 0002:00000f38       $SG23739                   000000018006cf38     gamecode.obj
 0002:00000f58       $SG23762                   000000018006cf58     gamecode.obj
 0002:00000f70       $SG12474                   000000018006cf70     gamecode.obj
 0002:00000fd8       $SG19643                   000000018006cfd8     gamecode.obj
 0002:00000fe8       $SG21692                   000000018006cfe8     gamecode.obj
 0002:00000ff8       $SG21726                   000000018006cff8     gamecode.obj
 0002:00001008       $SG21755                   000000018006d008     gamecode.obj
 0002:00001030       $SG19657                   000000018006d030     gamecode.obj
 0002:00001088       $SG19681                   000000018006d088     gamecode.obj
 0002:00001098       $SG21734                   000000018006d098     gamecode.obj
 0002:000010a8       $SG23805                   000000018006d0a8     gamecode.obj
 0002:000010b0       $SG21733                   000000018006d0b0     gamecode.obj
 0002:00001108       $SG21759                   000000018006d108     gamecode.obj
 0002:00001120       $SG25830                   000000018006d120     gamecode.obj
 0002:00001180       $SG25831                   000000018006d180     gamecode.obj
 0002:000011c0       $SG21736                   000000018006d1c0     gamecode.obj
 0002:000011d0       $SG21754                   000000018006d1d0     gamecode.obj
 0002:00001228       $SG22781                   000000018006d228     gamecode.obj
 0002:00001238       $SG21757                   000000018006d238     gamecode.obj
 0002:00001248       $SG22786                   000000018006d248     gamecode.obj
 0002:00001250       ?fp32_to_srgb8_tab4@@3QBIB 000000018006d250     gamecode.obj
 0002:000013f0       $SG24831                   000000018006d3f0     gamecode.obj
 0002:00001450       $SG19712                   000000018006d450     gamecode.obj
 0002:00001460       $SG22792                   000000018006d460     gamecode.obj
 0002:00001468       $SG21769                   000000018006d468     gamecode.obj
 0002:00001478       $SG21771                   000000018006d478     gamecode.obj
 0002:00001488       $SG21773                   000000018006d488     gamecode.obj
 0002:00001498       $SG11545                   000000018006d498     gamecode.obj
 0002:000014b0       $SG24846                   000000018006d4b0     gamecode.obj
 0002:00001510       $SG22808                   000000018006d510     gamecode.obj
 0002:00001520       $SG12568                   000000018006d520     gamecode.obj
 0002:00001588       $SG11556                   000000018006d588     gamecode.obj
 0002:000015a0       $SG11544                   000000018006d5a0     gamecode.obj
 0002:00001608       $SG23885                   000000018006d608     gamecode.obj
 0002:00001618       $SG23901                   000000018006d618     gamecode.obj
 0002:00001630       $SG12569                   000000018006d630     gamecode.obj
 0002:00001688       $SG23836                   000000018006d688     gamecode.obj
 0002:00001698       $SG23912                   000000018006d698     gamecode.obj
 0002:000016a4       $SG26037                   000000018006d6a4     gamecode.obj
 0002:000016b0       $SG11555                   000000018006d6b0     gamecode.obj
 0002:00001718       $SG11625                   000000018006d718     gamecode.obj
 0002:00001730       $SG12637                   000000018006d730     gamecode.obj
 0002:00001798       $SG20870                   000000018006d798     gamecode.obj
 0002:000017a8       $SG19856                   000000018006d7a8     gamecode.obj
 0002:000017c0       $SG12638                   000000018006d7c0     gamecode.obj
 0002:00001814       $SG26090                   000000018006d814     gamecode.obj
 0002:00001820       $SG11624                   000000018006d820     gamecode.obj
 0002:00001888       $SG20882                   000000018006d888     gamecode.obj
 0002:00001898       $SG20909                   000000018006d898     gamecode.obj
 0002:000018b0       $SG11626                   000000018006d8b0     gamecode.obj
 0002:00001918       $SG11695                   000000018006d918     gamecode.obj
 0002:00001930       $SG11627                   000000018006d930     gamecode.obj
 0002:000019d8       $SG11697                   000000018006d9d8     gamecode.obj
 0002:00001a10       $SG12664                   000000018006da10     gamecode.obj
 0002:00001a78       $SG20922                   000000018006da78     gamecode.obj
 0002:00001a80       $SG12665                   000000018006da80     gamecode.obj
 0002:00001ad8       $SG20873                   000000018006dad8     gamecode.obj
 0002:00001ae4       $SG26092                   000000018006dae4     gamecode.obj
 0002:00001af0       $SG12666                   000000018006daf0     gamecode.obj
 0002:00001b58       $SG20924                   000000018006db58     gamecode.obj
 0002:00001b60       $SG12667                   000000018006db60     gamecode.obj
 0002:00001c00       $SG20876                   000000018006dc00     gamecode.obj
 0002:00001c10       $SG20878                   000000018006dc10     gamecode.obj
 0002:00001c20       $SG21930                   000000018006dc20     gamecode.obj
 0002:00001c30       $SG12717                   000000018006dc30     gamecode.obj
 0002:00001c98       $SG20927                   000000018006dc98     gamecode.obj
 0002:00001ca0       $SG12718                   000000018006dca0     gamecode.obj
 0002:00001cf8       $SG20911                   000000018006dcf8     gamecode.obj
 0002:00001d04       $SG20983                   000000018006dd04     gamecode.obj
 0002:00001d10       $SG12719                   000000018006dd10     gamecode.obj
 0002:00001d78       $SG20967                   000000018006dd78     gamecode.obj
 0002:00001d90       $SG12720                   000000018006dd90     gamecode.obj
 0002:00001e34       $SG21005                   000000018006de34     gamecode.obj
 0002:00001e40       $SG11696                   000000018006de40     gamecode.obj
 0002:00001ea8       $SG20915                   000000018006dea8     gamecode.obj
 0002:00001eb8       $SG20917                   000000018006deb8     gamecode.obj
 0002:00001ec4       $SG21009                   000000018006dec4     gamecode.obj
 0002:00001ed0       $SG19909                   000000018006ded0     gamecode.obj
 0002:00001f28       $SG22982                   000000018006df28     gamecode.obj
 0002:00001f38       $SG22996                   000000018006df38     gamecode.obj
 0002:00001f44       $SG23141                   000000018006df44     gamecode.obj
 0002:00001f50       $SG19910                   000000018006df50     gamecode.obj
 0002:00001ff4       $SG23143                   000000018006dff4     gamecode.obj
 0002:00002000       ?stbi__jbias@@3QBHB        000000018006e000     gamecode.obj
 0002:00002040       $SG22985                   000000018006e040     gamecode.obj
 0002:00002050       $SG22990                   000000018006e050     gamecode.obj
 0002:00002060       $SG22993                   000000018006e060     gamecode.obj
 0002:000020b8       $SG22994                   000000018006e0b8     gamecode.obj
 0002:000020e8       $SG20963                   000000018006e0e8     gamecode.obj
 0002:000020f4       $SG24484                   000000018006e0f4     gamecode.obj
 0002:00002100       $SG19923                   000000018006e100     gamecode.obj
 0002:00002158       $SG20969                   000000018006e158     gamecode.obj
 0002:00002160       $SG19924                   000000018006e160     gamecode.obj
 0002:000021e0       $SG23008                   000000018006e1e0     gamecode.obj
 0002:00002238       $SG23009                   000000018006e238     gamecode.obj
 0002:00002268       $SG20965                   000000018006e268     gamecode.obj
 0002:00002278       $SG12777                   000000018006e278     gamecode.obj
 0002:000022b0       $SG12772                   000000018006e2b0     gamecode.obj
 0002:00002318       $SG12773                   000000018006e318     gamecode.obj
 0002:00002358       $SG20971                   000000018006e358     gamecode.obj
 0002:00002370       $SG12774                   000000018006e370     gamecode.obj
 0002:000023d8       $SG20977                   000000018006e3d8     gamecode.obj
 0002:000023f0       $SG12775                   000000018006e3f0     gamecode.obj
 0002:000024c0       $SG12776                   000000018006e4c0     gamecode.obj
 0002:00002528       $SG19963                   000000018006e528     gamecode.obj
 0002:00002540       $SG12778                   000000018006e540     gamecode.obj
 0002:000025a8       $SG19968                   000000018006e5a8     gamecode.obj
 0002:000025c0       $SG12779                   000000018006e5c0     gamecode.obj
 0002:00002688       $SG20973                   000000018006e688     gamecode.obj
 0002:00002698       $SG20988                   000000018006e698     gamecode.obj
 0002:000026a8       $SG25091                   000000018006e6a8     gamecode.obj
 0002:000026b8       $SG11782                   000000018006e6b8     gamecode.obj
 0002:000026e0       $SG11774                   000000018006e6e0     gamecode.obj
 0002:00002748       $SG11784                   000000018006e748     gamecode.obj
 0002:00002770       $SG11775                   000000018006e770     gamecode.obj
 0002:00002838       $SG20992                   000000018006e838     gamecode.obj
 0002:00002848       $SG19984                   000000018006e848     gamecode.obj
 0002:00002860       $SG11776                   000000018006e860     gamecode.obj
 0002:000028c8       $SG25120                   000000018006e8c8     gamecode.obj
 0002:000028d8       $SG21032                   000000018006e8d8     gamecode.obj
 0002:000028f0       $SG11777                   000000018006e8f0     gamecode.obj
 0002:00002938       $SG25130                   000000018006e938     gamecode.obj
 0002:00002950       $SG25090                   000000018006e950     gamecode.obj
 0002:000029b0       $SG11779                   000000018006e9b0     gamecode.obj
 0002:00002a18       $SG12845                   000000018006ea18     gamecode.obj
 0002:00002a40       $SG11780                   000000018006ea40     gamecode.obj
 0002:00002b18       $SG23091                   000000018006eb18     gamecode.obj
 0002:00002b20       $SG11781                   000000018006eb20     gamecode.obj
 0002:00002b88       $SG25134                   000000018006eb88     gamecode.obj
 0002:00002b98       $SG25142                   000000018006eb98     gamecode.obj
 0002:00002bb0       $SG11783                   000000018006ebb0     gamecode.obj
 0002:00002c18       $SG25138                   000000018006ec18     gamecode.obj
 0002:00002c28       $SG23096                   000000018006ec28     gamecode.obj
 0002:00002c40       $SG25119                   000000018006ec40     gamecode.obj
 0002:00002ca0       $SG25121                   000000018006eca0     gamecode.obj
 0002:00002d00       $SG25122                   000000018006ed00     gamecode.obj
 0002:00002d20       $SG11814                   000000018006ed20     gamecode.obj
 0002:00002d88       $SG20024                   000000018006ed88     gamecode.obj
 0002:00002da0       $SG11815                   000000018006eda0     gamecode.obj
 0002:00002e78       $SG23093                   000000018006ee78     gamecode.obj
 0002:00002e88       $SG23098                   000000018006ee88     gamecode.obj
 0002:00002ea0       $SG11816                   000000018006eea0     gamecode.obj
 0002:00002f08       $SG23100                   000000018006ef08     gamecode.obj
 0002:00002f20       $SG25129                   000000018006ef20     gamecode.obj
 0002:00002f80       $SG11817                   000000018006ef80     gamecode.obj
 0002:00002fc8       $SG23102                   000000018006efc8     gamecode.obj
 0002:00002fd8       $SG20032                   000000018006efd8     gamecode.obj
 0002:00002ff0       $SG11818                   000000018006eff0     gamecode.obj
 0002:00003058       $SG12863                   000000018006f058     gamecode.obj
 0002:00003068       $SG20045                   000000018006f068     gamecode.obj
 0002:00003080       $SG11819                   000000018006f080     gamecode.obj
 0002:00003168       $SG20052                   000000018006f168     gamecode.obj
 0002:00003180       $SG12844                   000000018006f180     gamecode.obj
 0002:000031e8       $SG22129                   000000018006f1e8     gamecode.obj
 0002:00003200       $SG25133                   000000018006f200     gamecode.obj
 0002:00003260       $SG12846                   000000018006f260     gamecode.obj
 0002:000032c8       $SG12847                   000000018006f2c8     gamecode.obj
 0002:000032f8       $SG22131                   000000018006f2f8     gamecode.obj
 0002:00003310       $SG25137                   000000018006f310     gamecode.obj
 0002:00003370       $SG12850                   000000018006f370     gamecode.obj
 0002:000033d8       $SG22133                   000000018006f3d8     gamecode.obj
 0002:000033e8       $SG25229                   000000018006f3e8     gamecode.obj
 0002:00003410       $SG12851                   000000018006f410     gamecode.obj
 0002:000034e0       $SG12852                   000000018006f4e0     gamecode.obj
 0002:00003548       $SG25232                   000000018006f548     gamecode.obj
 0002:00003570       $SG25141                   000000018006f570     gamecode.obj
 0002:000035d0       $SG12853                   000000018006f5d0     gamecode.obj
 0002:00003698       $SG22162                   000000018006f698     gamecode.obj
 0002:000036c0       $SG25143                   000000018006f6c0     gamecode.obj
 0002:00003720       $SG25144                   000000018006f720     gamecode.obj
 0002:00003750       $SG12859                   000000018006f750     gamecode.obj
 0002:000037b8       $SG22193                   000000018006f7b8     gamecode.obj
 0002:000037d0       $SG12860                   000000018006f7d0     gamecode.obj
 0002:00003840       $SG25149                   000000018006f840     gamecode.obj
 0002:000038a0       $SG25150                   000000018006f8a0     gamecode.obj
 0002:00003900       $SG12862                   000000018006f900     gamecode.obj
 0002:00003968       $SG23104                   000000018006f968     gamecode.obj
 0002:00003978       $SG11872                   000000018006f978     gamecode.obj
 0002:00003998       $SG25212                   000000018006f998     gamecode.obj
 0002:000039b8       $SG25304                   000000018006f9b8     gamecode.obj
 0002:000039e0       $SG12865                   000000018006f9e0     gamecode.obj
 0002:00003a48       $SG22248                   000000018006fa48     gamecode.obj
 0002:00003a80       $SG12866                   000000018006fa80     gamecode.obj
 0002:00003ad8       $SG23255                   000000018006fad8     gamecode.obj
 0002:00003ae8       $SG22271                   000000018006fae8     gamecode.obj
 0002:00003b20       $SG12870                   000000018006fb20     gamecode.obj
 0002:00003b88       $SG22349                   000000018006fb88     gamecode.obj
 0002:00003bb0       $SG12871                   000000018006fbb0     gamecode.obj
 0002:00003cc0       $SG12872                   000000018006fcc0     gamecode.obj
 0002:00003d28       $SG26447                   000000018006fd28     gamecode.obj
 0002:00003d30       $SG12873                   000000018006fd30     gamecode.obj
 0002:00003e34       $SG24485                   000000018006fe34     gamecode.obj
 0002:00003e40       $SG11871                   000000018006fe40     gamecode.obj
 0002:00003ea8       $SG23393                   000000018006fea8     gamecode.obj
 0002:00003eb0       $SG11873                   000000018006feb0     gamecode.obj
 0002:00003f18       $SG11874                   000000018006ff18     gamecode.obj
 0002:00003f38       $SG23259                   000000018006ff38     gamecode.obj
 0002:00003f48       $SG12064                   000000018006ff48     gamecode.obj
 0002:00003f78       $SG23395                   000000018006ff78     gamecode.obj
 0002:00003f80       $SG22122                   000000018006ff80     gamecode.obj
 0002:00003fd8       $SG23397                   000000018006ffd8     gamecode.obj
 0002:00003fe0       $SG22123                   000000018006ffe0     gamecode.obj
 0002:00004038       $SG22125                   0000000180070038     gamecode.obj
 0002:00004048       $SG22136                   0000000180070048     gamecode.obj
 0002:00004078       $SG23261                   0000000180070078     gamecode.obj
 0002:00004088       $SG19317                   0000000180070088     gamecode.obj
 0002:000040a0       $SG22135                   00000001800700a0     gamecode.obj
 0002:000040f8       $SG12163                   00000001800700f8     gamecode.obj
 0002:00004110       $SG25211                   0000000180070110     gamecode.obj
 0002:00004170       $SG25218                   0000000180070170     gamecode.obj
 0002:000041d0       $SG25219                   00000001800701d0     gamecode.obj
 0002:00004218       $SG23173                   0000000180070218     gamecode.obj
 0002:00004228       $SG25300                   0000000180070228     gamecode.obj
 0002:00004248       $SG12174                   0000000180070248     gamecode.obj
 0002:00004270       $SG25228                   0000000180070270     gamecode.obj
 0002:000042d0       $SG25231                   00000001800702d0     gamecode.obj
 0002:00004330       $SG22161                   0000000180070330     gamecode.obj
 0002:00004388       $SG12177                   0000000180070388     gamecode.obj
 0002:000043b0       $SG22192                   00000001800703b0     gamecode.obj
 0002:00004408       $SG12180                   0000000180070408     gamecode.obj
 0002:00004430       $SG25299                   0000000180070430     gamecode.obj
 0002:00004490       $SG25303                   0000000180070490     gamecode.obj
 0002:000044f0       $SG23257                   00000001800704f0     gamecode.obj
 0002:00004500       $SG23266                   0000000180070500     gamecode.obj
 0002:00004510       $SG23271                   0000000180070510     gamecode.obj
 0002:00004520       $SG22247                   0000000180070520     gamecode.obj
 0002:00004578       $SG23277                   0000000180070578     gamecode.obj
 0002:00004588       $SG23280                   0000000180070588     gamecode.obj
 0002:00004598       $SG23304                   0000000180070598     gamecode.obj
 0002:000045a8       $SG22421                   00000001800705a8     gamecode.obj
 0002:000045b8       $SG12183                   00000001800705b8     gamecode.obj
 0002:000045e0       $SG22270                   00000001800705e0     gamecode.obj
 0002:00004638       $SG23302                   0000000180070638     gamecode.obj
 0002:00004648       $SG22297                   0000000180070648     gamecode.obj
 0002:00004658       $SG22423                   0000000180070658     gamecode.obj
 0002:00004668       $SG12186                   0000000180070668     gamecode.obj
 0002:00004690       $SG12065                   0000000180070690     gamecode.obj
 0002:000046f8       $SG22429                   00000001800706f8     gamecode.obj
 0002:00004710       $SG12066                   0000000180070710     gamecode.obj
 0002:00004778       $SG22315                   0000000180070778     gamecode.obj
 0002:00004788       $SG22425                   0000000180070788     gamecode.obj
 0002:00004794       $SG24486                   0000000180070794     gamecode.obj
 0002:000047a0       $SG12087                   00000001800707a0     gamecode.obj
 0002:00004808       $SG24487                   0000000180070808     gamecode.obj
 0002:00004810       $SG12088                   0000000180070810     gamecode.obj
 0002:00004888       $SG22439                   0000000180070888     gamecode.obj
 0002:00004898       $SG24489                   0000000180070898     gamecode.obj
 0002:000048a0       $SG22348                   00000001800708a0     gamecode.obj
 0002:000048f8       $SG22441                   00000001800708f8     gamecode.obj
 0002:00004910       $SG12162                   0000000180070910     gamecode.obj
 0002:00004978       $SG24490                   0000000180070978     gamecode.obj
 0002:00004980       $SG12164                   0000000180070980     gamecode.obj
 0002:000049e8       $SG24491                   00000001800709e8     gamecode.obj
 0002:000049f0       $SG12165                   00000001800709f0     gamecode.obj
 0002:00004a54       $SG24492                   0000000180070a54     gamecode.obj
 0002:00004a60       $SG12166                   0000000180070a60     gamecode.obj
 0002:00004ac8       $SG22443                   0000000180070ac8     gamecode.obj
 0002:00004ae0       $SG12167                   0000000180070ae0     gamecode.obj
 0002:00004b44       $SG24514                   0000000180070b44     gamecode.obj
 0002:00004b50       $SG12168                   0000000180070b50     gamecode.obj
 0002:00004bb8       $SG23480                   0000000180070bb8     gamecode.obj
 0002:00004bc8       $SG23482                   0000000180070bc8     gamecode.obj
 0002:00004be0       $SG12169                   0000000180070be0     gamecode.obj
 0002:00004c70       $SG12170                   0000000180070c70     gamecode.obj
 0002:00004cd8       $SG22456                   0000000180070cd8     gamecode.obj
 0002:00004ce8       $SG23484                   0000000180070ce8     gamecode.obj
 0002:00004d00       $SG12171                   0000000180070d00     gamecode.obj
 0002:00004d90       $SG12173                   0000000180070d90     gamecode.obj
 0002:00004df8       $SG22463                   0000000180070df8     gamecode.obj
 0002:00004e08       $SG22465                   0000000180070e08     gamecode.obj
 0002:00004e18       $SG24515                   0000000180070e18     gamecode.obj
 0002:00004e20       $SG12176                   0000000180070e20     gamecode.obj
 0002:00004e88       $SG24516                   0000000180070e88     gamecode.obj
 0002:00004e90       $SG12179                   0000000180070e90     gamecode.obj
 0002:00004ef8       $SG24517                   0000000180070ef8     gamecode.obj
 0002:00004f00       $SG12182                   0000000180070f00     gamecode.obj
 0002:00004f68       $SG22470                   0000000180070f68     gamecode.obj
 0002:00004f80       $SG12185                   0000000180070f80     gamecode.obj
 0002:00004fe8       $SG22427                   0000000180070fe8     gamecode.obj
 0002:00004ff8       $SG22431                   0000000180070ff8     gamecode.obj
 0002:00005008       $SG22433                   0000000180071008     gamecode.obj
 0002:00005018       $SG22437                   0000000180071018     gamecode.obj
 0002:00005028       $SG22446                   0000000180071028     gamecode.obj
 0002:00005038       $SG22450                   0000000180071038     gamecode.obj
 0002:00005048       $SG23476                   0000000180071048     gamecode.obj
 0002:00005058       $SG22453                   0000000180071058     gamecode.obj
 0002:00005068       $SG22458                   0000000180071068     gamecode.obj
 0002:00005078       $SG19386                   0000000180071078     gamecode.obj
 0002:00005088       $SG22460                   0000000180071088     gamecode.obj
 0002:00005098       $SG21438                   0000000180071098     gamecode.obj
 0002:000050a8       $SG21443                   00000001800710a8     gamecode.obj
 0002:000050b8       $SG22472                   00000001800710b8     gamecode.obj
 0002:000050c8       $SG22474                   00000001800710c8     gamecode.obj
 0002:000050d8       $SG22476                   00000001800710d8     gamecode.obj
 0002:000050e8       $SG21453                   00000001800710e8     gamecode.obj
 0002:000050f8       $SG22481                   00000001800710f8     gamecode.obj
 0002:00005108       $SG22483                   0000000180071108     gamecode.obj
 0002:00005110       $SG22489                   0000000180071110     gamecode.obj
 0002:00005120       $SG22491                   0000000180071120     gamecode.obj
 0002:0000512c       $SG24540                   000000018007112c     gamecode.obj
 0002:00005134       $SG24541                   0000000180071134     gamecode.obj
 0002:0000513c       $SG24542                   000000018007113c     gamecode.obj
 0002:00005148       $SG22494                   0000000180071148     gamecode.obj
 0002:00005158       $SG24543                   0000000180071158     gamecode.obj
 0002:00005160       $SG24544                   0000000180071160     gamecode.obj
 0002:00005168       $SG24545                   0000000180071168     gamecode.obj
 0002:00005170       $SG22497                   0000000180071170     gamecode.obj
 0002:00005178       $SG24546                   0000000180071178     gamecode.obj
 0002:00005180       $SG24549                   0000000180071180     gamecode.obj
 0002:00005188       $SG19431                   0000000180071188     gamecode.obj
 0002:000051a0       $SG22515                   00000001800711a0     gamecode.obj
 0002:000051b0       $SG23545                   00000001800711b0     gamecode.obj
 0002:000051bc       ?almostone@?1??stbir__linear_to_srgb_uchar@@YAEM@Z@4Tstbir__FP32@@B 00000001800711bc     gamecode.obj
 0002:000051c0       ?minval@?1??stbir__linear_to_srgb_uchar@@YAEM@Z@4Tstbir__FP32@@B 00000001800711c0     gamecode.obj
 0002:000053e8       GS_ExceptionPointers       00000001800713e8     LIBCMTD:gs_report.obj
 0002:00005428       ?module_names@?A0xece66f1d@@3QBQEB_WB 0000000180071428     libvcruntimed:winapi_downlevel.obj
 0002:00005690       ?candidate_modules@?1??try_get_EventRegister@@YAP6AKPEBU_GUID@@P6AX0KE_K1PEAU_EVENT_FILTER_DESCRIPTOR@@PEAX@Z3PEA_K@ZXZ@4QBW4module_id@?A0xece66f1d@@B 0000000180071690     libvcruntimed:winapi_downlevel.obj
 0002:000056a8       ?candidate_modules@?1??try_get_EventSetInformation@@YAP6AK_KW4_EVENT_INFO_CLASS@@PEAXK@ZXZ@4QBW4module_id@?A0xece66f1d@@B 00000001800716a8     libvcruntimed:winapi_downlevel.obj
 0002:000056c4       ?candidate_modules@?1??try_get_EventUnregister@@YAP6AK_K@ZXZ@4QBW4module_id@?A0xece66f1d@@B 00000001800716c4     libvcruntimed:winapi_downlevel.obj
 0002:000056d8       ?candidate_modules@?1??try_get_EventWriteTransfer@@YAP6AK_KPEBU_EVENT_DESCRIPTOR@@PEBU_GUID@@2KPEAU_EVENT_DATA_DESCRIPTOR@@@ZXZ@4QBW4module_id@?A0xece66f1d@@B 00000001800716d8     libvcruntimed:winapi_downlevel.obj
 0002:000056f8       ?candidate_modules@?1??try_get_FlsAlloc@@YAP6AKP6AXPEAX@Z@ZXZ@4QBW4module_id@?A0xece66f1d@@B 00000001800716f8     libvcruntimed:winapi_downlevel.obj
 0002:00005710       ?candidate_modules@?1??try_get_FlsFree@@YAP6AHK@ZXZ@4QBW4module_id@?A0xece66f1d@@B 0000000180071710     libvcruntimed:winapi_downlevel.obj
 0002:00005720       ?candidate_modules@?1??try_get_FlsGetValue@@YAP6APEAXK@ZXZ@4QBW4module_id@?A0xece66f1d@@B 0000000180071720     libvcruntimed:winapi_downlevel.obj
 0002:00005738       ?candidate_modules@?1??try_get_FlsSetValue@@YAP6AHKPEAX@ZXZ@4QBW4module_id@?A0xece66f1d@@B 0000000180071738     libvcruntimed:winapi_downlevel.obj
 0002:00005750       ?candidate_modules@?1??try_get_InitializeCriticalSectionEx@@YAP6AHPEAU_RTL_CRITICAL_SECTION@@KK@ZXZ@4QBW4module_id@?A0xece66f1d@@B 0000000180071750     libvcruntimed:winapi_downlevel.obj
 0002:000057c0       ?tokenTable@@3QBQEBDB      00000001800717c0     libvcruntimed:undname.obj
 0002:00005830       ?nameTable@@3QBQEBDB       0000000180071830     libvcruntimed:undname.obj
 0002:00005ab8       ?rttiTable@@3QBQEBDB       0000000180071ab8     libvcruntimed:undname.obj
 0002:00007f60       __flag_x_one_y_snan        0000000180073f60     libucrtd:pow.obj
 0002:00007f64       __flag_x_zero_z_inf        0000000180073f64     libucrtd:pow.obj
 0002:00007f68       __flag_x_nan               0000000180073f68     libucrtd:pow.obj
 0002:00007f6c       __flag_y_nan               0000000180073f6c     libucrtd:pow.obj
 0002:00007f70       __flag_x_nan_y_nan         0000000180073f70     libucrtd:pow.obj
 0002:00007f74       __flag_x_neg_y_notint      0000000180073f74     libucrtd:pow.obj
 0002:00007f78       __flag_z_zero              0000000180073f78     libucrtd:pow.obj
 0002:00007f7c       __flag_z_denormal          0000000180073f7c     libucrtd:pow.obj
 0002:00007f80       __flag_z_inf               0000000180073f80     libucrtd:pow.obj
 0002:00007f90       __ay_max_bound             0000000180073f90     libucrtd:pow.obj
 0002:00007f98       __ay_min_bound             0000000180073f98     libucrtd:pow.obj
 0002:00007fa0       __sign_mask                0000000180073fa0     libucrtd:pow.obj
 0002:00007fa8       __sign_and_exp_mask        0000000180073fa8     libucrtd:pow.obj
 0002:00007fb0       __exp_mask                 0000000180073fb0     libucrtd:pow.obj
 0002:00007fb8       __neg_inf                  0000000180073fb8     libucrtd:pow.obj
 0002:00007fc0       __pos_inf                  0000000180073fc0     libucrtd:pow.obj
 0002:00007fc8       __pos_one                  0000000180073fc8     libucrtd:pow.obj
 0002:00007fd0       __pos_zero                 0000000180073fd0     libucrtd:pow.obj
 0002:00007fd8       __exp_mant_mask            0000000180073fd8     libucrtd:pow.obj
 0002:00007fe0       __mant_mask                0000000180073fe0     libucrtd:pow.obj
 0002:00007fe8       __ind_pattern              0000000180073fe8     libucrtd:pow.obj
 0002:00007ff0       __neg_qnan                 0000000180073ff0     libucrtd:pow.obj
 0002:00007ff8       __qnan                     0000000180073ff8     libucrtd:pow.obj
 0002:00008000       __qnan_set                 0000000180074000     libucrtd:pow.obj
 0002:00008008       __neg_one                  0000000180074008     libucrtd:pow.obj
 0002:00008010       __neg_zero                 0000000180074010     libucrtd:pow.obj
 0002:00008018       __exp_shift                0000000180074018     libucrtd:pow.obj
 0002:00008020       __exp_bias                 0000000180074020     libucrtd:pow.obj
 0002:00008028       __exp_bias_m1              0000000180074028     libucrtd:pow.obj
 0002:00008030       __yexp_53                  0000000180074030     libucrtd:pow.obj
 0002:00008038       __mant_full                0000000180074038     libucrtd:pow.obj
 0002:00008040       __1_before_mant            0000000180074040     libucrtd:pow.obj
 0002:00008048       __mask_mant_all8           0000000180074048     libucrtd:pow.obj
 0002:00008050       __mask_mant9               0000000180074050     libucrtd:pow.obj
 0002:00008060       __real_fffffffff8000000    0000000180074060     libucrtd:pow.obj
 0002:00008070       __mask_8000000000000000    0000000180074070     libucrtd:pow.obj
 0002:00008080       __real_4090040000000000    0000000180074080     libucrtd:pow.obj
 0002:00008090       __real_C090C80000000000    0000000180074090     libucrtd:pow.obj
 0002:000080a0       __real_ninf                00000001800740a0     libucrtd:pow.obj
 0002:000080b0       __real_inf                 00000001800740b0     libucrtd:pow.obj
 0002:000080c0       __real_nan                 00000001800740c0     libucrtd:pow.obj
 0002:000080d0       __real_mant                00000001800740d0     libucrtd:pow.obj
 0002:000080e0       __mask_1023                00000001800740e0     libucrtd:pow.obj
 0002:000080f0       __mask_001                 00000001800740f0     libucrtd:pow.obj
 0002:00008100       __real_log2_lead           0000000180074100     libucrtd:pow.obj
 0002:00008110       __real_log2_tail           0000000180074110     libucrtd:pow.obj
 0002:00008120       __real_two                 0000000180074120     libucrtd:pow.obj
 0002:00008130       __real_one                 0000000180074130     libucrtd:pow.obj
 0002:00008140       __real_half                0000000180074140     libucrtd:pow.obj
 0002:00008150       __mask_100                 0000000180074150     libucrtd:pow.obj
 0002:00008160       __real_1_over_2            0000000180074160     libucrtd:pow.obj
 0002:00008170       __real_1_over_3            0000000180074170     libucrtd:pow.obj
 0002:00008180       __real_1_over_4            0000000180074180     libucrtd:pow.obj
 0002:00008190       __real_1_over_5            0000000180074190     libucrtd:pow.obj
 0002:000081a0       __real_1_over_6            00000001800741a0     libucrtd:pow.obj
 0002:000081b0       __real_1_over_7            00000001800741b0     libucrtd:pow.obj
 0002:000081c0       __mask_1023_f              00000001800741c0     libucrtd:pow.obj
 0002:000081d0       __mask_2045                00000001800741d0     libucrtd:pow.obj
 0002:000081e0       __real_threshold           00000001800741e0     libucrtd:pow.obj
 0002:000081f0       __real_notsign             00000001800741f0     libucrtd:pow.obj
 0002:00008200       __log_F_inv_head           0000000180074200     libucrtd:pow.obj
 0002:00008a10       __log_F_inv_tail           0000000180074a10     libucrtd:pow.obj
 0002:00009220       __denormal_threshold       0000000180075220     libucrtd:pow.obj
 0002:00009230       __enable_almost_inf        0000000180075230     libucrtd:pow.obj
 0002:00009240       __real_zero                0000000180075240     libucrtd:pow.obj
 0002:00009250       __real_smallest_denormal   0000000180075250     libucrtd:pow.obj
 0002:00009260       __denormal_tiny_threshold  0000000180075260     libucrtd:pow.obj
 0002:00009270       __real_p65536              0000000180075270     libucrtd:pow.obj
 0002:00009280       __real_m68800              0000000180075280     libucrtd:pow.obj
 0002:00009290       __real_64_by_log2          0000000180075290     libucrtd:pow.obj
 0002:000092a0       __real_log2_by_64_head     00000001800752a0     libucrtd:pow.obj
 0002:000092b0       __real_log2_by_64_tail     00000001800752b0     libucrtd:pow.obj
 0002:000092c0       __real_1_by_720            00000001800752c0     libucrtd:pow.obj
 0002:000092d0       __real_1_by_120            00000001800752d0     libucrtd:pow.obj
 0002:000092e0       __real_1_by_24             00000001800752e0     libucrtd:pow.obj
 0002:000092f0       __real_1_by_6              00000001800752f0     libucrtd:pow.obj
 0002:00009300       __real_1_by_2              0000000180075300     libucrtd:pow.obj
