 GameCode

 Timestamp is 58b7dfb9 (Thu Mar  2 14:32:49 2017)

 Preferred load address is 0000000180000000

 Start         Length     Name                   Class
 0001:00000000 00000627H .text                   CODE
 0001:00000630 000387caH .text$mn                CODE
 0001:00038e00 00000012H .text$mn$00             CODE
 0001:00038e20 000006c9H .text$x                 CODE
 0002:00000000 00000260H .idata$5                DATA
 0002:00000260 00000010H .00cfg                  DATA
 0002:00000270 00000008H .CRT$XCA                DATA
 0002:00000278 00000008H .CRT$XCZ                DATA
 0002:00000280 00000008H .CRT$XIA                DATA
 0002:00000288 00000018H .CRT$XIC                DATA
 0002:000002a0 00000008H .CRT$XIZ                DATA
 0002:000002a8 00000008H .CRT$XPA                DATA
 0002:000002b0 00000010H .CRT$XPX                DATA
 0002:000002c0 00000008H .CRT$XPXA               DATA
 0002:000002c8 00000008H .CRT$XPZ                DATA
 0002:000002d0 00000008H .CRT$XTA                DATA
 0002:000002d8 00000008H .CRT$XTZ                DATA
 0002:000002e0 00000000H .gfids$x                DATA
 0002:000002e0 0000f1c4H .rdata                  DATA
 0002:0000f4a8 0000016cH .rdata$r                DATA
 0002:0000f618 00000010H .rdata$zETW0            DATA
 0002:0000f628 00000077H .rdata$zETW1            DATA
 0002:0000f69f 0000002cH .rdata$zETW2            DATA
 0002:0000f6cb 00000001H .rdata$zETW9            DATA
 0002:0000f6cc 0000035cH .rdata$zzzdbg           DATA
 0002:0000fa28 00000008H .rtc$IAA                DATA
 0002:0000fa30 00000008H .rtc$IZZ                DATA
 0002:0000fa38 00000008H .rtc$TAA                DATA
 0002:0000fa40 00000008H .rtc$TZZ                DATA
 0002:0000fa50 000011fcH .xdata                  DATA
 0002:00010c50 00000084H .xdata$x                DATA
 0002:00010ce0 00000053H .edata                  DATA
 0002:00010d34 00000028H .idata$2                DATA
 0002:00010d5c 00000014H .idata$3                DATA
 0002:00010d70 00000260H .idata$4                DATA
 0002:00010fd0 0000059aH .idata$6                DATA
 0003:00000000 00000980H .data                   DATA
 0003:00000980 0000006cH .data$r                 DATA
 0003:000009f0 00001740H .bss                    DATA
 0004:00000000 00002b5cH .pdata                  DATA

  Address         Publics by Value              Rva+Base               Lib:Object

 0000:00000000       __guard_fids_count         0000000000000000     <absolute>
 0000:00000000       ___safe_se_handler_count   0000000000000000     <absolute>
 0000:00000000       ___safe_se_handler_table   0000000000000000     <absolute>
 0000:00000000       __guard_fids_table         0000000000000000     <absolute>
 0000:00000100       __guard_flags              0000000000000100     <absolute>
 0000:00000000       __ImageBase                0000000180000000     <linker-defined>
 0001:00000000       ?TraceLoggingRegister@__vcrt_trace_logging_provider@@YAJPEBU_TlgProvider_t@1@PEBU_GUID@@P6AX1KE_K2PEAU_EVENT_FILTER_DESCRIPTOR@@PEAX@Z4@Z 0000000180001000 f i libvcruntimed:telemetry.obj
 0001:000000f0       ?TraceLoggingSetInformation@__vcrt_trace_logging_provider@@YAJPEBU_TlgProvider_t@1@W4_EVENT_INFO_CLASS@@PEAXK@Z 00000001800010f0 f i libvcruntimed:telemetry.obj
 0001:00000140       ?TraceLoggingUnregister@__vcrt_trace_logging_provider@@YAXPEBU_TlgProvider_t@1@@Z 0000000180001140 f i libvcruntimed:telemetry.obj
 0001:00000170       ?_TlgCreateSz@__vcrt_trace_logging_provider@@YAXPEAU_EVENT_DATA_DESCRIPTOR@@PEBD@Z 0000000180001170 f i libvcruntimed:telemetry.obj
 0001:000001e0       ?_TlgCreateWsz@__vcrt_trace_logging_provider@@YAXPEAU_EVENT_DATA_DESCRIPTOR@@PEB_W@Z 00000001800011e0 f i libvcruntimed:telemetry.obj
 0001:00000250       ?_TlgEnableCallback@__vcrt_trace_logging_provider@@YAXPEBU_GUID@@KE_K1PEAU_EVENT_FILTER_DESCRIPTOR@@PEAX@Z 0000000180001250 f i libvcruntimed:telemetry.obj
 0001:00000370       ?_TlgKeywordOn@__vcrt_trace_logging_provider@@YAEPEBU_TlgProvider_t@1@_K@Z 0000000180001370 f i libvcruntimed:telemetry.obj
 0001:000003e0       ?_TlgWrite@__vcrt_trace_logging_provider@@YAJPEBU_TlgProvider_t@1@PEFBXPEBU_GUID@@2IPEAU_EVENT_DATA_DESCRIPTOR@@@Z 00000001800013e0 f i libvcruntimed:telemetry.obj
 0001:00000630       ?c2CircletoCircle@@YAHUc2Circle@@0@Z 0000000180001630 f   gamecode.obj
 0001:000006e0       ?c2CircletoAABB@@YAHUc2Circle@@Uc2AABB@@@Z 00000001800016e0 f   gamecode.obj
 0001:000007a0       ?c2CircletoCapsule@@YAHUc2Circle@@Uc2Capsule@@@Z 00000001800017a0 f   gamecode.obj
 0001:00000990       ?c2AABBtoAABB@@YAHUc2AABB@@0@Z 0000000180001990 f   gamecode.obj
 0001:00000a90       ?c2AABBtoCapsule@@YAHUc2AABB@@Uc2Capsule@@@Z 0000000180001a90 f   gamecode.obj
 0001:00000b00       ?c2CapsuletoCapsule@@YAHUc2Capsule@@0@Z 0000000180001b00 f   gamecode.obj
 0001:00000b70       ?c2CircletoPoly@@YAHUc2Circle@@PEBUc2Poly@@PEBUc2x@@@Z 0000000180001b70 f   gamecode.obj
 0001:00000be0       ?c2AABBtoPoly@@YAHUc2AABB@@PEBUc2Poly@@PEBUc2x@@@Z 0000000180001be0 f   gamecode.obj
 0001:00000c60       ?c2CapsuletoPoly@@YAHUc2Capsule@@PEBUc2Poly@@PEBUc2x@@@Z 0000000180001c60 f   gamecode.obj
 0001:00000ce0       ?c2PolytoPoly@@YAHPEBUc2Poly@@PEBUc2x@@01@Z 0000000180001ce0 f   gamecode.obj
 0001:00000d60       ?c2RaytoCircle@@YAHUc2Ray@@Uc2Circle@@PEAUc2Raycast@@@Z 0000000180001d60 f   gamecode.obj
 0001:00000f20       ?c2RaytoAABB@@YAHUc2Ray@@Uc2AABB@@PEAUc2Raycast@@@Z 0000000180001f20 f   gamecode.obj
 0001:00001270       ?c2RaytoCapsule@@YAHUc2Ray@@Uc2Capsule@@PEAUc2Raycast@@@Z 0000000180002270 f   gamecode.obj
 0001:00001820       ?c2RaytoPoly@@YAHUc2Ray@@PEBUc2Poly@@PEBUc2x@@PEAUc2Raycast@@@Z 0000000180002820 f   gamecode.obj
 0001:00001b40       ?c2CircletoCircleManifold@@YAXUc2Circle@@0PEAUc2Manifold@@@Z 0000000180002b40 f   gamecode.obj
 0001:00001d10       ?c2CircletoAABBManifold@@YAXUc2Circle@@Uc2AABB@@PEAUc2Manifold@@@Z 0000000180002d10 f   gamecode.obj
 0001:00002180       ?c2CircletoCapsuleManifold@@YAXUc2Circle@@Uc2Capsule@@PEAUc2Manifold@@@Z 0000000180003180 f   gamecode.obj
 0001:00002360       ?c2AABBtoAABBManifold@@YAXUc2AABB@@0PEAUc2Manifold@@@Z 0000000180003360 f   gamecode.obj
 0001:00002800       ?c2AABBtoCapsuleManifold@@YAXUc2AABB@@Uc2Capsule@@PEAUc2Manifold@@@Z 0000000180003800 f   gamecode.obj
 0001:000028c0       ?c2CapsuletoCapsuleManifold@@YAXUc2Capsule@@0PEAUc2Manifold@@@Z 00000001800038c0 f   gamecode.obj
 0001:00002ad0       ?c2CircletoPolyManifold@@YAXUc2Circle@@PEBUc2Poly@@PEBUc2x@@PEAUc2Manifold@@@Z 0000000180003ad0 f   gamecode.obj
 0001:00002fe0       ?c2AABBtoPolyManifold@@YAXUc2AABB@@PEBUc2Poly@@PEBUc2x@@PEAUc2Manifold@@@Z 0000000180003fe0 f   gamecode.obj
 0001:000030a0       ?c2CapsuletoPolyManifold@@YAXUc2Capsule@@PEBUc2Poly@@PEBUc2x@@PEAUc2Manifold@@@Z 00000001800040a0 f   gamecode.obj
 0001:00003760       ?c2PolytoPolyManifold@@YAXPEBUc2Poly@@PEBUc2x@@01PEAUc2Manifold@@@Z 0000000180004760 f   gamecode.obj
 0001:00003bf0       ?c2GJK@@YAMPEBXW4C2_TYPE@@PEBUc2x@@012PEAUc2v@@3H@Z 0000000180004bf0 f   gamecode.obj
 0001:00004480       ?c2Hull@@YAHPEAUc2v@@H@Z   0000000180005480 f   gamecode.obj
 0001:000047b0       ?c2Norms@@YAXPEAUc2v@@0H@Z 00000001800057b0 f   gamecode.obj
 0001:00004890       ?c2MakePoly@@YAXPEAUc2Poly@@@Z 0000000180005890 f   gamecode.obj
 0001:000048f0       ?c2Collided@@YAHPEBXPEBUc2x@@W4C2_TYPE@@012@Z 00000001800058f0 f   gamecode.obj
 0001:00004e80       ?c2Collide@@YAXPEBXPEBUc2x@@W4C2_TYPE@@012PEAUc2Manifold@@@Z 0000000180005e80 f   gamecode.obj
 0001:00007960       ?DrawFilledCircle@@YAXMMMPEAUgame_offscreen_buffer@@MMMM@Z 0000000180008960 f   gamecode.obj
 0001:00007e90       GameUpdateAndRender        0000000180008e90 f   gamecode.obj
 0001:00008d60       GameGetSoundSamples        0000000180009d60 f   gamecode.obj
 0001:00008d80       ??G@YA?ATv2@@T0@0@Z        0000000180009d80 f i gamecode.obj
 0001:00008de0       ??H@YA?ATv2@@T0@0@Z        0000000180009de0 f i gamecode.obj
 0001:00008e40       ?AbsoluteValue@@YAMM@Z     0000000180009e40 f i gamecode.obj
 0001:00008e70       ?GetController@@YAPEAUgame_controller_input@@PEAUgame_input@@_K@Z 0000000180009e70 f i gamecode.obj
 0001:00008e90       ?Intersect@@YA?AUrectangle2i@@U1@0@Z 0000000180009e90 f i gamecode.obj
 0001:00008fb0       ?RectCenterHalfDim@@YA?AUrectangle2@@Tv2@@0@Z 0000000180009fb0 f i gamecode.obj
 0001:00009050       ?RectanglesIntersect@@YAHUrectangle2@@0@Z 000000018000a050 f i gamecode.obj
 0001:000090d0       ?RoundReal32ToInt32@@YAHM@Z 000000018000a0d0 f i gamecode.obj
 0001:00009100       ?RoundReal32ToUInt32@@YAIM@Z 000000018000a100 f i gamecode.obj
 0001:00009130       ?SignOf@@YAMM@Z            000000018000a130 f i gamecode.obj
 0001:00009180       ?c2Absv@@YA?AUc2v@@U1@@Z   000000018000a180 f i gamecode.obj
 0001:00009210       ?c2Add@@YA?AUc2v@@U1@0@Z   000000018000a210 f i gamecode.obj
 0001:00009250       ?c2BBVerts@@YAXPEAUc2v@@PEAUc2AABB@@@Z 000000018000a250 f i gamecode.obj
 0001:00009310       ?c2CCW90@@YA?AUc2v@@U1@@Z  000000018000a310 f i gamecode.obj
 0001:00009340       ?c2Clampv@@YA?AUc2v@@U1@00@Z 000000018000a340 f i gamecode.obj
 0001:00009390       ?c2Det2@@YAMUc2v@@0@Z      000000018000a390 f i gamecode.obj
 0001:000093c0       ?c2Dist@@YAMUc2h@@Uc2v@@@Z 000000018000a3c0 f i gamecode.obj
 0001:000093f0       ?c2Div@@YA?AUc2v@@U1@M@Z   000000018000a3f0 f i gamecode.obj
 0001:00009430       ?c2Dot@@YAMUc2v@@0@Z       000000018000a430 f i gamecode.obj
 0001:00009460       ?c2Hmax@@YAMUc2v@@@Z       000000018000a460 f i gamecode.obj
 0001:000094a0       ?c2Hmin@@YAMUc2v@@@Z       000000018000a4a0 f i gamecode.obj
 0001:000094e0       ?c2Len@@YAMUc2v@@@Z        000000018000a4e0 f i gamecode.obj
 0001:00009510       ?c2Lerp@@YA?AUc2v@@U1@0M@Z 000000018000a510 f i gamecode.obj
 0001:00009570       ?c2Maxv@@YA?AUc2v@@U1@0@Z  000000018000a570 f i gamecode.obj
 0001:000095f0       ?c2Minv@@YA?AUc2v@@U1@0@Z  000000018000a5f0 f i gamecode.obj
 0001:00009670       ?c2MulmvT@@YA?AUc2v@@Uc2m@@U1@@Z 000000018000a670 f i gamecode.obj
 0001:000096e0       ?c2MulrrT@@YA?AUc2r@@U1@0@Z 000000018000a6e0 f i gamecode.obj
 0001:00009740       ?c2Mulrv@@YA?AUc2v@@Uc2r@@U1@@Z 000000018000a740 f i gamecode.obj
 0001:000097b0       ?c2MulrvT@@YA?AUc2v@@Uc2r@@U1@@Z 000000018000a7b0 f i gamecode.obj
 0001:00009820       ?c2Mulvs@@YA?AUc2v@@U1@M@Z 000000018000a820 f i gamecode.obj
 0001:00009860       ?c2Mulvv@@YA?AUc2v@@U1@0@Z 000000018000a860 f i gamecode.obj
 0001:000098a0       ?c2Mulxh@@YA?AUc2h@@Uc2x@@U1@@Z 000000018000a8a0 f i gamecode.obj
 0001:00009990       ?c2Mulxv@@YA?AUc2v@@Uc2x@@U1@@Z 000000018000a990 f i gamecode.obj
 0001:000099e0       ?c2MulxvT@@YA?AUc2v@@Uc2x@@U1@@Z 000000018000a9e0 f i gamecode.obj
 0001:00009a30       ?c2MulxxT@@YA?AUc2x@@U1@0@Z 000000018000aa30 f i gamecode.obj
 0001:00009af0       ?c2Neg@@YA?AUc2v@@U1@@Z    000000018000aaf0 f i gamecode.obj
 0001:00009b40       ?c2Norm@@YA?AUc2v@@U1@@Z   000000018000ab40 f i gamecode.obj
 0001:00009b70       ?c2Origin@@YA?AUc2v@@Uc2h@@@Z 000000018000ab70 f i gamecode.obj
 0001:00009ba0       ?c2Parallel@@YAHUc2v@@0M@Z 000000018000aba0 f i gamecode.obj
 0001:00009cb0       ?c2Project@@YA?AUc2v@@Uc2h@@U1@@Z 000000018000acb0 f i gamecode.obj
 0001:00009d20       ?c2RotIdentity@@YA?AUc2r@@XZ 000000018000ad20 f i gamecode.obj
 0001:00009d50       ?c2Skew@@YA?AUc2v@@U1@@Z   000000018000ad50 f i gamecode.obj
 0001:00009d80       ?c2Sub@@YA?AUc2v@@U1@0@Z   000000018000ad80 f i gamecode.obj
 0001:00009dc0       ?c2V@@YA?AUc2v@@MM@Z       000000018000adc0 f i gamecode.obj
 0001:00009df0       ?c2xIdentity@@YA?AUc2x@@XZ 000000018000adf0 f i gamecode.obj
 0001:00009e70       fabsf                      000000018000ae70 f i gamecode.obj
 0001:00009e90       __GSHandlerCheck           000000018000ae90 f   LIBCMTD:_gshandler_.obj
 0001:00009ed0       __GSHandlerCheckCommon     000000018000aed0 f   LIBCMTD:_gshandler_.obj
 0001:00009fe0       __security_check_cookie    000000018000afe0 f   LIBCMTD:_amdsecgs_.obj
 0001:0000a410       _DllMainCRTStartup         000000018000b410 f   LIBCMTD:dll_dllmain.obj
 0001:0000a450       __raise_securityfailure    000000018000b450 f   LIBCMTD:gs_report.obj
 0001:0000a490       __report_gsfailure         000000018000b490 f   LIBCMTD:gs_report.obj
 0001:0000a570       __report_rangecheckfailure 000000018000b570 f   LIBCMTD:gs_report.obj
 0001:0000a590       __report_securityfailure   000000018000b590 f   LIBCMTD:gs_report.obj
 0001:0000a6f0       ??$__crt_fast_encode_pointer@PEAX@@YAPEAXQEAX@Z 000000018000b6f0 f i libvcruntimed:winapi_downlevel.obj
 0001:0000a6f0       ??$__crt_fast_encode_pointer@PEAP6AXXZ@@YAPEAP6AXXZQEAP6AXXZ@Z 000000018000b6f0 f i LIBCMTD:utility.obj
 0001:0000a6f0       ??$__crt_fast_encode_pointer@P6AXXZ@@YAP6AXXZQ6AXXZ@Z 000000018000b6f0 f i libvcruntimed:purevirt_data.obj
 0001:0000a6f0       ??$__crt_fast_encode_pointer@P6AXH@Z@@YAP6AXH@ZQ6AXH@Z@Z 000000018000b6f0 f i libucrtd:signal.obj
 0001:0000a6f0       ??$__crt_fast_encode_pointer@P6AXPEAXK0@Z@@YAP6AXPEAXK0@ZQ6AX0K0@Z@Z 000000018000b6f0 f i libucrtd:exit.obj
 0001:0000a6f0       ??$__crt_fast_encode_pointer@P6AHXZ@@YAP6AHXZQ6AHXZ@Z 000000018000b6f0 f i libucrtd:onexit.obj
 0001:0000a730       ?__crt_rotate_pointer_value@@YA_K_KH@Z 000000018000b730 f i LIBCMTD:utility.obj
 0001:0000a8b0       NtCurrentTeb               000000018000b8b0 f i LIBCMTD:utility.obj
 0001:0000a8c0       __scrt_acquire_startup_lock 000000018000b8c0 f   LIBCMTD:utility.obj
 0001:0000a930       __scrt_dllmain_after_initialize_c 000000018000b930 f   LIBCMTD:utility.obj
 0001:0000a950       __scrt_dllmain_before_initialize_c 000000018000b950 f   LIBCMTD:utility.obj
 0001:0000a970       __scrt_dllmain_crt_thread_attach 000000018000b970 f   LIBCMTD:utility.obj
 0001:0000a9a0       __scrt_dllmain_crt_thread_detach 000000018000b9a0 f   LIBCMTD:utility.obj
 0001:0000a9c0       __scrt_dllmain_exception_filter 000000018000b9c0 f   LIBCMTD:utility.obj
 0001:0000aa20       __scrt_dllmain_uninitialize_c 000000018000ba20 f   LIBCMTD:utility.obj
 0001:0000aa50       __scrt_dllmain_uninitialize_critical 000000018000ba50 f   LIBCMTD:utility.obj
 0001:0000aa70       __scrt_initialize_crt      000000018000ba70 f   LIBCMTD:utility.obj
 0001:0000aac0       __scrt_initialize_onexit_tables 000000018000bac0 f   LIBCMTD:utility.obj
 0001:0000abc0       __scrt_is_nonwritable_in_current_image 000000018000bbc0 f   LIBCMTD:utility.obj
 0001:0000ac50       __scrt_release_startup_lock 000000018000bc50 f   LIBCMTD:utility.obj
 0001:0000ac80       __scrt_uninitialize_crt    000000018000bc80 f   LIBCMTD:utility.obj
 0001:0000acc0       _onexit                    000000018000bcc0 f   LIBCMTD:utility.obj
 0001:0000ad50       atexit                     000000018000bd50 f   LIBCMTD:utility.obj
 0001:0000ad90       __security_init_cookie     000000018000bd90 f   LIBCMTD:gs_support.obj
 0001:0000aeb0       DllMain                    000000018000beb0 f   LIBCMTD:dll_dllmain_stub.obj
 0001:0000aed0       ?__scrt_initialize_type_info@@YAXXZ 000000018000bed0 f   LIBCMTD:tncleanup.obj
 0001:0000aef0       ?__scrt_uninitialize_type_info@@YAXXZ 000000018000bef0 f   LIBCMTD:tncleanup.obj
 0001:0000af10       __local_stdio_printf_options 000000018000bf10 f i LIBCMTD:default_local_stdio_options.obj
 0001:0000af20       __local_stdio_scanf_options 000000018000bf20 f i LIBCMTD:default_local_stdio_options.obj
 0001:0000af30       __scrt_initialize_default_local_stdio_options 000000018000bf30 f   LIBCMTD:default_local_stdio_options.obj
 0001:0000af80       __scrt_get_dyn_tls_init_callback 000000018000bf80 f   LIBCMTD:dyn_tls_init.obj
 0001:0000af90       __crt_debugger_hook        000000018000bf90 f   LIBCMTD:utility_desktop.obj
 0001:0000afa0       __scrt_fastfail            000000018000bfa0 f   LIBCMTD:utility_desktop.obj
 0001:0000b140       _RTC_Initialize            000000018000c140 f   LIBCMTD:_initsect_.obj
 0001:0000b190       _RTC_Terminate             000000018000c190 f   LIBCMTD:_initsect_.obj
 0001:0000b1e0       _guard_check_icall         000000018000c1e0 f i LIBCMTD:checkcfg.obj
 0001:0000b200       __isa_available_init       000000018000c200 f   LIBCMTD:_cpu_disp_.obj
 0001:0000b580       __scrt_is_ucrt_dll_in_use  000000018000c580 f   LIBCMTD:ucrt_detection.obj
 0001:0000b5b0       _guard_icall_checks_enforced 000000018000c5b0 f i LIBCMTD:guard_support.obj
 0001:0000b5e0       IsProcessorFeaturePresent  000000018000c5e0 f   kernel32:KERNEL32.dll
 0001:0000b680       EventDataDescCreate        000000018000c680 f i libvcruntimed:telemetry.obj
 0001:0000b6c0       HRESULT_FROM_WIN32         000000018000c6c0 f i libvcruntimed:telemetry.obj
 0001:0000b700       __telemetry_main_invoke_trigger 000000018000c700 f   libvcruntimed:telemetry.obj
 0001:0000b840       __telemetry_main_return_trigger 000000018000c840 f   libvcruntimed:telemetry.obj
 0001:0000b980       __vcrt_initialize_telemetry_provider 000000018000c980 f   libvcruntimed:telemetry.obj
 0001:0000b9a0       __vcrt_uninitialize_telemetry_provider 000000018000c9a0 f   libvcruntimed:telemetry.obj
 0001:0000b9c0       __C_specific_handler       000000018000c9c0 f   libvcruntimed:_chandler_.obj
 0001:0000bdf0       __vcrt_initialize          000000018000cdf0 f   libvcruntimed:initialization.obj
 0001:0000be40       __vcrt_thread_attach       000000018000ce40 f   libvcruntimed:initialization.obj
 0001:0000be60       __vcrt_thread_detach       000000018000ce60 f   libvcruntimed:initialization.obj
 0001:0000be80       __vcrt_uninitialize        000000018000ce80 f   libvcruntimed:initialization.obj
 0001:0000beb0       __vcrt_uninitialize_critical 000000018000ceb0 f   libvcruntimed:initialization.obj
 0001:0000bec0       __std_type_info_compare    000000018000cec0 f   libvcruntimed:std_type_info.obj
 0001:0000bf00       __std_type_info_destroy_list 000000018000cf00 f   libvcruntimed:std_type_info.obj
 0001:0000bf60       ??$__crt_interlocked_compare_exchange_pointer@UHINSTANCE__@@$$T$$T@@YAPEAUHINSTANCE__@@PEDSEAU0@$$T1@Z 000000018000cf60 f i libvcruntimed:winapi_downlevel.obj
 0001:0000bf60       ??$__crt_interlocked_compare_exchange_pointer@X$$T$$T@@YAPEAXPEDSEAX$$T1@Z 000000018000cf60 f i libvcruntimed:winapi_downlevel.obj
 0001:0000bfa0       ??$__crt_interlocked_exchange_pointer@XPEAX@@YAPEAXPEDSEAXQEAX@Z 000000018000cfa0 f i libvcruntimed:winapi_downlevel.obj
 0001:0000bfa0       ??$__crt_interlocked_exchange_pointer@UHINSTANCE__@@PEAX@@YAPEAUHINSTANCE__@@PEDSEAU0@QEAX@Z 000000018000cfa0 f i libvcruntimed:winapi_downlevel.obj
 0001:0000bfa0       ??$__crt_interlocked_exchange_pointer@UHINSTANCE__@@PEAU1@@@YAPEAUHINSTANCE__@@PEDSEAU0@QEAU0@@Z 000000018000cfa0 f i libvcruntimed:winapi_downlevel.obj
 0001:0000bfc0       ??$__crt_interlocked_read_pointer@UHINSTANCE__@@@@YAPEAUHINSTANCE__@@PEDSEAU0@@Z 000000018000cfc0 f i libvcruntimed:winapi_downlevel.obj
 0001:0000bfc0       ??$__crt_interlocked_read_pointer@X@@YAPEAXPEDSEAX@Z 000000018000cfc0 f i libvcruntimed:winapi_downlevel.obj
 0001:0000bfe0       ?__crt_fast_encode_pointer@@YA?AU__crt_fast_encoded_nullptr_t@@$$T@Z 000000018000cfe0 f i libvcruntimed:winapi_downlevel.obj
 0001:0000c000       ?get_invalid_value@__crt_handle_traits@@SAPEAXXZ 000000018000d000 f   libucrtd:crtmbox.obj
 0001:0000c5d0       __vcrt_EventRegister       000000018000d5d0 f   libvcruntimed:winapi_downlevel.obj
 0001:0000c640       __vcrt_EventSetInformation 000000018000d640 f   libvcruntimed:winapi_downlevel.obj
 0001:0000c6a0       __vcrt_EventUnregister     000000018000d6a0 f   libvcruntimed:winapi_downlevel.obj
 0001:0000c6f0       __vcrt_EventWriteTransfer  000000018000d6f0 f   libvcruntimed:winapi_downlevel.obj
 0001:0000c770       __vcrt_FlsAlloc            000000018000d770 f   libvcruntimed:winapi_downlevel.obj
 0001:0000c7c0       __vcrt_FlsFree             000000018000d7c0 f   libvcruntimed:winapi_downlevel.obj
 0001:0000c810       __vcrt_FlsGetValue         000000018000d810 f   libvcruntimed:winapi_downlevel.obj
 0001:0000c860       __vcrt_FlsSetValue         000000018000d860 f   libvcruntimed:winapi_downlevel.obj
 0001:0000c8c0       __vcrt_InitializeCriticalSectionEx 000000018000d8c0 f   libvcruntimed:winapi_downlevel.obj
 0001:0000c920       __vcrt_initialize_winapi_thunks 000000018000d920 f   libvcruntimed:winapi_downlevel.obj
 0001:0000c9a0       __vcrt_uninitialize_winapi_thunks 000000018000d9a0 f   libvcruntimed:winapi_downlevel.obj
 0001:0000ca50       _local_unwind              000000018000da50 f   libvcruntimed:_jmpuwind_.obj
 0001:0000ca80       _NLG_Notify                000000018000da80 f   libvcruntimed:_jmpuwind_.obj
 0001:0000caa0       __NLG_Dispatch2            000000018000daa0 f   libvcruntimed:_jmpuwind_.obj
 0001:0000cab0       __NLG_Return2              000000018000dab0 f   libvcruntimed:_jmpuwind_.obj
 0001:0000cac0       __except_validate_context_record 000000018000dac0 f   libvcruntimed:jbcxrval.obj
 0001:0000cb20       ??$?RPEAU__crt_stdio_stream_data@@@__crt_internal_free_policy@@QEBAXQEBQEAU__crt_stdio_stream_data@@@Z 000000018000db20 f i libucrtd:_file.obj
 0001:0000cb20       ??$?RD@__crt_internal_free_policy@@QEBAXQEBD@Z 000000018000db20 f i libvcruntimed:std_type_info.obj
 0001:0000cb20       ??$?RU__vcrt_ptd@@@__crt_internal_free_policy@@QEBAXQEBU__vcrt_ptd@@@Z 000000018000db20 f i libvcruntimed:per_thread_data.obj
 0001:0000cb20       ??$?RU__acrt_ptd@@@__crt_internal_free_policy@@QEBAXQEBU__acrt_ptd@@@Z 000000018000db20 f i libucrtd:per_thread_data.obj
 0001:0000cb20       ??$?RU__crt_multibyte_data@@@__crt_internal_free_policy@@QEBAXQEBU__crt_multibyte_data@@@Z 000000018000db20 f i libucrtd:mbctype.obj
 0001:0000cb20       ??$?RP6AXXZ@__crt_internal_free_policy@@QEBAXQEBQ6AXXZ@Z 000000018000db20 f i libucrtd:onexit.obj
 0001:0000cb20       ??$?RU__crt_lowio_handle_data@@@__crt_internal_free_policy@@QEBAXQEBU__crt_lowio_handle_data@@@Z 000000018000db20 f i libucrtd:osfinfo.obj
 0001:0000cb50       ??1?$__crt_unique_heap_ptr@DU__crt_internal_free_policy@@@@QEAA@XZ 000000018000db50 f i libvcruntimed:std_type_info.obj
 0001:0000cb50       ??1?$__crt_unique_heap_ptr@U__vcrt_ptd@@U__crt_internal_free_policy@@@@QEAA@XZ 000000018000db50 f i libvcruntimed:per_thread_data.obj
 0001:0000cb70       ?detach@?$__crt_unique_heap_ptr@P6AXXZU__crt_internal_free_policy@@@@QEAAPEAP6AXXZXZ 000000018000db70 f i libucrtd:onexit.obj
 0001:0000cb70       ?detach@?$__crt_unique_heap_ptr@PEAU__crt_stdio_stream_data@@U__crt_internal_free_policy@@@@QEAAPEAPEAU__crt_stdio_stream_data@@XZ 000000018000db70 f i libucrtd:_file.obj
 0001:0000cb70       ?detach@?$__crt_unique_heap_ptr@U__vcrt_ptd@@U__crt_internal_free_policy@@@@QEAAPEAU__vcrt_ptd@@XZ 000000018000db70 f i libvcruntimed:per_thread_data.obj
 0001:0000cb70       ?detach@?$__crt_unique_heap_ptr@U__acrt_ptd@@U__crt_internal_free_policy@@@@QEAAPEAU__acrt_ptd@@XZ 000000018000db70 f i libucrtd:per_thread_data.obj
 0001:0000cb70       ?detach@?$__crt_unique_heap_ptr@U__crt_lowio_handle_data@@U__crt_internal_free_policy@@@@QEAAPEAU__crt_lowio_handle_data@@XZ 000000018000db70 f i libucrtd:osfinfo.obj
 0001:0000cb70       ?detach@?$__crt_unique_heap_ptr@DU__crt_public_free_policy@@@@QEAAPEADXZ 000000018000db70 f i libvcruntimed:std_exception.obj
 0001:0000cb70       ?detach@?$__crt_unique_heap_ptr@U__crt_multibyte_data@@U__crt_internal_free_policy@@@@QEAAPEAU__crt_multibyte_data@@XZ 000000018000db70 f i libucrtd:mbctype.obj
 0001:0000cba0       ?release@?$__crt_unique_heap_ptr@DU__crt_internal_free_policy@@@@QEAAXXZ 000000018000dba0 f i libvcruntimed:std_type_info.obj
 0001:0000cba0       ?release@?$__crt_unique_heap_ptr@U__vcrt_ptd@@U__crt_internal_free_policy@@@@QEAAXXZ 000000018000dba0 f i libvcruntimed:per_thread_data.obj
 0001:0000cc00       __vcrt_freefls             000000018000dc00 f   libvcruntimed:per_thread_data.obj
 0001:0000cc40       __vcrt_freeptd             000000018000dc40 f   libvcruntimed:per_thread_data.obj
 0001:0000cca0       __vcrt_getptd              000000018000dca0 f   libvcruntimed:per_thread_data.obj
 0001:0000ccd0       __vcrt_getptd_noexit       000000018000dcd0 f   libvcruntimed:per_thread_data.obj
 0001:0000cdf0       __vcrt_initialize_ptd      000000018000ddf0 f   libvcruntimed:per_thread_data.obj
 0001:0000ce40       __vcrt_uninitialize_ptd    000000018000de40 f   libvcruntimed:per_thread_data.obj
 0001:0000ce70       __vcrt_initialize_locks    000000018000de70 f   libvcruntimed:locks.obj
 0001:0000cee0       __vcrt_uninitialize_locks  000000018000dee0 f   libvcruntimed:locks.obj
 0001:0000cf40       __vcrt_initialize_pure_virtual_call_handler 000000018000df40 f   libvcruntimed:purevirt_data.obj
 0001:0000cf70       _vsprintf_s_l              000000018000df70 f i libvcruntimed:undname.obj
 0001:0000cfe0       sprintf_s                  000000018000dfe0 f i libvcruntimed:undname.obj
 0001:0000d040       roundf                     000000018000e040 f   libucrtd:roundf.obj
 0001:0000d0d0       sqrtf                      000000018000e0d0 f   libucrtd:sqrtf.obj
 0001:0000d210       _initterm                  000000018000e210 f   libucrtd:initterm.obj
 0001:0000d280       _initterm_e                000000018000e280 f   libucrtd:initterm.obj
 0001:0000d370       _seh_filter_dll            000000018000e370 f   libucrtd:exception_filter.obj
 0001:0000d3a0       _seh_filter_exe            000000018000e3a0 f   libucrtd:exception_filter.obj
 0001:0000d650       ??$__crt_get_proc_address@P6AXI@Z@@YAP6AXI@ZQEAUHINSTANCE__@@QEBD@Z 000000018000e650 f i libucrtd:exit.obj
 0001:0000d680       ??$__crt_interlocked_read@J@@YAJPEDJ@Z 000000018000e680 f i libucrtd:exit.obj
 0001:0000d6a0       ??1?$__crt_unique_handle_t@U__crt_hmodule_traits@@@@QEAA@XZ 000000018000e6a0 f i libucrtd:exit.obj
 0001:0000d6c0       ?__crt_interlocked_read_32@@YAHPEDH@Z 000000018000e6c0 f i libucrtd:exit.obj
 0001:0000d700       ?close@?$__crt_unique_handle_t@U__crt_hmodule_traits@@@@QEAAXXZ 000000018000e700 f i libucrtd:exit.obj
 0001:0000d740       ?close@__crt_hmodule_traits@@SA_NPEAUHINSTANCE__@@@Z 000000018000e740 f i libucrtd:exit.obj
 0001:0000d910       ?get_invalid_value@__crt_hmodule_traits@@SAPEAUHINSTANCE__@@XZ 000000018000e910 f i libucrtd:exit.obj
 0001:0000d910       ?get_current_state_index@__crt_state_management@@YA_KXZ 000000018000e910 f i libucrtd:environment_initialization.obj
 0001:0000dae0       __acrt_initialize_thread_local_exit_callback 000000018000eae0 f   libucrtd:exit.obj
 0001:0000db00       _cexit                     000000018000eb00 f   libucrtd:exit.obj
 0001:0000db20       _exit                      000000018000eb20 f   libucrtd:exit.obj
 0001:0000db40       _is_c_termination_complete 000000018000eb40 f   libucrtd:exit.obj
 0001:0000dda0       __dcrt_uninitialize_environments_nolock 000000018000eda0 f   libucrtd:environment_initialization.obj
 0001:0000ddd8       _initialize_narrow_environment 000000018000edd8 f   libucrtd:environment_initialization.obj
 0001:0000dde0       _invoke_watson_if_error    000000018000ede0 f i libucrtd:environment_initialization.obj
 0001:0000de20       ??$?B$$A6AXPEAXK0@Z@__crt_fast_encoded_nullptr_t@@QEBAP6AXPEAXK0@ZXZ 000000018000ee20 f i libucrtd:exit.obj
 0001:0000de20       ??$?BP6AXXZ@__crt_fast_encoded_nullptr_t@@QEBAPEAP6AXXZXZ 000000018000ee20 f i libucrtd:onexit.obj
 0001:0000de20       ??$?B$$A6AXH@Z@__crt_fast_encoded_nullptr_t@@QEBAP6AXH@ZXZ 000000018000ee20 f i libucrtd:signal.obj
 0001:0000de20       ??$?BX@__crt_fast_encoded_nullptr_t@@QEBAPEAXXZ 000000018000ee20 f i libvcruntimed:winapi_downlevel.obj
 0001:0000de20       ??$?B$$A6AXXZ@__crt_fast_encoded_nullptr_t@@QEBAP6AXXZXZ 000000018000ee20 f i libvcruntimed:purevirt_data.obj
 0001:0000de40       ??$?RV<lambda_b0d8f1f77f5878de4f648f281b223c15>@@AEAV<lambda_942beefa13ab35ff55f86422493ffd6a>@@V<lambda_7adb6fc9c0d6a5bd4e2d9c212ec7cdcc>@@@?$__crt_seh_guarded_call@H@@QEAAH$$QEAV<lambda_b0d8f1f77f5878de4f648f281b223c15>@@AEAV<lambda_942beefa13ab35ff55f86422493ffd6a>@@$$QEAV<lambda_7adb6fc9c0d6a5bd4e2d9c212ec7cdcc>@@@Z 000000018000ee40 f i libucrtd:onexit.obj
 0001:0000de90       ??$?RV<lambda_d22e02de4d14401f49897516b29a2b7c>@@AEAV<lambda_e971338317bfa523bb8920b43d823727>@@V<lambda_b0b8599c9027f5b14541fbbd6863d1f1>@@@?$__crt_seh_guarded_call@H@@QEAAH$$QEAV<lambda_d22e02de4d14401f49897516b29a2b7c>@@AEAV<lambda_e971338317bfa523bb8920b43d823727>@@$$QEAV<lambda_b0b8599c9027f5b14541fbbd6863d1f1>@@@Z 000000018000ee90 f i libucrtd:onexit.obj
 0001:0000dee0       ??$__acrt_lock_and_call@V<lambda_942beefa13ab35ff55f86422493ffd6a>@@@@YAHW4__acrt_lock_id@@$$QEAV<lambda_942beefa13ab35ff55f86422493ffd6a>@@@Z 000000018000eee0 f i libucrtd:onexit.obj
 0001:0000df50       ??$__acrt_lock_and_call@V<lambda_e971338317bfa523bb8920b43d823727>@@@@YAHW4__acrt_lock_id@@$$QEAV<lambda_e971338317bfa523bb8920b43d823727>@@@Z 000000018000ef50 f i libucrtd:onexit.obj
 0001:0000e4f0       _crt_atexit                000000018000f4f0 f   libucrtd:onexit.obj
 0001:0000e510       _execute_onexit_table      000000018000f510 f   libucrtd:onexit.obj
 0001:0000e540       _initialize_onexit_table   000000018000f540 f   libucrtd:onexit.obj
 0001:0000e5c0       _register_onexit_function  000000018000f5c0 f   libucrtd:onexit.obj
 0001:0000e690       __acrt_uninitialize_command_line 000000018000f690 f   libucrtd:argv_data.obj
 0001:0000e820       __acrt_initialize          000000018000f820 f   libucrtd:initialization.obj
 0001:0000e850       __acrt_thread_attach       000000018000f850 f   libucrtd:initialization.obj
 0001:0000e870       __acrt_thread_detach       000000018000f870 f   libucrtd:initialization.obj
 0001:0000e880       __acrt_uninitialize        000000018000f880 f   libucrtd:initialization.obj
 0001:0000e8b0       __acrt_uninitialize_critical 000000018000f8b0 f   libucrtd:initialization.obj
 0001:0000e8d0       terminate                  000000018000f8d0 f   libucrtd:terminate.obj
 0001:0000e910       wcslen                     000000018000f910 f   libucrtd:wcslen.obj
 0001:0000e970       strlen                     000000018000f970 f   libucrtd:strlen.obj
 0001:0000ea20       ??0_LocaleUpdate@@QEAA@QEAU__crt_locale_pointers@@@Z 000000018000fa20 f i libucrtd:debug_heap.obj
 0001:0000eb40       ??1_LocaleUpdate@@QEAA@XZ  000000018000fb40 f i libucrtd:debug_heap.obj
 0001:0000eb80       ?GetLocaleT@_LocaleUpdate@@QEAAPEAU__crt_locale_pointers@@XZ 000000018000fb80 f i libucrtd:debug_heap.obj
 0001:00010b70       _CrtCheckMemory            0000000180011b70 f   libucrtd:debug_heap.obj
 0001:00010d00       _CrtDumpMemoryLeaks        0000000180011d00 f   libucrtd:debug_heap.obj
 0001:00010dc0       _CrtIsValidHeapPointer     0000000180011dc0 f   libucrtd:debug_heap.obj
 0001:00010e00       _CrtIsValidPointer         0000000180011e00 f   libucrtd:debug_heap.obj
 0001:00010e40       _CrtMemCheckpoint          0000000180011e40 f   libucrtd:debug_heap.obj
 0001:000110c0       _CrtMemDumpAllObjectsSince 00000001800120c0 f   libucrtd:debug_heap.obj
 0001:00011120       _CrtSetDbgFlag             0000000180012120 f   libucrtd:debug_heap.obj
 0001:00011280       _CrtSetDumpClient          0000000180012280 f   libucrtd:debug_heap.obj
 0001:000112b0       __acrt_get_locale_data_prefix 00000001800122b0 f i libucrtd:debug_heap.obj
 0001:000112d0       __acrt_locale_changed      00000001800122d0 f i libucrtd:debug_heap.obj
 0001:00011300       _calloc_dbg                0000000180012300 f   libucrtd:debug_heap.obj
 0001:000113a0       _chvalidchk_l              00000001800123a0 f i libucrtd:debug_heap.obj
 0001:000113d0       _free_dbg                  00000001800123d0 f   libucrtd:debug_heap.obj
 0001:00011440       _invoke_watson_if_oneof    0000000180012440 f i libucrtd:debug_heap.obj
 0001:000114a0       _ischartype_l              00000001800124a0 f i libucrtd:debug_heap.obj
 0001:00011500       _malloc_dbg                0000000180012500 f   libucrtd:debug_heap.obj
 0001:00011540       _msize_dbg                 0000000180012540 f   libucrtd:debug_heap.obj
 0001:000116e0       _realloc_dbg               00000001800126e0 f   libucrtd:debug_heap.obj
 0001:00011750       _recalloc_dbg              0000000180012750 f   libucrtd:debug_heap.obj
 0001:00011d20       strcpy_s                   0000000180012d20 f   libucrtd:strcpy_s.obj
 0001:00011d60       strcmp                     0000000180012d60 f   libucrtd:strcmp.obj
 0001:00011dd0       ??$__vcrt_va_start_verify_argument_type@QEBD@@YAXXZ 0000000180012dd0 f i libvcruntimed:undname.obj
 0001:00011dd0       ??$__vcrt_va_start_verify_argument_type@QEB_W@@YAXXZ 0000000180012dd0 f i libucrtd:dbgrpt.obj
 0001:00012b50       ??$get_module_file_name@AEAPEAUHINSTANCE__@@AEAY0BAF@DK@?$__crt_char_traits@D@@SAKAEAPEAUHINSTANCE__@@AEAY0BAF@D$$QEAK@Z 0000000180013b50 f i libucrtd:dbgrpt.obj
 0001:00012b90       ??$get_module_file_name@AEAPEAUHINSTANCE__@@AEAY0BAF@_WK@?$__crt_char_traits@_W@@SAKAEAPEAUHINSTANCE__@@AEAY0BAF@_W$$QEAK@Z 0000000180013b90 f i libucrtd:dbgrpt.obj
 0001:00012bd0       ??$tcscpy_s@AEAY0BAF@D_KPEBD@?$__crt_char_traits@D@@SAHAEAY0BAF@D$$QEA_K$$QEAPEBD@Z 0000000180013bd0 f i libucrtd:dbgrpt.obj
 0001:00012c10       ??$tcscpy_s@AEAY0BAF@_W_KPEB_W@?$__crt_char_traits@_W@@SAHAEAY0BAF@_W$$QEA_K$$QEAPEB_W@Z 0000000180013c10 f i libucrtd:dbgrpt.obj
 0001:00012c50       ??$tcslen@AEAY0BAF@D@?$__crt_char_traits@D@@SA_KAEAY0BAF@D@Z 0000000180013c50 f i libucrtd:dbgrpt.obj
 0001:00012c70       ??$tcslen@AEAY0BAF@_W@?$__crt_char_traits@_W@@SA_KAEAY0BAF@_W@Z 0000000180013c70 f i libucrtd:dbgrpt.obj
 0001:00012c90       ??$tcslen@AEBQEBD@?$__crt_char_traits@D@@SA_KAEBQEBD@Z 0000000180013c90 f i libucrtd:dbgrpt.obj
 0001:00012cb0       ??$tcslen@AEBQEB_W@?$__crt_char_traits@_W@@SA_KAEBQEB_W@Z 0000000180013cb0 f i libucrtd:dbgrpt.obj
 0001:00012d10       _CrtDbgReport              0000000180013d10 f   libucrtd:dbgrpt.obj
 0001:00012d90       _CrtDbgReportW             0000000180013d90 f   libucrtd:dbgrpt.obj
 0001:00012e10       __acrt_MessageWindowA      0000000180013e10 f   libucrtd:dbgrpt.obj
 0001:00012e60       __acrt_MessageWindowW      0000000180013e60 f   libucrtd:dbgrpt.obj
 0001:00012eb0       _snwprintf_s               0000000180013eb0 f i libucrtd:dbgrpt.obj
 0001:00012f20       _vsnwprintf_s_l            0000000180013f20 f i libucrtd:dbgrpt.obj
 0001:00012fa0       abort                      0000000180013fa0 f   libucrtd:abort.obj
 0001:00013020       ??$?0AEBV?$string_output_adapter@D@__crt_stdio_output@@AEB_KAEBQEBDAEBQEAU__crt_locale_pointers@@AEBQEAD@?$format_validation_base@DV?$string_output_adapter@D@__crt_stdio_output@@@__crt_stdio_output@@IEAA@AEBV?$string_output_adapter@D@1@AEB_KAEBQEBDAEBQEAU__crt_locale_pointers@@AEBQEAD@Z 0000000180014020 f i libucrtd:output.obj
 0001:00013070       ??$?0AEBV?$string_output_adapter@D@__crt_stdio_output@@AEB_KAEBQEBDAEBQEAU__crt_locale_pointers@@AEBQEAD@?$standard_base@DV?$string_output_adapter@D@__crt_stdio_output@@@__crt_stdio_output@@IEAA@AEBV?$string_output_adapter@D@1@AEB_KAEBQEBDAEBQEAU__crt_locale_pointers@@AEBQEAD@Z 0000000180014070 f i libucrtd:output.obj
 0001:000130e0       ??$?0AEBV?$string_output_adapter@_W@__crt_stdio_output@@AEB_KAEBQEB_WAEBQEAU__crt_locale_pointers@@AEBQEAD@?$format_validation_base@_WV?$string_output_adapter@_W@__crt_stdio_output@@@__crt_stdio_output@@IEAA@AEBV?$string_output_adapter@_W@1@AEB_KAEBQEB_WAEBQEAU__crt_locale_pointers@@AEBQEAD@Z 00000001800140e0 f i libucrtd:output.obj
 0001:00013130       ??$?0AEBV?$string_output_adapter@_W@__crt_stdio_output@@AEB_KAEBQEB_WAEBQEAU__crt_locale_pointers@@AEBQEAD@?$standard_base@_WV?$string_output_adapter@_W@__crt_stdio_output@@@__crt_stdio_output@@IEAA@AEBV?$string_output_adapter@_W@1@AEB_KAEBQEB_WAEBQEAU__crt_locale_pointers@@AEBQEAD@Z 0000000180014130 f i libucrtd:output.obj
 0001:00014ab0       ??$count@D@formatting_buffer@__crt_stdio_output@@QEBA_KXZ 0000000180015ab0 f i libucrtd:output.obj
 0001:00014b00       ??$data@D@formatting_buffer@__crt_stdio_output@@QEAAPEADXZ 0000000180015b00 f i libucrtd:output.obj
 0001:00014b00       ??$data@_W@formatting_buffer@__crt_stdio_output@@QEAAPEA_WXZ 0000000180015b00 f i libucrtd:output.obj
 0001:00014b50       ??$ensure_buffer_is_big_enough@D@formatting_buffer@__crt_stdio_output@@QEAA_N_K@Z 0000000180015b50 f i libucrtd:output.obj
 0001:00014c80       ??$extract_argument_from_va_list@C_J@?$standard_base@_WV?$string_output_adapter@_W@__crt_stdio_output@@@__crt_stdio_output@@IEAA_NAEA_J@Z 0000000180015c80 f i libucrtd:output.obj
 0001:00014c80       ??$extract_argument_from_va_list@C_J@?$standard_base@DV?$string_output_adapter@D@__crt_stdio_output@@@__crt_stdio_output@@IEAA_NAEA_J@Z 0000000180015c80 f i libucrtd:output.obj
 0001:00014cc0       ??$extract_argument_from_va_list@E_J@?$standard_base@DV?$string_output_adapter@D@__crt_stdio_output@@@__crt_stdio_output@@IEAA_NAEA_J@Z 0000000180015cc0 f i libucrtd:output.obj
 0001:00014cc0       ??$extract_argument_from_va_list@E_J@?$standard_base@_WV?$string_output_adapter@_W@__crt_stdio_output@@@__crt_stdio_output@@IEAA_NAEA_J@Z 0000000180015cc0 f i libucrtd:output.obj
 0001:00014d00       ??$extract_argument_from_va_list@F_J@?$standard_base@DV?$string_output_adapter@D@__crt_stdio_output@@@__crt_stdio_output@@IEAA_NAEA_J@Z 0000000180015d00 f i libucrtd:output.obj
 0001:00014d00       ??$extract_argument_from_va_list@F_J@?$standard_base@_WV?$string_output_adapter@_W@__crt_stdio_output@@@__crt_stdio_output@@IEAA_NAEA_J@Z 0000000180015d00 f i libucrtd:output.obj
 0001:00014d40       ??$extract_argument_from_va_list@GD@?$standard_base@DV?$string_output_adapter@D@__crt_stdio_output@@@__crt_stdio_output@@IEAA_NAEAD@Z 0000000180015d40 f i libucrtd:output.obj
 0001:00014d70       ??$extract_argument_from_va_list@G_J@?$standard_base@DV?$string_output_adapter@D@__crt_stdio_output@@@__crt_stdio_output@@IEAA_NAEA_J@Z 0000000180015d70 f i libucrtd:output.obj
 0001:00014d70       ??$extract_argument_from_va_list@G_J@?$standard_base@_WV?$string_output_adapter@_W@__crt_stdio_output@@@__crt_stdio_output@@IEAA_NAEA_J@Z 0000000180015d70 f i libucrtd:output.obj
 0001:00014db0       ??$extract_argument_from_va_list@H_J@?$standard_base@_WV?$string_output_adapter@_W@__crt_stdio_output@@@__crt_stdio_output@@IEAA_NAEA_J@Z 0000000180015db0 f i libucrtd:output.obj
 0001:00014db0       ??$extract_argument_from_va_list@H_J@?$standard_base@DV?$string_output_adapter@D@__crt_stdio_output@@@__crt_stdio_output@@IEAA_NAEA_J@Z 0000000180015db0 f i libucrtd:output.obj
 0001:00014de0       ??$extract_argument_from_va_list@I_J@?$standard_base@_WV?$string_output_adapter@_W@__crt_stdio_output@@@__crt_stdio_output@@IEAA_NAEA_J@Z 0000000180015de0 f i libucrtd:output.obj
 0001:00014de0       ??$extract_argument_from_va_list@I_J@?$standard_base@DV?$string_output_adapter@D@__crt_stdio_output@@@__crt_stdio_output@@IEAA_NAEA_J@Z 0000000180015de0 f i libucrtd:output.obj
 0001:00014e10       ??$extract_argument_from_va_list@U_CRT_DOUBLE@@U1@@?$standard_base@_WV?$string_output_adapter@_W@__crt_stdio_output@@@__crt_stdio_output@@IEAA_NAEAU_CRT_DOUBLE@@@Z 0000000180015e10 f i libucrtd:output.obj
 0001:00014e10       ??$extract_argument_from_va_list@U_CRT_DOUBLE@@U1@@?$standard_base@DV?$string_output_adapter@D@__crt_stdio_output@@@__crt_stdio_output@@IEAA_NAEAU_CRT_DOUBLE@@@Z 0000000180015e10 f i libucrtd:output.obj
 0001:00014e60       ??$extract_argument_from_va_list@PEADPEAD@?$standard_base@_WV?$string_output_adapter@_W@__crt_stdio_output@@@__crt_stdio_output@@IEAA_NAEAPEAD@Z 0000000180015e60 f i libucrtd:output.obj
 0001:00014e60       ??$extract_argument_from_va_list@PEADPEAD@?$standard_base@DV?$string_output_adapter@D@__crt_stdio_output@@@__crt_stdio_output@@IEAA_NAEAPEAD@Z 0000000180015e60 f i libucrtd:output.obj
 0001:00014e60       ??$extract_argument_from_va_list@PEAXPEAX@?$standard_base@_WV?$string_output_adapter@_W@__crt_stdio_output@@@__crt_stdio_output@@IEAA_NAEAPEAX@Z 0000000180015e60 f i libucrtd:output.obj
 0001:00014e60       ??$extract_argument_from_va_list@_J_J@?$standard_base@_WV?$string_output_adapter@_W@__crt_stdio_output@@@__crt_stdio_output@@IEAA_NAEA_J@Z 0000000180015e60 f i libucrtd:output.obj
 0001:00014e60       ??$extract_argument_from_va_list@_K_J@?$standard_base@_WV?$string_output_adapter@_W@__crt_stdio_output@@@__crt_stdio_output@@IEAA_NAEA_J@Z 0000000180015e60 f i libucrtd:output.obj
 0001:00014e60       ??$extract_argument_from_va_list@_K_J@?$standard_base@DV?$string_output_adapter@D@__crt_stdio_output@@@__crt_stdio_output@@IEAA_NAEA_J@Z 0000000180015e60 f i libucrtd:output.obj
 0001:00014e60       ??$extract_argument_from_va_list@PEAXPEAX@?$standard_base@DV?$string_output_adapter@D@__crt_stdio_output@@@__crt_stdio_output@@IEAA_NAEAPEAX@Z 0000000180015e60 f i libucrtd:output.obj
 0001:00014e60       ??$extract_argument_from_va_list@_J_J@?$standard_base@DV?$string_output_adapter@D@__crt_stdio_output@@@__crt_stdio_output@@IEAA_NAEA_J@Z 0000000180015e60 f i libucrtd:output.obj
 0001:00014e60       ??$extract_argument_from_va_list@PEAUansi_string@?1??type_case_Z@?$output_processor@_WV?$string_output_adapter@_W@__crt_stdio_output@@V?$format_validation_base@_WV?$string_output_adapter@_W@__crt_stdio_output@@@2@@__crt_stdio_output@@AEAA_NXZ@PEAU1?1??234@AEAA_NXZ@@?$standard_base@_WV?$string_output_adapter@_W@__crt_stdio_output@@@__crt_stdio_output@@IEAA_NAEAPEAUansi_string@?1??type_case_Z@?$output_processor@_WV?$string_output_adapter@_W@__crt_stdio_output@@V?$format_validation_base@_WV?$string_output_adapter@_W@__crt_stdio_output@@@2@@1@AEAA_NXZ@@Z 0000000180015e60 f i libucrtd:output.obj
 0001:00014e60       ??$extract_argument_from_va_list@PEAUansi_string@?1??type_case_Z@?$output_processor@DV?$string_output_adapter@D@__crt_stdio_output@@V?$format_validation_base@DV?$string_output_adapter@D@__crt_stdio_output@@@2@@__crt_stdio_output@@AEAA_NXZ@PEAU1?1??234@AEAA_NXZ@@?$standard_base@DV?$string_output_adapter@D@__crt_stdio_output@@@__crt_stdio_output@@IEAA_NAEAPEAUansi_string@?1??type_case_Z@?$output_processor@DV?$string_output_adapter@D@__crt_stdio_output@@V?$format_validation_base@DV?$string_output_adapter@D@__crt_stdio_output@@@2@@1@AEAA_NXZ@@Z 0000000180015e60 f i libucrtd:output.obj
 0001:00014e90       ??$extract_argument_from_va_list@_W_W@?$standard_base@DV?$string_output_adapter@D@__crt_stdio_output@@@__crt_stdio_output@@IEAA_NAEA_W@Z 0000000180015e90 f i libucrtd:output.obj
 0001:00014e90       ??$extract_argument_from_va_list@_W_W@?$standard_base@_WV?$string_output_adapter@_W@__crt_stdio_output@@@__crt_stdio_output@@IEAA_NAEA_W@Z 0000000180015e90 f i libucrtd:output.obj
 0001:00014ec0       ??$is_wide_character_specifier@D@__crt_stdio_output@@YA_N_KDW4length_modifier@0@@Z 0000000180015ec0 f i libucrtd:output.obj
 0001:00014f60       ??$is_wide_character_specifier@_W@__crt_stdio_output@@YA_N_K_WW4length_modifier@0@@Z 0000000180015f60 f i libucrtd:output.obj
 0001:00015030       ??$read_va_arg@E@__crt_stdio_output@@YAEAEAPEAD@Z 0000000180016030 f i libucrtd:output.obj
 0001:00015030       ??$read_va_arg@C@__crt_stdio_output@@YACAEAPEAD@Z 0000000180016030 f i libucrtd:output.obj
 0001:000150a0       ??$read_va_arg@_W@__crt_stdio_output@@YA_WAEAPEAD@Z 00000001800160a0 f i libucrtd:output.obj
 0001:000150a0       ??$read_va_arg@F@__crt_stdio_output@@YAFAEAPEAD@Z 00000001800160a0 f i libucrtd:output.obj
 0001:000150a0       ??$read_va_arg@G@__crt_stdio_output@@YAGAEAPEAD@Z 00000001800160a0 f i libucrtd:output.obj
 0001:00015110       ??$read_va_arg@I@__crt_stdio_output@@YAIAEAPEAD@Z 0000000180016110 f i libucrtd:output.obj
 0001:00015110       ??$read_va_arg@H@__crt_stdio_output@@YAHAEAPEAD@Z 0000000180016110 f i libucrtd:output.obj
 0001:00015170       ??$read_va_arg@PEAX@__crt_stdio_output@@YAPEAXAEAPEAD@Z 0000000180016170 f i libucrtd:output.obj
 0001:00015170       ??$read_va_arg@_J@__crt_stdio_output@@YA_JAEAPEAD@Z 0000000180016170 f i libucrtd:output.obj
 0001:00015170       ??$read_va_arg@PEAUansi_string@?1??type_case_Z@?$output_processor@_WV?$string_output_adapter@_W@__crt_stdio_output@@V?$format_validation_base@_WV?$string_output_adapter@_W@__crt_stdio_output@@@2@@__crt_stdio_output@@AEAA_NXZ@@__crt_stdio_output@@YAPEAUansi_string@?1??type_case_Z@?$output_processor@_WV?$string_output_adapter@_W@__crt_stdio_output@@V?$format_validation_base@_WV?$string_output_adapter@_W@__crt_stdio_output@@@2@@0@AEAA_NXZ@AEAPEAD@Z 0000000180016170 f i libucrtd:output.obj
 0001:00015170       ??$read_va_arg@_K@__crt_stdio_output@@YA_KAEAPEAD@Z 0000000180016170 f i libucrtd:output.obj
 0001:00015170       ??$read_va_arg@U_CRT_DOUBLE@@@__crt_stdio_output@@YA?AU_CRT_DOUBLE@@AEAPEAD@Z 0000000180016170 f i libucrtd:output.obj
 0001:00015170       ??$read_va_arg@PEAD@__crt_stdio_output@@YAPEADAEAPEAD@Z 0000000180016170 f i libucrtd:output.obj
 0001:00015170       ??$read_va_arg@PEAUansi_string@?1??type_case_Z@?$output_processor@DV?$string_output_adapter@D@__crt_stdio_output@@V?$format_validation_base@DV?$string_output_adapter@D@__crt_stdio_output@@@2@@__crt_stdio_output@@AEAA_NXZ@@__crt_stdio_output@@YAPEAUansi_string@?1??type_case_Z@?$output_processor@DV?$string_output_adapter@D@__crt_stdio_output@@V?$format_validation_base@DV?$string_output_adapter@D@__crt_stdio_output@@@2@@0@AEAA_NXZ@AEAPEAD@Z 0000000180016170 f i libucrtd:output.obj
 0001:000151e0       ??$scratch_count@D@formatting_buffer@__crt_stdio_output@@QEBA_KXZ 00000001800161e0 f i libucrtd:output.obj
 0001:00015200       ??$scratch_data@D@formatting_buffer@__crt_stdio_output@@QEAAPEADXZ 0000000180016200 f i libucrtd:output.obj
 0001:00015270       ??$tcstol@PEBDPEAPEADH@?$__crt_char_traits@D@@SAJ$$QEAPEBD$$QEAPEAPEAD$$QEAH@Z 0000000180016270 f i libucrtd:output.obj
 0001:000152b0       ??$tcstol@PEB_WPEAPEA_WH@?$__crt_char_traits@_W@@SAJ$$QEAPEB_W$$QEAPEAPEA_W$$QEAH@Z 00000001800162b0 f i libucrtd:output.obj
 0001:000152f0       ??$type_case_integer_parse_into_buffer@I@?$output_processor@DV?$string_output_adapter@D@__crt_stdio_output@@V?$format_validation_base@DV?$string_output_adapter@D@__crt_stdio_output@@@2@@__crt_stdio_output@@AEAAXII_N@Z 00000001800162f0 f i libucrtd:output.obj
 0001:00015410       ??$type_case_integer_parse_into_buffer@I@?$output_processor@_WV?$string_output_adapter@_W@__crt_stdio_output@@V?$format_validation_base@_WV?$string_output_adapter@_W@__crt_stdio_output@@@2@@__crt_stdio_output@@AEAAXII_N@Z 0000000180016410 f i libucrtd:output.obj
 0001:00015540       ??$type_case_integer_parse_into_buffer@_K@?$output_processor@DV?$string_output_adapter@D@__crt_stdio_output@@V?$format_validation_base@DV?$string_output_adapter@D@__crt_stdio_output@@@2@@__crt_stdio_output@@AEAAX_KI_N@Z 0000000180016540 f i libucrtd:output.obj
 0001:00015690       ??$type_case_integer_parse_into_buffer@_K@?$output_processor@_WV?$string_output_adapter@_W@__crt_stdio_output@@V?$format_validation_base@_WV?$string_output_adapter@_W@__crt_stdio_output@@@2@@__crt_stdio_output@@AEAAX_KI_N@Z 0000000180016690 f i libucrtd:output.obj
 0001:000157e0       ??$write_multiple_characters@V?$string_output_adapter@D@__crt_stdio_output@@D@__crt_stdio_output@@YAXAEBV?$string_output_adapter@D@0@DHQEAH@Z 00000001800167e0 f i libucrtd:output.obj
 0001:00015840       ??$write_multiple_characters@V?$string_output_adapter@_W@__crt_stdio_output@@D@__crt_stdio_output@@YAXAEBV?$string_output_adapter@_W@0@DHQEAH@Z 0000000180016840 f i libucrtd:output.obj
 0001:000158a0       ??0?$common_data@D@__crt_stdio_output@@IEAA@XZ 00000001800168a0 f i libucrtd:output.obj
 0001:00015970       ??0?$common_data@_W@__crt_stdio_output@@IEAA@XZ 0000000180016970 f i libucrtd:output.obj
 0001:00015a40       ??0?$output_adapter_data@DV?$string_output_adapter@D@__crt_stdio_output@@@__crt_stdio_output@@IEAA@AEBV?$string_output_adapter@D@1@_KQEBDQEAU__crt_locale_pointers@@QEAD@Z 0000000180016a40 f i libucrtd:output.obj
 0001:00015ac0       ??0?$output_adapter_data@_WV?$string_output_adapter@_W@__crt_stdio_output@@@__crt_stdio_output@@IEAA@AEBV?$string_output_adapter@_W@1@_KQEB_WQEAU__crt_locale_pointers@@QEAD@Z 0000000180016ac0 f i libucrtd:output.obj
 0001:00015b40       ??0?$output_processor@DV?$string_output_adapter@D@__crt_stdio_output@@V?$format_validation_base@DV?$string_output_adapter@D@__crt_stdio_output@@@2@@__crt_stdio_output@@QEAA@AEBV?$string_output_adapter@D@1@_KQEBDQEAU__crt_locale_pointers@@QEAD@Z 0000000180016b40 f i libucrtd:output.obj
 0001:00015ba0       ??0?$output_processor@_WV?$string_output_adapter@_W@__crt_stdio_output@@V?$format_validation_base@_WV?$string_output_adapter@_W@__crt_stdio_output@@@2@@__crt_stdio_output@@QEAA@AEBV?$string_output_adapter@_W@1@_KQEB_WQEAU__crt_locale_pointers@@QEAD@Z 0000000180016ba0 f i libucrtd:output.obj
 0001:00015c00       ??0__crt_errno_guard@@QEAA@QEAH@Z 0000000180016c00 f i libucrtd:output.obj
 0001:00015c40       ??0formatting_buffer@__crt_stdio_output@@QEAA@XZ 0000000180016c40 f i libucrtd:output.obj
 0001:00015c80       ??1?$common_data@_W@__crt_stdio_output@@QEAA@XZ 0000000180016c80 f i libucrtd:output.obj
 0001:00015c80       ??1?$common_data@D@__crt_stdio_output@@QEAA@XZ 0000000180016c80 f i libucrtd:output.obj
 0001:00015ca0       ??1?$format_validation_base@_WV?$string_output_adapter@_W@__crt_stdio_output@@@__crt_stdio_output@@QEAA@XZ 0000000180016ca0 f i libucrtd:output.obj
 0001:00015ca0       ??1?$format_validation_base@DV?$string_output_adapter@D@__crt_stdio_output@@@__crt_stdio_output@@QEAA@XZ 0000000180016ca0 f i libucrtd:output.obj
 0001:00015cc0       ??1?$output_adapter_data@_WV?$string_output_adapter@_W@__crt_stdio_output@@@__crt_stdio_output@@QEAA@XZ 0000000180016cc0 f i libucrtd:output.obj
 0001:00015cc0       ??1?$output_adapter_data@DV?$string_output_adapter@D@__crt_stdio_output@@@__crt_stdio_output@@QEAA@XZ 0000000180016cc0 f i libucrtd:output.obj
 0001:00015ce0       ??1?$output_processor@DV?$string_output_adapter@D@__crt_stdio_output@@V?$format_validation_base@DV?$string_output_adapter@D@__crt_stdio_output@@@2@@__crt_stdio_output@@QEAA@XZ 0000000180016ce0 f i libucrtd:output.obj
 0001:00015ce0       ??1?$output_processor@_WV?$string_output_adapter@_W@__crt_stdio_output@@V?$format_validation_base@_WV?$string_output_adapter@_W@__crt_stdio_output@@@2@@__crt_stdio_output@@QEAA@XZ 0000000180016ce0 f i libucrtd:output.obj
 0001:00015d00       ??1?$standard_base@_WV?$string_output_adapter@_W@__crt_stdio_output@@@__crt_stdio_output@@QEAA@XZ 0000000180016d00 f i libucrtd:output.obj
 0001:00015d00       ??1?$standard_base@DV?$string_output_adapter@D@__crt_stdio_output@@@__crt_stdio_output@@QEAA@XZ 0000000180016d00 f i libucrtd:output.obj
 0001:00015d20       ??1__crt_errno_guard@@QEAA@XZ 0000000180016d20 f i libucrtd:output.obj
 0001:00015d50       ??1formatting_buffer@__crt_stdio_output@@QEAA@XZ 0000000180016d50 f i libucrtd:output.obj
 0001:00015d80       ??4?$__crt_unique_heap_ptr@DU__crt_internal_free_policy@@@@QEAAAEAV0@$$QEAV0@@Z 0000000180016d80 f i libucrtd:output.obj
 0001:00015dc0       ?get@?$__crt_unique_heap_ptr@DU__crt_public_free_policy@@@@QEBAPEADXZ 0000000180016dc0 f i libvcruntimed:std_exception.obj
 0001:00015dc0       ?get@?$__crt_unique_handle_t@U__crt_handle_traits@@@@QEBAPEAXXZ 0000000180016dc0 f i libucrtd:crtmbox.obj
 0001:00015dc0       ?public_stream@__crt_stdio_stream@@QEBAPEAU_iobuf@@XZ 0000000180016dc0 f i libucrtd:output.obj
 0001:00015dc0       ?get@?$__crt_unique_heap_ptr@U__acrt_ptd@@U__crt_internal_free_policy@@@@QEBAPEAU__acrt_ptd@@XZ 0000000180016dc0 f i libucrtd:per_thread_data.obj
 0001:00015dc0       ?get@?$__crt_unique_heap_ptr@DU__crt_internal_free_policy@@@@QEBAPEADXZ 0000000180016dc0 f i libvcruntimed:std_type_info.obj
 0001:00015dc0       ?save_state@?$c_string_character_source@D@__crt_strtox@@QEBAPEBDXZ 0000000180016dc0 f i libucrtd:atox.obj
 0001:00015dc0       ?get@?$__crt_unique_handle_t@U__crt_hmodule_traits@@@@QEBAPEAUHINSTANCE__@@XZ 0000000180016dc0 f i libucrtd:exit.obj
 0001:00015dc0       ??C__crt_stdio_stream@@QEBAPEAU__crt_stdio_stream_data@@XZ 0000000180016dc0 f i libucrtd:output.obj
 0001:00015dc0       ?get@?$__crt_scoped_stack_ptr@_W@@QEBAPEA_WXZ 0000000180016dc0 f i libucrtd:getstringtypea.obj
 0001:00015dc0       ?save_state@?$c_string_character_source@_W@__crt_strtox@@QEBAPEB_WXZ 0000000180016dc0 f i libucrtd:atox.obj
 0001:00015dc0       ?get@?$__crt_unique_heap_ptr@U__vcrt_ptd@@U__crt_internal_free_policy@@@@QEBAPEAU__vcrt_ptd@@XZ 0000000180016dc0 f i libvcruntimed:per_thread_data.obj
 0001:00015dc0       ?get@?$__crt_unique_heap_ptr@U__crt_lowio_handle_data@@U__crt_internal_free_policy@@@@QEBAPEAU__crt_lowio_handle_data@@XZ 0000000180016dc0 f i libucrtd:osfinfo.obj
 0001:00015dc0       ?get@?$__crt_unique_heap_ptr@U__crt_multibyte_data@@U__crt_internal_free_policy@@@@QEBAPEAU__crt_multibyte_data@@XZ 0000000180016dc0 f i libucrtd:mbctype.obj
 0001:00015dd0       ?adjust_hexit@?$output_processor@DV?$string_output_adapter@D@__crt_stdio_output@@V?$format_validation_base@DV?$string_output_adapter@D@__crt_stdio_output@@@2@@__crt_stdio_output@@CADH_N@Z 0000000180016dd0 f i libucrtd:output.obj
 0001:00015dd0       ?adjust_hexit@?$output_processor@_WV?$string_output_adapter@_W@__crt_stdio_output@@V?$format_validation_base@_WV?$string_output_adapter@_W@__crt_stdio_output@@@2@@__crt_stdio_output@@CADH_N@Z 0000000180016dd0 f i libucrtd:output.obj
 0001:00015e20       ?advance_to_next_pass@?$standard_base@DV?$string_output_adapter@D@__crt_stdio_output@@@__crt_stdio_output@@IEAA_NXZ 0000000180016e20 f i libucrtd:output.obj
 0001:00015e20       ?advance_to_next_pass@?$standard_base@_WV?$string_output_adapter@_W@__crt_stdio_output@@@__crt_stdio_output@@IEAA_NXZ 0000000180016e20 f i libucrtd:output.obj
 0001:00015e70       ?crop_zeroes@__crt_stdio_output@@YAXPEADQEAU__crt_locale_pointers@@@Z 0000000180016e70 f i libucrtd:output.obj
 0001:00015fb0       ?find_next_state@?$output_processor@DV?$string_output_adapter@D@__crt_stdio_output@@V?$format_validation_base@DV?$string_output_adapter@D@__crt_stdio_output@@@2@@__crt_stdio_output@@AEBA?AW4state@2@DW432@@Z 0000000180016fb0 f i libucrtd:output.obj
 0001:00016050       ?find_next_state@?$output_processor@_WV?$string_output_adapter@_W@__crt_stdio_output@@V?$format_validation_base@_WV?$string_output_adapter@_W@__crt_stdio_output@@@2@@__crt_stdio_output@@AEBA?AW4state@2@_WW432@@Z 0000000180017050 f i libucrtd:output.obj
 0001:000160f0       ?force_decimal_point@__crt_stdio_output@@YAXPEADQEAU__crt_locale_pointers@@@Z 00000001800170f0 f i libucrtd:output.obj
 0001:000161d0       ?get_flags@__crt_stdio_stream@@QEBAJXZ 00000001800171d0 f i libucrtd:output.obj
 0001:00016200       ?has_flag@?$output_processor@_WV?$string_output_adapter@_W@__crt_stdio_output@@V?$format_validation_base@_WV?$string_output_adapter@_W@__crt_stdio_output@@@2@@__crt_stdio_output@@AEBA_NI@Z 0000000180017200 f i libucrtd:output.obj
 0001:00016200       ?has_flag@?$output_processor@DV?$string_output_adapter@D@__crt_stdio_output@@V?$format_validation_base@DV?$string_output_adapter@D@__crt_stdio_output@@@2@@__crt_stdio_output@@AEBA_NI@Z 0000000180017200 f i libucrtd:output.obj
 0001:00016240       ?is_string_backed@__crt_stdio_stream@@QEBA_NXZ 0000000180017240 f i libucrtd:output.obj
 0001:00016280       ?narrow_null_string@?$output_processor@DV?$string_output_adapter@D@__crt_stdio_output@@V?$format_validation_base@DV?$string_output_adapter@D@__crt_stdio_output@@@2@@__crt_stdio_output@@CAPEADXZ 0000000180017280 f i libucrtd:output.obj
 0001:00016280       ?narrow_null_string@?$output_processor@_WV?$string_output_adapter@_W@__crt_stdio_output@@V?$format_validation_base@_WV?$string_output_adapter@_W@__crt_stdio_output@@@2@@__crt_stdio_output@@CAPEADXZ 0000000180017280 f i libucrtd:output.obj
 0001:00016290       ?parse_int_from_format_string@?$output_processor@DV?$string_output_adapter@D@__crt_stdio_output@@V?$format_validation_base@DV?$string_output_adapter@D@__crt_stdio_output@@@2@@__crt_stdio_output@@AEAA_NQEAH@Z 0000000180017290 f i libucrtd:output.obj
 0001:00016370       ?parse_int_from_format_string@?$output_processor@_WV?$string_output_adapter@_W@__crt_stdio_output@@V?$format_validation_base@_WV?$string_output_adapter@_W@__crt_stdio_output@@@2@@__crt_stdio_output@@AEAA_NQEAH@Z 0000000180017370 f i libucrtd:output.obj
 0001:00016450       ?process@?$output_processor@DV?$string_output_adapter@D@__crt_stdio_output@@V?$format_validation_base@DV?$string_output_adapter@D@__crt_stdio_output@@@2@@__crt_stdio_output@@QEAAHXZ 0000000180017450 f i libucrtd:output.obj
 0001:000167b0       ?process@?$output_processor@_WV?$string_output_adapter@_W@__crt_stdio_output@@V?$format_validation_base@_WV?$string_output_adapter@_W@__crt_stdio_output@@@2@@__crt_stdio_output@@QEAAHXZ 00000001800177b0 f i libucrtd:output.obj
 0001:00016b10       ?set_flag@?$output_processor@_WV?$string_output_adapter@_W@__crt_stdio_output@@V?$format_validation_base@_WV?$string_output_adapter@_W@__crt_stdio_output@@@2@@__crt_stdio_output@@AEAAXI@Z 0000000180017b10 f i libucrtd:output.obj
 0001:00016b10       ?set_flag@?$output_processor@DV?$string_output_adapter@D@__crt_stdio_output@@V?$format_validation_base@DV?$string_output_adapter@D@__crt_stdio_output@@@2@@__crt_stdio_output@@AEAAXI@Z 0000000180017b10 f i libucrtd:output.obj
 0001:00016b30       ?should_skip_normal_state_processing@?$standard_base@_WV?$string_output_adapter@_W@__crt_stdio_output@@@__crt_stdio_output@@IEAA_NXZ 0000000180017b30 f i libucrtd:output.obj
 0001:00016b30       ?should_skip_type_state_output@?$standard_base@_WV?$string_output_adapter@_W@__crt_stdio_output@@@__crt_stdio_output@@IEBA_NXZ 0000000180017b30 f i libucrtd:output.obj
 0001:00016b30       ?should_skip_type_state_output@?$standard_base@DV?$string_output_adapter@D@__crt_stdio_output@@@__crt_stdio_output@@IEBA_NXZ 0000000180017b30 f i libucrtd:output.obj
 0001:00016b30       ?should_skip_normal_state_processing@?$standard_base@DV?$string_output_adapter@D@__crt_stdio_output@@@__crt_stdio_output@@IEAA_NXZ 0000000180017b30 f i libucrtd:output.obj
 0001:00016b40       ?state_case_dot@?$output_processor@DV?$string_output_adapter@D@__crt_stdio_output@@V?$format_validation_base@DV?$string_output_adapter@D@__crt_stdio_output@@@2@@__crt_stdio_output@@AEAA_NXZ 0000000180017b40 f i libucrtd:output.obj
 0001:00016b40       ?state_case_dot@?$output_processor@_WV?$string_output_adapter@_W@__crt_stdio_output@@V?$format_validation_base@_WV?$string_output_adapter@_W@__crt_stdio_output@@@2@@__crt_stdio_output@@AEAA_NXZ 0000000180017b40 f i libucrtd:output.obj
 0001:00016b60       ?state_case_flag@?$output_processor@DV?$string_output_adapter@D@__crt_stdio_output@@V?$format_validation_base@DV?$string_output_adapter@D@__crt_stdio_output@@@2@@__crt_stdio_output@@AEAA_NXZ 0000000180017b60 f i libucrtd:output.obj
 0001:00016c00       ?state_case_flag@?$output_processor@_WV?$string_output_adapter@_W@__crt_stdio_output@@V?$format_validation_base@_WV?$string_output_adapter@_W@__crt_stdio_output@@@2@@__crt_stdio_output@@AEAA_NXZ 0000000180017c00 f i libucrtd:output.obj
 0001:00016ca0       ?state_case_normal@?$output_processor@DV?$string_output_adapter@D@__crt_stdio_output@@V?$format_validation_base@DV?$string_output_adapter@D@__crt_stdio_output@@@2@@__crt_stdio_output@@AEAA_NXZ 0000000180017ca0 f i libucrtd:output.obj
 0001:00016d80       ?state_case_normal@?$output_processor@_WV?$string_output_adapter@_W@__crt_stdio_output@@V?$format_validation_base@_WV?$string_output_adapter@_W@__crt_stdio_output@@@2@@__crt_stdio_output@@AEAA_NXZ 0000000180017d80 f i libucrtd:output.obj
 0001:00016e60       ?state_case_normal_common@?$output_processor@DV?$string_output_adapter@D@__crt_stdio_output@@V?$format_validation_base@DV?$string_output_adapter@D@__crt_stdio_output@@@2@@__crt_stdio_output@@AEAA_NXZ 0000000180017e60 f i libucrtd:output.obj
 0001:00016eb0       ?state_case_normal_common@?$output_processor@_WV?$string_output_adapter@_W@__crt_stdio_output@@V?$format_validation_base@_WV?$string_output_adapter@_W@__crt_stdio_output@@@2@@__crt_stdio_output@@AEAA_NXZ 0000000180017eb0 f i libucrtd:output.obj
 0001:00016f00       ?state_case_normal_tchar@?$output_processor@DV?$string_output_adapter@D@__crt_stdio_output@@V?$format_validation_base@DV?$string_output_adapter@D@__crt_stdio_output@@@2@@__crt_stdio_output@@AEAA_ND@Z 0000000180017f00 f i libucrtd:output.obj
 0001:00017040       ?state_case_normal_tchar@?$output_processor@_WV?$string_output_adapter@_W@__crt_stdio_output@@V?$format_validation_base@_WV?$string_output_adapter@_W@__crt_stdio_output@@@2@@__crt_stdio_output@@AEAA_N_W@Z 0000000180018040 f i libucrtd:output.obj
 0001:00017060       ?state_case_percent@?$output_processor@_WV?$string_output_adapter@_W@__crt_stdio_output@@V?$format_validation_base@_WV?$string_output_adapter@_W@__crt_stdio_output@@@2@@__crt_stdio_output@@AEAA_NXZ 0000000180018060 f i libucrtd:output.obj
 0001:00017060       ?state_case_percent@?$output_processor@DV?$string_output_adapter@D@__crt_stdio_output@@V?$format_validation_base@DV?$string_output_adapter@D@__crt_stdio_output@@@2@@__crt_stdio_output@@AEAA_NXZ 0000000180018060 f i libucrtd:output.obj
 0001:000170b0       ?state_case_precision@?$output_processor@DV?$string_output_adapter@D@__crt_stdio_output@@V?$format_validation_base@DV?$string_output_adapter@D@__crt_stdio_output@@@2@@__crt_stdio_output@@AEAA_NXZ 00000001800180b0 f i libucrtd:output.obj
 0001:00017130       ?state_case_precision@?$output_processor@_WV?$string_output_adapter@_W@__crt_stdio_output@@V?$format_validation_base@_WV?$string_output_adapter@_W@__crt_stdio_output@@@2@@__crt_stdio_output@@AEAA_NXZ 0000000180018130 f i libucrtd:output.obj
 0001:000171b0       ?state_case_size@?$output_processor@DV?$string_output_adapter@D@__crt_stdio_output@@V?$format_validation_base@DV?$string_output_adapter@D@__crt_stdio_output@@@2@@__crt_stdio_output@@AEAA_NXZ 00000001800181b0 f i libucrtd:output.obj
 0001:00017630       ?state_case_size@?$output_processor@_WV?$string_output_adapter@_W@__crt_stdio_output@@V?$format_validation_base@_WV?$string_output_adapter@_W@__crt_stdio_output@@@2@@__crt_stdio_output@@AEAA_NXZ 0000000180018630 f i libucrtd:output.obj
 0001:00017ab0       ?state_case_type@?$output_processor@DV?$string_output_adapter@D@__crt_stdio_output@@V?$format_validation_base@DV?$string_output_adapter@D@__crt_stdio_output@@@2@@__crt_stdio_output@@AEAA_NXZ 0000000180018ab0 f i libucrtd:output.obj
 0001:00017f40       ?state_case_type@?$output_processor@_WV?$string_output_adapter@_W@__crt_stdio_output@@V?$format_validation_base@_WV?$string_output_adapter@_W@__crt_stdio_output@@@2@@__crt_stdio_output@@AEAA_NXZ 0000000180018f40 f i libucrtd:output.obj
 0001:00018410       ?state_case_width@?$output_processor@DV?$string_output_adapter@D@__crt_stdio_output@@V?$format_validation_base@DV?$string_output_adapter@D@__crt_stdio_output@@@2@@__crt_stdio_output@@AEAA_NXZ 0000000180019410 f i libucrtd:output.obj
 0001:000184a0       ?state_case_width@?$output_processor@_WV?$string_output_adapter@_W@__crt_stdio_output@@V?$format_validation_base@_WV?$string_output_adapter@_W@__crt_stdio_output@@@2@@__crt_stdio_output@@AEAA_NXZ 00000001800194a0 f i libucrtd:output.obj
 0001:00018530       ?state_count@?$format_validation_base@_WV?$string_output_adapter@_W@__crt_stdio_output@@@__crt_stdio_output@@KAIXZ 0000000180019530 f i libucrtd:output.obj
 0001:00018530       ?state_count@?$format_validation_base@DV?$string_output_adapter@D@__crt_stdio_output@@@__crt_stdio_output@@KAIXZ 0000000180019530 f i libucrtd:output.obj
 0001:00018540       ?state_transition_table@?$format_validation_base@DV?$string_output_adapter@D@__crt_stdio_output@@@__crt_stdio_output@@KAPEBEXZ 0000000180019540 f i libucrtd:output.obj
 0001:00018540       ?state_transition_table@?$format_validation_base@_WV?$string_output_adapter@_W@__crt_stdio_output@@@__crt_stdio_output@@KAPEBEXZ 0000000180019540 f i libucrtd:output.obj
 0001:00018550       ?to_integer_size@__crt_stdio_output@@YA_KW4length_modifier@1@@Z 0000000180019550 f i libucrtd:output.obj
 0001:00018600       ?type_case_X@?$output_processor@DV?$string_output_adapter@D@__crt_stdio_output@@V?$format_validation_base@DV?$string_output_adapter@D@__crt_stdio_output@@@2@@__crt_stdio_output@@AEAA_NXZ 0000000180019600 f i libucrtd:output.obj
 0001:00018620       ?type_case_X@?$output_processor@_WV?$string_output_adapter@_W@__crt_stdio_output@@V?$format_validation_base@_WV?$string_output_adapter@_W@__crt_stdio_output@@@2@@__crt_stdio_output@@AEAA_NXZ 0000000180019620 f i libucrtd:output.obj
 0001:00018640       ?type_case_Z@?$output_processor@DV?$string_output_adapter@D@__crt_stdio_output@@V?$format_validation_base@DV?$string_output_adapter@D@__crt_stdio_output@@@2@@__crt_stdio_output@@AEAA_NXZ 0000000180019640 f i libucrtd:output.obj
 0001:00018760       ?type_case_Z@?$output_processor@_WV?$string_output_adapter@_W@__crt_stdio_output@@V?$format_validation_base@_WV?$string_output_adapter@_W@__crt_stdio_output@@@2@@__crt_stdio_output@@AEAA_NXZ 0000000180019760 f i libucrtd:output.obj
 0001:00018880       ?type_case_a@?$output_processor@DV?$string_output_adapter@D@__crt_stdio_output@@V?$format_validation_base@DV?$string_output_adapter@D@__crt_stdio_output@@@2@@__crt_stdio_output@@AEAA_NXZ 0000000180019880 f i libucrtd:output.obj
 0001:00018c30       ?type_case_a@?$output_processor@_WV?$string_output_adapter@_W@__crt_stdio_output@@V?$format_validation_base@_WV?$string_output_adapter@_W@__crt_stdio_output@@@2@@__crt_stdio_output@@AEAA_NXZ 0000000180019c30 f i libucrtd:output.obj
 0001:00018fe0       ?type_case_c@?$output_processor@DV?$string_output_adapter@D@__crt_stdio_output@@V?$format_validation_base@DV?$string_output_adapter@D@__crt_stdio_output@@@2@@__crt_stdio_output@@AEAA_NXZ 0000000180019fe0 f i libucrtd:output.obj
 0001:00019000       ?type_case_c@?$output_processor@_WV?$string_output_adapter@_W@__crt_stdio_output@@V?$format_validation_base@_WV?$string_output_adapter@_W@__crt_stdio_output@@@2@@__crt_stdio_output@@AEAA_NXZ 000000018001a000 f i libucrtd:output.obj
 0001:00019020       ?type_case_c_tchar@?$output_processor@DV?$string_output_adapter@D@__crt_stdio_output@@V?$format_validation_base@DV?$string_output_adapter@D@__crt_stdio_output@@@2@@__crt_stdio_output@@AEAA_ND@Z 000000018001a020 f i libucrtd:output.obj
 0001:00019170       ?type_case_c_tchar@?$output_processor@_WV?$string_output_adapter@_W@__crt_stdio_output@@V?$format_validation_base@_WV?$string_output_adapter@_W@__crt_stdio_output@@@2@@__crt_stdio_output@@AEAA_N_W@Z 000000018001a170 f i libucrtd:output.obj
 0001:000192a0       ?type_case_d@?$output_processor@DV?$string_output_adapter@D@__crt_stdio_output@@V?$format_validation_base@DV?$string_output_adapter@D@__crt_stdio_output@@@2@@__crt_stdio_output@@AEAA_NXZ 000000018001a2a0 f i libucrtd:output.obj
 0001:000192d0       ?type_case_d@?$output_processor@_WV?$string_output_adapter@_W@__crt_stdio_output@@V?$format_validation_base@_WV?$string_output_adapter@_W@__crt_stdio_output@@@2@@__crt_stdio_output@@AEAA_NXZ 000000018001a2d0 f i libucrtd:output.obj
 0001:00019300       ?type_case_integer@?$output_processor@DV?$string_output_adapter@D@__crt_stdio_output@@V?$format_validation_base@DV?$string_output_adapter@D@__crt_stdio_output@@@2@@__crt_stdio_output@@AEAA_NI_N@Z 000000018001a300 f i libucrtd:output.obj
 0001:00019730       ?type_case_integer@?$output_processor@_WV?$string_output_adapter@_W@__crt_stdio_output@@V?$format_validation_base@_WV?$string_output_adapter@_W@__crt_stdio_output@@@2@@__crt_stdio_output@@AEAA_NI_N@Z 000000018001a730 f i libucrtd:output.obj
 0001:00019b60       ?type_case_n@?$output_processor@DV?$string_output_adapter@D@__crt_stdio_output@@V?$format_validation_base@DV?$string_output_adapter@D@__crt_stdio_output@@@2@@__crt_stdio_output@@AEAA_NXZ 000000018001ab60 f i libucrtd:output.obj
 0001:00019da0       ?type_case_n@?$output_processor@_WV?$string_output_adapter@_W@__crt_stdio_output@@V?$format_validation_base@_WV?$string_output_adapter@_W@__crt_stdio_output@@@2@@__crt_stdio_output@@AEAA_NXZ 000000018001ada0 f i libucrtd:output.obj
 0001:00019fe0       ?type_case_o@?$output_processor@DV?$string_output_adapter@D@__crt_stdio_output@@V?$format_validation_base@DV?$string_output_adapter@D@__crt_stdio_output@@@2@@__crt_stdio_output@@AEAA_NXZ 000000018001afe0 f i libucrtd:output.obj
 0001:0001a030       ?type_case_o@?$output_processor@_WV?$string_output_adapter@_W@__crt_stdio_output@@V?$format_validation_base@_WV?$string_output_adapter@_W@__crt_stdio_output@@@2@@__crt_stdio_output@@AEAA_NXZ 000000018001b030 f i libucrtd:output.obj
 0001:0001a080       ?type_case_p@?$output_processor@DV?$string_output_adapter@D@__crt_stdio_output@@V?$format_validation_base@DV?$string_output_adapter@D@__crt_stdio_output@@@2@@__crt_stdio_output@@AEAA_NXZ 000000018001b080 f i libucrtd:output.obj
 0001:0001a0c0       ?type_case_p@?$output_processor@_WV?$string_output_adapter@_W@__crt_stdio_output@@V?$format_validation_base@_WV?$string_output_adapter@_W@__crt_stdio_output@@@2@@__crt_stdio_output@@AEAA_NXZ 000000018001b0c0 f i libucrtd:output.obj
 0001:0001a100       ?type_case_s@?$output_processor@DV?$string_output_adapter@D@__crt_stdio_output@@V?$format_validation_base@DV?$string_output_adapter@D@__crt_stdio_output@@@2@@__crt_stdio_output@@AEAA_NXZ 000000018001b100 f i libucrtd:output.obj
 0001:0001a220       ?type_case_s@?$output_processor@_WV?$string_output_adapter@_W@__crt_stdio_output@@V?$format_validation_base@_WV?$string_output_adapter@_W@__crt_stdio_output@@@2@@__crt_stdio_output@@AEAA_NXZ 000000018001b220 f i libucrtd:output.obj
 0001:0001a340       ?type_case_s_compute_narrow_string_length@?$output_processor@DV?$string_output_adapter@D@__crt_stdio_output@@V?$format_validation_base@DV?$string_output_adapter@D@__crt_stdio_output@@@2@@__crt_stdio_output@@AEBAHHD@Z 000000018001b340 f i libucrtd:output.obj
 0001:0001a370       ?type_case_s_compute_narrow_string_length@?$output_processor@_WV?$string_output_adapter@_W@__crt_stdio_output@@V?$format_validation_base@_WV?$string_output_adapter@_W@__crt_stdio_output@@@2@@__crt_stdio_output@@AEBAHH_W@Z 000000018001b370 f i libucrtd:output.obj
 0001:0001a400       ?type_case_u@?$output_processor@DV?$string_output_adapter@D@__crt_stdio_output@@V?$format_validation_base@DV?$string_output_adapter@D@__crt_stdio_output@@@2@@__crt_stdio_output@@AEAA_NXZ 000000018001b400 f i libucrtd:output.obj
 0001:0001a420       ?type_case_u@?$output_processor@_WV?$string_output_adapter@_W@__crt_stdio_output@@V?$format_validation_base@_WV?$string_output_adapter@_W@__crt_stdio_output@@@2@@__crt_stdio_output@@AEAA_NXZ 000000018001b420 f i libucrtd:output.obj
 0001:0001a440       ?type_case_x@?$output_processor@DV?$string_output_adapter@D@__crt_stdio_output@@V?$format_validation_base@DV?$string_output_adapter@D@__crt_stdio_output@@@2@@__crt_stdio_output@@AEAA_NXZ 000000018001b440 f i libucrtd:output.obj
 0001:0001a460       ?type_case_x@?$output_processor@_WV?$string_output_adapter@_W@__crt_stdio_output@@V?$format_validation_base@_WV?$string_output_adapter@_W@__crt_stdio_output@@@2@@__crt_stdio_output@@AEAA_NXZ 000000018001b460 f i libucrtd:output.obj
 0001:0001a480       ?unset_flag@?$output_processor@DV?$string_output_adapter@D@__crt_stdio_output@@V?$format_validation_base@DV?$string_output_adapter@D@__crt_stdio_output@@@2@@__crt_stdio_output@@AEAAXI@Z 000000018001b480 f i libucrtd:output.obj
 0001:0001a480       ?unset_flag@?$output_processor@_WV?$string_output_adapter@_W@__crt_stdio_output@@V?$format_validation_base@_WV?$string_output_adapter@_W@__crt_stdio_output@@@2@@__crt_stdio_output@@AEAAXI@Z 000000018001b480 f i libucrtd:output.obj
 0001:0001a4b0       ?update_field_width@?$standard_base@DV?$string_output_adapter@D@__crt_stdio_output@@@__crt_stdio_output@@IEAA_NXZ 000000018001b4b0 f i libucrtd:output.obj
 0001:0001a4b0       ?update_field_width@?$standard_base@_WV?$string_output_adapter@_W@__crt_stdio_output@@@__crt_stdio_output@@IEAA_NXZ 000000018001b4b0 f i libucrtd:output.obj
 0001:0001a4e0       ?update_precision@?$standard_base@DV?$string_output_adapter@D@__crt_stdio_output@@@__crt_stdio_output@@IEAA_NXZ 000000018001b4e0 f i libucrtd:output.obj
 0001:0001a4e0       ?update_precision@?$standard_base@_WV?$string_output_adapter@_W@__crt_stdio_output@@@__crt_stdio_output@@IEAA_NXZ 000000018001b4e0 f i libucrtd:output.obj
 0001:0001a510       ?validate@?$string_output_adapter@D@__crt_stdio_output@@QEBA_NXZ 000000018001b510 f i libucrtd:output.obj
 0001:0001a5d0       ?validate@?$string_output_adapter@_W@__crt_stdio_output@@QEBA_NXZ 000000018001b5d0 f i libucrtd:output.obj
 0001:0001a690       ?validate_and_update_state_at_end_of_format_string@?$format_validation_base@DV?$string_output_adapter@D@__crt_stdio_output@@@__crt_stdio_output@@IEBA_NXZ 000000018001b690 f i libucrtd:output.obj
 0001:0001a750       ?validate_and_update_state_at_end_of_format_string@?$format_validation_base@_WV?$string_output_adapter@_W@__crt_stdio_output@@@__crt_stdio_output@@IEBA_NXZ 000000018001b750 f i libucrtd:output.obj
 0001:0001a810       ?validate_and_update_state_at_beginning_of_format_character@?$standard_base@DV?$string_output_adapter@D@__crt_stdio_output@@@__crt_stdio_output@@IEAA_NXZ 000000018001b810 f i libucrtd:output.obj
 0001:0001a810       ?validate_state_for_type_case_a@?$standard_base@_WV?$string_output_adapter@_W@__crt_stdio_output@@@__crt_stdio_output@@IEBA_NXZ 000000018001b810 f i libucrtd:output.obj
 0001:0001a810       ?validate_and_update_state_at_beginning_of_format_character@?$standard_base@_WV?$string_output_adapter@_W@__crt_stdio_output@@@__crt_stdio_output@@IEAA_NXZ 000000018001b810 f i libucrtd:output.obj
 0001:0001a810       ?should_format@?$standard_base@_WV?$string_output_adapter@_W@__crt_stdio_output@@@__crt_stdio_output@@IEAA_NXZ 000000018001b810 f i libucrtd:output.obj
 0001:0001a810       ?validate_state_for_type_case_a@?$standard_base@DV?$string_output_adapter@D@__crt_stdio_output@@@__crt_stdio_output@@IEBA_NXZ 000000018001b810 f i libucrtd:output.obj
 0001:0001a810       ?should_format@?$standard_base@DV?$string_output_adapter@D@__crt_stdio_output@@@__crt_stdio_output@@IEAA_NXZ 000000018001b810 f i libucrtd:output.obj
 0001:0001a820       ?wide_null_string@?$output_processor@_WV?$string_output_adapter@_W@__crt_stdio_output@@V?$format_validation_base@_WV?$string_output_adapter@_W@__crt_stdio_output@@@2@@__crt_stdio_output@@CAPEA_WXZ 000000018001b820 f i libucrtd:output.obj
 0001:0001a820       ?wide_null_string@?$output_processor@DV?$string_output_adapter@D@__crt_stdio_output@@V?$format_validation_base@DV?$string_output_adapter@D@__crt_stdio_output@@@2@@__crt_stdio_output@@CAPEA_WXZ 000000018001b820 f i libucrtd:output.obj
 0001:0001a830       ?write_character@?$string_output_adapter@D@__crt_stdio_output@@QEBA_NDQEAH@Z 000000018001b830 f i libucrtd:output.obj
 0001:0001a8f0       ?write_character@?$string_output_adapter@_W@__crt_stdio_output@@QEBA_N_WQEAH@Z 000000018001b8f0 f i libucrtd:output.obj
 0001:0001a9b0       ?write_stored_string_tchar@?$output_processor@DV?$string_output_adapter@D@__crt_stdio_output@@V?$format_validation_base@DV?$string_output_adapter@D@__crt_stdio_output@@@2@@__crt_stdio_output@@AEAA_ND@Z 000000018001b9b0 f i libucrtd:output.obj
 0001:0001ab10       ?write_stored_string_tchar@?$output_processor@_WV?$string_output_adapter@_W@__crt_stdio_output@@V?$format_validation_base@_WV?$string_output_adapter@_W@__crt_stdio_output@@@2@@__crt_stdio_output@@AEAA_N_W@Z 000000018001bb10 f i libucrtd:output.obj
 0001:0001ac50       ?write_string@?$string_output_adapter@D@__crt_stdio_output@@QEBAXQEBDHQEAH1@Z 000000018001bc50 f i libucrtd:output.obj
 0001:0001add0       ?write_string@?$string_output_adapter@_W@__crt_stdio_output@@QEBAXQEB_WHQEAH1@Z 000000018001bdd0 f i libucrtd:output.obj
 0001:0001af60       __acrt_isleadbyte_l_noupdate 000000018001bf60 f i libucrtd:output.obj
 0001:0001af90       __stdio_common_vsnprintf_s 000000018001bf90 f   libucrtd:output.obj
 0001:0001aff0       __stdio_common_vsnwprintf_s 000000018001bff0 f   libucrtd:output.obj
 0001:0001b050       __stdio_common_vsprintf_s  000000018001c050 f   libucrtd:output.obj
 0001:0001b0a0       ??$is_overflow_condition@K@__crt_strtox@@YA_NIK@Z 000000018001c0a0 f i libucrtd:atox.obj
 0001:0001b110       ??$parse_integer@KV?$c_string_character_source@D@__crt_strtox@@@__crt_strtox@@YAKQEAU__crt_locale_pointers@@V?$c_string_character_source@D@0@H_N@Z 000000018001c110 f i libucrtd:atox.obj
 0001:0001b5a0       ??$parse_integer@KV?$c_string_character_source@_W@__crt_strtox@@@__crt_strtox@@YAKQEAU__crt_locale_pointers@@V?$c_string_character_source@_W@0@H_N@Z 000000018001c5a0 f i libucrtd:atox.obj
 0001:0001ba50       ??0?$c_string_character_source@_W@__crt_strtox@@QEAA@QEB_WQEAPEB_W@Z 000000018001ca50 f i libucrtd:atox.obj
 0001:0001ba50       ??0?$c_string_character_source@D@__crt_strtox@@QEAA@QEBDQEAPEBD@Z 000000018001ca50 f i libucrtd:atox.obj
 0001:0001baa0       ??1?$c_string_character_source@_W@__crt_strtox@@QEAA@XZ 000000018001caa0 f i libucrtd:atox.obj
 0001:0001baa0       ??1?$c_string_character_source@D@__crt_strtox@@QEAA@XZ 000000018001caa0 f i libucrtd:atox.obj
 0001:0001bad0       ?get@?$c_string_character_source@D@__crt_strtox@@QEAADXZ 000000018001cad0 f i libucrtd:atox.obj
 0001:0001bb10       ?get@?$c_string_character_source@_W@__crt_strtox@@QEAA_WXZ 000000018001cb10 f i libucrtd:atox.obj
 0001:0001bb50       ?is_space@__crt_strtox@@YA_NDQEAU__crt_locale_pointers@@@Z 000000018001cb50 f i libucrtd:atox.obj
 0001:0001bba0       ?is_space@__crt_strtox@@YA_N_WPEAU__crt_locale_pointers@@@Z 000000018001cba0 f i libucrtd:atox.obj
 0001:0001bbe0       ?maximum_signed_value@__crt_strtox@@YAJK@Z 000000018001cbe0 f i libucrtd:atox.obj
 0001:0001bbf0       ?minimum_signed_value@__crt_strtox@@YAJK@Z 000000018001cbf0 f i libucrtd:atox.obj
 0001:0001bc00       ?parse_digit@__crt_strtox@@YAID@Z 000000018001cc00 f i libucrtd:atox.obj
 0001:0001bc70       ?parse_digit@__crt_strtox@@YAI_W@Z 000000018001cc70 f i libucrtd:atox.obj
 0001:0001bd00       ?restore_state@?$c_string_character_source@D@__crt_strtox@@QEAA_NQEBD@Z 000000018001cd00 f i libucrtd:atox.obj
 0001:0001bd00       ?restore_state@?$c_string_character_source@_W@__crt_strtox@@QEAA_NQEB_W@Z 000000018001cd00 f i libucrtd:atox.obj
 0001:0001bd20       ?unget@?$c_string_character_source@D@__crt_strtox@@QEAAXD@Z 000000018001cd20 f i libucrtd:atox.obj
 0001:0001be00       ?unget@?$c_string_character_source@_W@__crt_strtox@@QEAAX_W@Z 000000018001ce00 f i libucrtd:atox.obj
 0001:0001bee0       ?validate@?$c_string_character_source@D@__crt_strtox@@QEBA_NXZ 000000018001cee0 f i libucrtd:atox.obj
 0001:0001bfa0       ?validate@?$c_string_character_source@_W@__crt_strtox@@QEBA_NXZ 000000018001cfa0 f i libucrtd:atox.obj
 0001:0001c060       ?wide_character_to_digit@__crt_strtox@@YAH_W@Z 000000018001d060 f i libucrtd:atox.obj
 0001:0001c3d0       _fd_int                    000000018001d3d0 f   libucrtd:_test.obj
 0001:0001c7d0       _handle_error              000000018001d7d0 f   libucrtd:libm_error.obj
 0001:0001c960       _handle_errorf             000000018001d960 f   libucrtd:libm_error.obj
 0001:0001caf0       _handle_nan                000000018001daf0 f   libucrtd:libm_error.obj
 0001:0001cb40       _handle_nanf               000000018001db40 f   libucrtd:libm_error.obj
 0001:0001cb80       ??$?RV<lambda_5e887d1dcbef67a5eb4283622ba103bf>@@AEAV<lambda_4466841279450cc726390878d4a41900>@@V<lambda_341c25c0346d94847f1f3c463c57e077>@@@?$__crt_seh_guarded_call@X@@QEAAX$$QEAV<lambda_5e887d1dcbef67a5eb4283622ba103bf>@@AEAV<lambda_4466841279450cc726390878d4a41900>@@$$QEAV<lambda_341c25c0346d94847f1f3c463c57e077>@@@Z 000000018001db80 f i libucrtd:per_thread_data.obj
 0001:0001cbc0       ??$?RV<lambda_72d1df2b273a38828b1ce30cbf4cdab5>@@AEAV<lambda_876a65b173b8412d3a47c70a915b0cf4>@@V<lambda_41932305e351933ebe8f8be3ed8bb5dc>@@@?$__crt_seh_guarded_call@X@@QEAAX$$QEAV<lambda_72d1df2b273a38828b1ce30cbf4cdab5>@@AEAV<lambda_876a65b173b8412d3a47c70a915b0cf4>@@$$QEAV<lambda_41932305e351933ebe8f8be3ed8bb5dc>@@@Z 000000018001dbc0 f i libucrtd:per_thread_data.obj
 0001:0001cc00       ??$?RV<lambda_8773731b9ba2edf4362dda13ebc82854>@@AEAV<lambda_6ac21da2756cd333d25ba1adc9a0001e>@@V<lambda_2c95662d60720604e97e3009a1ee1859>@@@?$__crt_seh_guarded_call@X@@QEAAX$$QEAV<lambda_8773731b9ba2edf4362dda13ebc82854>@@AEAV<lambda_6ac21da2756cd333d25ba1adc9a0001e>@@$$QEAV<lambda_2c95662d60720604e97e3009a1ee1859>@@@Z 000000018001dc00 f i libucrtd:per_thread_data.obj
 0001:0001cc40       ??$?RV<lambda_fb3a7dec4e47f37f22dae91bb15c9095>@@AEAV<lambda_698284760c8add0bfb0756c19673e34b>@@V<lambda_dfb8eca1e75fef3034a8fb18dd509707>@@@?$__crt_seh_guarded_call@X@@QEAAX$$QEAV<lambda_fb3a7dec4e47f37f22dae91bb15c9095>@@AEAV<lambda_698284760c8add0bfb0756c19673e34b>@@$$QEAV<lambda_dfb8eca1e75fef3034a8fb18dd509707>@@@Z 000000018001dc40 f i libucrtd:per_thread_data.obj
 0001:0001cc80       ??$__acrt_lock_and_call@V<lambda_4466841279450cc726390878d4a41900>@@@@YAXW4__acrt_lock_id@@$$QEAV<lambda_4466841279450cc726390878d4a41900>@@@Z 000000018001dc80 f i libucrtd:per_thread_data.obj
 0001:0001ccf0       ??$__acrt_lock_and_call@V<lambda_698284760c8add0bfb0756c19673e34b>@@@@YAXW4__acrt_lock_id@@$$QEAV<lambda_698284760c8add0bfb0756c19673e34b>@@@Z 000000018001dcf0 f i libucrtd:per_thread_data.obj
 0001:0001cd60       ??$__acrt_lock_and_call@V<lambda_6ac21da2756cd333d25ba1adc9a0001e>@@@@YAXW4__acrt_lock_id@@$$QEAV<lambda_6ac21da2756cd333d25ba1adc9a0001e>@@@Z 000000018001dd60 f i libucrtd:per_thread_data.obj
 0001:0001cdd0       ??$__acrt_lock_and_call@V<lambda_876a65b173b8412d3a47c70a915b0cf4>@@@@YAXW4__acrt_lock_id@@$$QEAV<lambda_876a65b173b8412d3a47c70a915b0cf4>@@@Z 000000018001ddd0 f i libucrtd:per_thread_data.obj
 0001:0001ce90       ??0?$__crt_unique_heap_ptr@U__vcrt_ptd@@U__crt_internal_free_policy@@@@QEAA@QEAU__vcrt_ptd@@@Z 000000018001de90 f   libvcruntimed:per_thread_data.obj
 0001:0001ce90       ??0?$__crt_unique_heap_ptr@U__crt_lowio_handle_data@@U__crt_internal_free_policy@@@@QEAA@QEAU__crt_lowio_handle_data@@@Z 000000018001de90 f   libucrtd:osfinfo.obj
 0001:0001ce90       ??0?$__crt_unique_handle_t@U__crt_hmodule_traits@@@@QEAA@QEAUHINSTANCE__@@@Z 000000018001de90 f   libucrtd:exit.obj
 0001:0001ce90       ??0?$__crt_scoped_stack_ptr@_W@@QEAA@U?$__crt_scoped_stack_ptr_tag@_W@@@Z 000000018001de90 f   libucrtd:getstringtypea.obj
 0001:0001ce90       ??0__crt_stdio_stream@@QEAA@QEAU__crt_stdio_stream_data@@@Z 000000018001de90 f   libucrtd:fflush.obj
 0001:0001ce90       ??0__crt_stdio_stream@@QEAA@QEAU_iobuf@@@Z 000000018001de90 f   libucrtd:output.obj
 0001:0001ce90       ??0?$__crt_unique_heap_ptr@PEAU__crt_stdio_stream_data@@U__crt_internal_free_policy@@@@QEAA@QEAPEAU__crt_stdio_stream_data@@@Z 000000018001de90 f   libucrtd:_file.obj
 0001:0001ce90       ??0?$string_output_adapter@D@__crt_stdio_output@@QEAA@QEAU?$string_output_adapter_context@D@1@@Z 000000018001de90 f   libucrtd:output.obj
 0001:0001ce90       ??0?$__crt_unique_heap_ptr@DU__crt_internal_free_policy@@@@QEAA@QEAD@Z 000000018001de90 f   libvcruntimed:std_type_info.obj
 0001:0001ce90       ??0?$__crt_scoped_stack_ptr_tag@_W@@QEAA@QEA_W@Z 000000018001de90 f   libucrtd:getstringtypea.obj
 0001:0001ce90       ??0?$string_output_adapter@_W@__crt_stdio_output@@QEAA@QEAU?$string_output_adapter_context@_W@1@@Z 000000018001de90 f   libucrtd:output.obj
 0001:0001ce90       ??0?$__crt_unique_handle_t@U__crt_handle_traits@@@@QEAA@QEAX@Z 000000018001de90 f   libucrtd:crtmbox.obj
 0001:0001ce90       ??0?$__crt_unique_heap_ptr@U__crt_multibyte_data@@U__crt_internal_free_policy@@@@QEAA@QEAU__crt_multibyte_data@@@Z 000000018001de90 f   libucrtd:mbctype.obj
 0001:0001ce90       ??0?$__crt_unique_heap_ptr@P6AXXZU__crt_internal_free_policy@@@@QEAA@QEAP6AXXZ@Z 000000018001de90 f   libucrtd:onexit.obj
 0001:0001ce90       ??0?$__crt_unique_heap_ptr@DU__crt_public_free_policy@@@@QEAA@QEAD@Z 000000018001de90 f   libvcruntimed:std_exception.obj
 0001:0001ce90       ??0?$__crt_unique_heap_ptr@U__acrt_ptd@@U__crt_internal_free_policy@@@@QEAA@QEAU__acrt_ptd@@@Z 000000018001de90 f   libucrtd:per_thread_data.obj
 0001:0001ceb0       ??0__crt_scoped_get_last_error_reset@@QEAA@XZ 000000018001deb0 f i libucrtd:per_thread_data.obj
 0001:0001ced0       ??1?$__crt_unique_heap_ptr@U__crt_lowio_handle_data@@U__crt_internal_free_policy@@@@QEAA@XZ 000000018001ded0 f i libucrtd:osfinfo.obj
 0001:0001ced0       ??1?$__crt_unique_heap_ptr@P6AXXZU__crt_internal_free_policy@@@@QEAA@XZ 000000018001ded0 f i libucrtd:onexit.obj
 0001:0001ced0       ??1?$__crt_unique_heap_ptr@PEAU__crt_stdio_stream_data@@U__crt_internal_free_policy@@@@QEAA@XZ 000000018001ded0 f i libucrtd:_file.obj
 0001:0001ced0       ??1?$__crt_unique_heap_ptr@U__acrt_ptd@@U__crt_internal_free_policy@@@@QEAA@XZ 000000018001ded0 f i libucrtd:per_thread_data.obj
 0001:0001ced0       ??1?$__crt_unique_heap_ptr@U__crt_multibyte_data@@U__crt_internal_free_policy@@@@QEAA@XZ 000000018001ded0 f i libucrtd:mbctype.obj
 0001:0001cef0       ??1__crt_scoped_get_last_error_reset@@QEAA@XZ 000000018001def0 f i libucrtd:per_thread_data.obj
 0001:0001d140       ?dangerous_get_state_array@?$dual_state_global@PEAU__crt_locale_data@@@__crt_state_management@@QEAAPEAPEAU__crt_locale_data@@XZ 000000018001e140 f i libucrtd:per_thread_data.obj
 0001:0001d140       ?get_address_of@?$__crt_unique_handle_t@U__crt_hmodule_traits@@@@QEAAPEAPEAUHINSTANCE__@@XZ 000000018001e140 f i libucrtd:exit.obj
 0001:0001d460       ?release@?$__crt_unique_heap_ptr@P6AXXZU__crt_internal_free_policy@@@@QEAAXXZ 000000018001e460 f i libucrtd:onexit.obj
 0001:0001d460       ?release@?$__crt_unique_heap_ptr@PEAU__crt_stdio_stream_data@@U__crt_internal_free_policy@@@@QEAAXXZ 000000018001e460 f i libucrtd:_file.obj
 0001:0001d460       ?release@?$__crt_unique_heap_ptr@U__crt_lowio_handle_data@@U__crt_internal_free_policy@@@@QEAAXXZ 000000018001e460 f i libucrtd:osfinfo.obj
 0001:0001d460       ?release@?$__crt_unique_heap_ptr@U__crt_multibyte_data@@U__crt_internal_free_policy@@@@QEAAXXZ 000000018001e460 f i libucrtd:mbctype.obj
 0001:0001d460       ?release@?$__crt_unique_heap_ptr@U__acrt_ptd@@U__crt_internal_free_policy@@@@QEAAXXZ 000000018001e460 f i libucrtd:per_thread_data.obj
 0001:0001d5a0       ?value@?$dual_state_global@P6AHPEAU_exception@@@Z@__crt_state_management@@QEAAAEAP6AHPEAU_exception@@@ZXZ 000000018001e5a0 f i libucrtd:matherr.obj
 0001:0001d5a0       ?value@?$dual_state_global@P6AXPEB_W00I_K@Z@__crt_state_management@@QEAAAEAP6AXPEB_W00I_K@ZXZ 000000018001e5a0 f i libucrtd:invalid_parameter.obj
 0001:0001d5a0       ?value@?$dual_state_global@P6AH_K@Z@__crt_state_management@@QEAAAEAP6AH_K@ZXZ 000000018001e5a0 f i libucrtd:new_handler.obj
 0001:0001d5a0       ?value@?$dual_state_global@P6AXH@Z@__crt_state_management@@QEAAAEAP6AXH@ZXZ 000000018001e5a0 f i libucrtd:signal.obj
 0001:0001d5a0       ?value@?$dual_state_global@PEAU__crt_locale_data@@@__crt_state_management@@QEAAAEAPEAU__crt_locale_data@@XZ 000000018001e5a0 f i libucrtd:per_thread_data.obj
 0001:0001d5c0       __acrt_freeptd             000000018001e5c0 f   libucrtd:per_thread_data.obj
 0001:0001d600       __acrt_getptd              000000018001e600 f   libucrtd:per_thread_data.obj
 0001:0001d630       __acrt_getptd_noexit       000000018001e630 f   libucrtd:per_thread_data.obj
 0001:0001d640       __acrt_initialize_ptd      000000018001e640 f   libucrtd:per_thread_data.obj
 0001:0001d680       __acrt_uninitialize_ptd    000000018001e680 f   libucrtd:per_thread_data.obj
 0001:0001d6b0       __acrt_initialize_locks    000000018001e6b0 f   libucrtd:locks.obj
 0001:0001d720       __acrt_lock                000000018001e720 f   libucrtd:locks.obj
 0001:0001d750       __acrt_uninitialize_locks  000000018001e750 f   libucrtd:locks.obj
 0001:0001d7b0       __acrt_unlock              000000018001e7b0 f   libucrtd:locks.obj
 0001:0001de30       __acrt_FlsAlloc            000000018001ee30 f   libucrtd:winapi_thunks.obj
 0001:0001de80       __acrt_FlsFree             000000018001ee80 f   libucrtd:winapi_thunks.obj
 0001:0001ded0       __acrt_FlsGetValue         000000018001eed0 f   libucrtd:winapi_thunks.obj
 0001:0001df20       __acrt_FlsSetValue         000000018001ef20 f   libucrtd:winapi_thunks.obj
 0001:0001df80       __acrt_InitializeCriticalSectionEx 000000018001ef80 f   libucrtd:winapi_thunks.obj
 0001:0001dff0       __acrt_LCMapStringEx       000000018001eff0 f   libucrtd:winapi_thunks.obj
 0001:0001e0e0       __acrt_LocaleNameToLCID    000000018001f0e0 f   libucrtd:winapi_thunks.obj
 0001:0001e140       __acrt_MessageBoxW         000000018001f140 f   libucrtd:winapi_thunks.obj
 0001:0001e1b0       __acrt_can_show_message_box 000000018001f1b0 f   libucrtd:winapi_thunks.obj
 0001:0001e1f0       __acrt_get_parent_window   000000018001f1f0 f   libucrtd:winapi_thunks.obj
 0001:0001e270       __acrt_initialize_winapi_thunks 000000018001f270 f   libucrtd:winapi_thunks.obj
 0001:0001e2f0       __acrt_is_interactive      000000018001f2f0 f   libucrtd:winapi_thunks.obj
 0001:0001e3e0       __acrt_is_packaged_app     000000018001f3e0 f   libucrtd:winapi_thunks.obj
 0001:0001e520       __acrt_uninitialize_winapi_thunks 000000018001f520 f   libucrtd:winapi_thunks.obj
 0001:0001e660       __acrt_call_reportfault    000000018001f660 f   libucrtd:invalid_parameter.obj
 0001:0001e790       __acrt_initialize_invalid_parameter_handler 000000018001f790 f   libucrtd:invalid_parameter.obj
 0001:0001e7b0       _invalid_parameter         000000018001f7b0 f   libucrtd:invalid_parameter.obj
 0001:0001e8c0       _invalid_parameter_noinfo  000000018001f8c0 f   libucrtd:invalid_parameter.obj
 0001:0001e8f0       _invoke_watson             000000018001f8f0 f   libucrtd:invalid_parameter.obj
 0001:0001ee30       wcscpy_s                   000000018001fe30 f   libucrtd:wcscpy_s.obj
 0001:0001ee60       ??$?RV<lambda_441f2315ac0f593d45428a8fceb6abe6>@@AEAV<lambda_2f900415df1f7f624cdaaefe86d0b1c0>@@V<lambda_1d10a5a8ccb596b49763520e59d5af47>@@@?$__crt_seh_guarded_call@X@@QEAAX$$QEAV<lambda_441f2315ac0f593d45428a8fceb6abe6>@@AEAV<lambda_2f900415df1f7f624cdaaefe86d0b1c0>@@$$QEAV<lambda_1d10a5a8ccb596b49763520e59d5af47>@@@Z 000000018001fe60 f i libucrtd:mbctype.obj
 0001:0001eea0       ??$__acrt_lock_and_call@V<lambda_2f900415df1f7f624cdaaefe86d0b1c0>@@@@YAXW4__acrt_lock_id@@$$QEAV<lambda_2f900415df1f7f624cdaaefe86d0b1c0>@@@Z 000000018001fea0 f i libucrtd:mbctype.obj
 0001:0001f230       ?is_valid@?$__crt_unique_heap_ptr@U__vcrt_ptd@@U__crt_internal_free_policy@@@@QEBA_NXZ 0000000180020230 f i libvcruntimed:per_thread_data.obj
 0001:0001f230       ?is_valid@?$__crt_unique_heap_ptr@DU__crt_public_free_policy@@@@QEBA_NXZ 0000000180020230 f i libvcruntimed:std_exception.obj
 0001:0001f230       ??B?$__crt_scoped_stack_ptr@_W@@QEBA_NXZ 0000000180020230 f i libucrtd:lcmapstringa.obj
 0001:0001f230       ?valid@__crt_stdio_stream@@QEBA_NXZ 0000000180020230 f i libucrtd:output.obj
 0001:0001f230       ?is_valid@?$__crt_unique_heap_ptr@DU__crt_internal_free_policy@@@@QEBA_NXZ 0000000180020230 f i libvcruntimed:std_type_info.obj
 0001:0001f230       ?is_valid@?$__crt_unique_heap_ptr@U__acrt_ptd@@U__crt_internal_free_policy@@@@QEBA_NXZ 0000000180020230 f i libucrtd:per_thread_data.obj
 0001:0001f230       ?is_valid@?$__crt_unique_heap_ptr@U__crt_multibyte_data@@U__crt_internal_free_policy@@@@QEBA_NXZ 0000000180020230 f i libucrtd:mbctype.obj
 0001:0001f230       ?is_valid@?$__crt_unique_heap_ptr@U__crt_lowio_handle_data@@U__crt_internal_free_policy@@@@QEBA_NXZ 0000000180020230 f i libucrtd:osfinfo.obj
 0001:0001f970       __acrt_initialize_multibyte 0000000180020970 f   libucrtd:mbctype.obj
 0001:0001f9a0       __acrt_update_thread_multibyte_data 00000001800209a0 f   libucrtd:mbctype.obj
 0001:0001fab0       _setmbcp_nolock            0000000180020ab0 f   libucrtd:mbctype.obj
 0001:0001fefc       __dcrt_get_narrow_environment_from_os 0000000180020efc f   libucrtd:get_environment_from_os.obj
 0001:00020020       __acrt_initialize_heap     0000000180021020 f   libucrtd:heap_handle.obj
 0001:00020050       __acrt_uninitialize_heap   0000000180021050 f   libucrtd:heap_handle.obj
 0001:00020410       __acrt_initialize_lowio    0000000180021410 f   libucrtd:ioinit.obj
 0001:00020460       __acrt_uninitialize_lowio  0000000180021460 f   libucrtd:ioinit.obj
 0001:000204e0       __acrt_initialize_command_line 00000001800214e0 f   libucrtd:argv_data.obj
 0001:00020510       __acrt_execute_initializers 0000000180021510 f   libucrtd:shared_initialization.obj
 0001:00020600       __acrt_execute_uninitializers 0000000180021600 f   libucrtd:shared_initialization.obj
 0001:00020680       ??$__crt_fast_decode_pointer@P6AXPEB_W00I_K@Z@@YAP6AXPEB_W00I_K@ZQ6AX000I1@Z@Z 0000000180021680 f i libucrtd:invalid_parameter.obj
 0001:00020680       ??$__crt_fast_decode_pointer@P6AXXZ@@YAP6AXXZQ6AXXZ@Z 0000000180021680 f i libvcruntimed:purevirt.obj
 0001:00020680       ??$__crt_fast_decode_pointer@P6AXPEAXK0@Z@@YAP6AXPEAXK0@ZQ6AX0K0@Z@Z 0000000180021680 f i libucrtd:exit.obj
 0001:00020680       ??$__crt_fast_decode_pointer@P6AHPEAU_exception@@@Z@@YAP6AHPEAU_exception@@@ZQ6AH0@Z@Z 0000000180021680 f i libucrtd:matherr.obj
 0001:00020680       ??$__crt_fast_decode_pointer@P6AH_K@Z@@YAP6AH_K@ZQ6AH0@Z@Z 0000000180021680 f i libucrtd:new_handler.obj
 0001:00020680       ??$__crt_fast_decode_pointer@PEAX@@YAPEAXQEAX@Z 0000000180021680 f i libvcruntimed:winapi_downlevel.obj
 0001:00020680       ??$__crt_fast_decode_pointer@P6AXH@Z@@YAP6AXH@ZQ6AXH@Z@Z 0000000180021680 f i libucrtd:signal.obj
 0001:00020680       ??$__crt_fast_decode_pointer@PEAP6AXXZ@@YAPEAP6AXXZQEAP6AXXZ@Z 0000000180021680 f i LIBCMTD:utility.obj
 0001:000206c0       __acrt_initialize_new_handler 00000001800216c0 f   libucrtd:new_handler.obj
 0001:000206e0       _callnewh                  00000001800216e0 f   libucrtd:new_handler.obj
 0001:00020730       _query_new_handler         0000000180021730 f   libucrtd:new_handler.obj
 0001:00020770       ??$?RV<lambda_c36588078e9f5dfd39652860aa6b3aaf>@@AEAV<lambda_ec61778202f4f5fc7e7711acc23c3bca>@@V<lambda_dc9d2797ccde5d239b4a0efae8ebd7db>@@@?$__crt_seh_guarded_call@P6AXH@Z@@QEAAP6AXH@Z$$QEAV<lambda_c36588078e9f5dfd39652860aa6b3aaf>@@AEAV<lambda_ec61778202f4f5fc7e7711acc23c3bca>@@$$QEAV<lambda_dc9d2797ccde5d239b4a0efae8ebd7db>@@@Z 0000000180021770 f i libucrtd:signal.obj
 0001:000207c0       ??$__acrt_lock_and_call@V<lambda_ec61778202f4f5fc7e7711acc23c3bca>@@@@YAP6AXH@ZW4__acrt_lock_id@@$$QEAV<lambda_ec61778202f4f5fc7e7711acc23c3bca>@@@Z 00000001800217c0 f i libucrtd:signal.obj
 0001:00020950       __acrt_get_sigabrt_handler 0000000180021950 f   libucrtd:signal.obj
 0001:00020970       __acrt_initialize_signal_handlers 0000000180021970 f   libucrtd:signal.obj
 0001:000209d0       __fpecode                  00000001800219d0 f   libucrtd:signal.obj
 0001:000209f0       raise                      00000001800219f0 f   libucrtd:signal.obj
 0001:00020ed0       ?initialize@?$dual_state_global@P6AH_K@Z@__crt_state_management@@QEAAXQ6AH_K@Z@Z 0000000180021ed0 f i libucrtd:new_handler.obj
 0001:00020ed0       ?initialize@?$dual_state_global@P6AXPEB_W00I_K@Z@__crt_state_management@@QEAAXQ6AXPEB_W00I_K@Z@Z 0000000180021ed0 f i libucrtd:invalid_parameter.obj
 0001:00020ed0       ?initialize@?$dual_state_global@PEAU__crt_locale_data@@@__crt_state_management@@QEAAXQEAU__crt_locale_data@@@Z 0000000180021ed0 f i libucrtd:initialization.obj
 0001:00020ed0       ?initialize@?$dual_state_global@P6AXH@Z@__crt_state_management@@QEAAXQ6AXH@Z@Z 0000000180021ed0 f i libucrtd:signal.obj
 0001:00020ed0       ?initialize@?$dual_state_global@P6AHPEAU_exception@@@Z@__crt_state_management@@QEAAXQ6AHPEAU_exception@@@Z@Z 0000000180021ed0 f i libucrtd:matherr.obj
 0001:00020f20       __acrt_has_user_matherr    0000000180021f20 f   libucrtd:matherr.obj
 0001:00020f60       __acrt_initialize_user_matherr 0000000180021f60 f   libucrtd:matherr.obj
 0001:00020f80       __acrt_invoke_user_matherr 0000000180021f80 f   libucrtd:matherr.obj
 0001:00020fe0       ?has_any_of@__crt_stdio_stream@@QEBA_NJ@Z 0000000180021fe0 f i libucrtd:_sftbuf.obj
 0001:00021020       ?set_flags@__crt_stdio_stream@@QEBA_NJ@Z 0000000180022020 f i libucrtd:_sftbuf.obj
 0001:00021090       ?unset_flags@__crt_stdio_stream@@QEBA_NJ@Z 0000000180022090 f i libucrtd:_sftbuf.obj
 0001:000210f0       __acrt_errno_from_os_error 00000001800220f0 f   libucrtd:errno.obj
 0001:00021180       __acrt_errno_map_os_error  0000000180022180 f   libucrtd:errno.obj
 0001:000211b0       __doserrno                 00000001800221b0 f   libucrtd:errno.obj
 0001:000211e0       _errno                     00000001800221e0 f   libucrtd:errno.obj
 0001:00021220       _free_base                 0000000180022220 f   libucrtd:free_base.obj
 0001:00021280       _msize                     0000000180022280 f   libucrtd:msize.obj
 0001:000212a0       _realloc_base              00000001800222a0 f   libucrtd:realloc_base.obj
 0001:00021350       _chvalidator               0000000180022350 f   libucrtd:isctype.obj
 0001:000213c0       _chvalidator_l             00000001800223c0 f   libucrtd:isctype.obj
 0001:00021490       _isctype_l                 0000000180022490 f   libucrtd:isctype.obj
 0001:00021720       _expand_base               0000000180022720 f   libucrtd:expand.obj
 0001:000218b0       __acrt_update_locale_info  00000001800228b0 f   libucrtd:locale_update.obj
 0001:00021900       __acrt_update_multibyte_info 0000000180022900 f   libucrtd:locale_update.obj
 0001:00021950       ?value@?$dual_state_global@J@__crt_state_management@@QEAAAEAJXZ 0000000180022950 f i libucrtd:new_mode.obj
 0001:00021970       _query_new_mode            0000000180022970 f   libucrtd:new_mode.obj
 0001:00021990       _CrtDefaultAllocHook       0000000180022990 f   libucrtd:debug_heap_hook.obj
 0001:000219b0       __acrt_set_locale_changed  00000001800229b0 f   libucrtd:wsetlocale.obj
 0001:000219c0       __acrt_uninitialize_locale 00000001800229c0 f   libucrtd:wsetlocale.obj
 0001:00021a30       _CrtGetDebugFillThreshold  0000000180022a30 f   libucrtd:debug_fill_threshold.obj
 0001:00021a40       _VCrtDbgReportA            0000000180022a40 f   libucrtd:dbgrptt.obj
 0001:00022460       _VCrtDbgReportW            0000000180023460 f   libucrtd:dbgrptt.obj
 0001:00023000       _snprintf_s                0000000180024000 f i libucrtd:dbgrptt.obj
 0001:00023070       _vsnprintf_s               0000000180024070 f i libucrtd:dbgrptt.obj
 0001:000230c0       _vsnprintf_s_l             00000001800240c0 f i libucrtd:dbgrptt.obj
 0001:00023140       _vsnwprintf_s              0000000180024140 f i libucrtd:dbgrptt.obj
 0001:00023380       ??$message_box@$$TAEBQEB_WAEBQEB_WK@?$__crt_char_traits@_W@@SAH$$QEA$$TAEBQEB_W1$$QEAK@Z 0000000180024380 f i libucrtd:crtmbox.obj
 0001:00023380       ??$message_box@$$TAEAPEB_WAEAPEB_WAEAI@?$__crt_char_traits@_W@@SAH$$QEA$$TAEAPEB_W1AEAI@Z 0000000180024380 f i libucrtd:crtmbox.obj
 0001:00023380       ??$message_box@PEAUHWND__@@AEBQEB_WAEBQEB_WAEBI@?$__crt_char_traits@_W@@SAH$$QEAPEAUHWND__@@AEBQEB_W1AEBI@Z 0000000180024380 f i libucrtd:crtmbox.obj
 0001:00023430       ??$output_debug_string@AEBQEB_W@?$__crt_char_traits@_W@@SAXAEBQEB_W@Z 0000000180024430 f i libucrtd:crtmbox.obj
 0001:00023450       ??1?$__crt_unique_handle_t@U__crt_handle_traits@@@@QEAA@XZ 0000000180024450 f i libucrtd:crtmbox.obj
 0001:00023470       ??B?$__crt_unique_handle_t@U__crt_handle_traits@@@@QEBA_NXZ 0000000180024470 f i libucrtd:crtmbox.obj
 0001:00023490       ?close@?$__crt_unique_handle_t@U__crt_handle_traits@@@@QEAAXXZ 0000000180024490 f i libucrtd:crtmbox.obj
 0001:000234d0       ?close@__crt_handle_traits@@SA_NPEAX@Z 00000001800244d0 f i libucrtd:crtmbox.obj
 0001:00023510       ?is_valid@?$__crt_unique_handle_t@U__crt_handle_traits@@@@QEBA_NXZ 0000000180024510 f i libucrtd:crtmbox.obj
 0001:00023550       __acrt_show_wide_message_box 0000000180024550 f   libucrtd:crtmbox.obj
 0001:00023750       __acrt_report_runtime_error 0000000180024750 f   libucrtd:report_runtime_error.obj
 0001:000239d0       _query_app_type            00000001800249d0 f   libucrtd:report_runtime_error.obj
 0001:00023a00       _isdigit_l                 0000000180024a00 f i libucrtd:_ctype.obj
 0001:00023a50       isdigit                    0000000180024a50 f i libucrtd:_ctype.obj
 0001:00023e20       _tolower_l                 0000000180024e20 f   libucrtd:tolower_toupper.obj
 0001:00023e50       tolower                    0000000180024e50 f   libucrtd:tolower_toupper.obj
 0001:00023eb0       ??$make_c_string_character_source@_WPEAPEA_W@__crt_strtox@@YA?AV?$c_string_character_source@_W@0@QEB_WQEAPEA_W@Z 0000000180024eb0 f i libucrtd:strtox.obj
 0001:00023eb0       ??$make_c_string_character_source@DPEAPEAD@__crt_strtox@@YA?AV?$c_string_character_source@D@0@QEBDQEAPEAD@Z 0000000180024eb0 f i libucrtd:strtox.obj
 0001:00023ef0       ??$parse_integer_from_string@JDPEAPEAD@__crt_strtox@@YAJQEBDQEAPEADHQEAU__crt_locale_pointers@@@Z 0000000180024ef0 f i libucrtd:strtox.obj
 0001:00023f40       ??$parse_integer_from_string@J_WPEAPEA_W@__crt_strtox@@YAJQEB_WQEAPEA_WHQEAU__crt_locale_pointers@@@Z 0000000180024f40 f i libucrtd:strtox.obj
 0001:00023f90       strtol                     0000000180024f90 f   libucrtd:strtox.obj
 0001:00023fc0       wcstol                     0000000180024fc0 f   libucrtd:strtox.obj
 0001:00023ff0       _mbtowc_l                  0000000180024ff0 f   libucrtd:mbtowc.obj
 0001:00024320       mbtowc                     0000000180025320 f   libucrtd:mbtowc.obj
 0001:00024350       _wctomb_s_l                0000000180025350 f   libucrtd:wctomb.obj
 0001:000247f0       wctomb_s                   00000001800257f0 f   libucrtd:wctomb.obj
 0001:00025480       ??1?$__crt_simd_cleanup_guard@$00@@QEAA@XZ 0000000180026480 f i libucrtd:strnlen.obj
 0001:00025490       ??1?$__crt_simd_cleanup_guard@$0A@@@QEAA@XZ 0000000180026490 f i libucrtd:strnlen.obj
 0001:00025490       _guard_check_icall_nop     0000000180026490 f i LIBCMTD:guard_support.obj
 0001:000254a0       ?compare_equals@?$__crt_simd_traits@$00E@@SA?AT__m256i@@T2@0@Z 00000001800264a0 f i libucrtd:strnlen.obj
 0001:000254e0       ?compare_equals@?$__crt_simd_traits@$00G@@SA?AT__m256i@@T2@0@Z 00000001800264e0 f i libucrtd:strnlen.obj
 0001:00025520       ?compare_equals@?$__crt_simd_traits@$0A@E@@SA?AT__m128i@@T2@0@Z 0000000180026520 f i libucrtd:strnlen.obj
 0001:00025550       ?compare_equals@?$__crt_simd_traits@$0A@G@@SA?AT__m128i@@T2@0@Z 0000000180026550 f i libucrtd:strnlen.obj
 0001:00025580       ?compute_byte_mask@?$__crt_simd_pack_traits@$00@@SAHT__m256i@@@Z 0000000180026580 f i libucrtd:strnlen.obj
 0001:000255a0       ?compute_byte_mask@?$__crt_simd_pack_traits@$0A@@@SAHT__m128i@@@Z 00000001800265a0 f i libucrtd:strnlen.obj
 0001:000255c0       ?get_zero_pack@?$__crt_simd_pack_traits@$00@@SA?AT__m256i@@XZ 00000001800265c0 f i libucrtd:strnlen.obj
 0001:000255f0       ?get_zero_pack@?$__crt_simd_pack_traits@$0A@@@SA?AT__m128i@@XZ 00000001800265f0 f i libucrtd:strnlen.obj
 0001:00025610       strnlen                    0000000180026610 f   libucrtd:strnlen.obj
 0001:00025640       wcsnlen                    0000000180026640 f   libucrtd:strnlen.obj
 0001:00025670       ?__acrt_fp_classify@@YA?AW4__acrt_fp_class@@AEBN@Z 0000000180026670 f i libucrtd:cvt.obj
 0001:00025770       ?__acrt_fp_is_negative@@YA_NAEBN@Z 0000000180026770 f i libucrtd:cvt.obj
 0001:00026ef0       ?strrchr@@YAPEADQEADH@Z    0000000180027ef0 f i libucrtd:cvt.obj
 0001:00026f10       __acrt_fp_format           0000000180027f10 f   libucrtd:cvt.obj
 0001:000274e0       ?lowio_handle@__crt_stdio_stream@@QEBAHXZ 00000001800284e0 f i libucrtd:fileno.obj
 0001:00027510       _fileno                    0000000180028510 f   libucrtd:fileno.obj
 0001:000275f0       __acrt_initialize_stdio    00000001800285f0 f   libucrtd:_file.obj
 0001:000277e0       __acrt_uninitialize_stdio  00000001800287e0 f   libucrtd:_file.obj
 0001:00027870       _lock_file                 0000000180028870 f   libucrtd:_file.obj
 0001:000278b0       _unlock_file               00000001800288b0 f   libucrtd:_file.obj
 0001:000278f0       _get_printf_count_output   00000001800288f0 f   libucrtd:printf_count_output.obj
 0001:00027920       iswctype                   0000000180028920 f   libucrtd:iswctype.obj
 0001:00027a40       _getfpcontrolword          0000000180028a40 f   libucrtd:_fenvutils.obj
 0001:00027a60       _getfpstatusword           0000000180028a60 f   libucrtd:_fenvutils.obj
 0001:00027a80       _setfpcontrolword          0000000180028a80 f   libucrtd:_fenvutils.obj
 0001:00027aa0       _setfpstatusword           0000000180028aa0 f   libucrtd:_fenvutils.obj
 0001:00027b00       _raise_exc                 0000000180028b00 f   libucrtd:fpexcept.obj
 0001:00027b60       _raise_exc_ex              0000000180028b60 f   libucrtd:fpexcept.obj
 0001:000281e0       _raise_excf                00000001800291e0 f   libucrtd:fpexcept.obj
 0001:00028240       _set_errno_from_matherr    0000000180029240 f   libucrtd:fpexcept.obj
 0001:00028290       _clrfp                     0000000180029290 f   libucrtd:fpctrl.obj
 0001:000282c0       _ctrlfp                    00000001800292c0 f   libucrtd:fpctrl.obj
 0001:00028370       _set_statfp                0000000180029370 f   libucrtd:fpctrl.obj
 0001:000283b0       _statfp                    00000001800293b0 f   libucrtd:fpctrl.obj
 0001:000283e0       __acrt_add_locale_ref      00000001800293e0 f   libucrtd:locale_refcounting.obj
 0001:00028540       __acrt_free_locale         0000000180029540 f   libucrtd:locale_refcounting.obj
 0001:000288b0       __acrt_locale_add_lc_time_reference 00000001800298b0 f   libucrtd:locale_refcounting.obj
 0001:000288f0       __acrt_locale_free_lc_time_if_unreferenced 00000001800298f0 f   libucrtd:locale_refcounting.obj
 0001:00028950       __acrt_locale_release_lc_time_reference 0000000180029950 f   libucrtd:locale_refcounting.obj
 0001:00028990       __acrt_release_locale_ref  0000000180029990 f   libucrtd:locale_refcounting.obj
 0001:00028af0       __acrt_update_thread_locale_data 0000000180029af0 f   libucrtd:locale_refcounting.obj
 0001:00028ba0       _updatetlocinfoEx_nolock   0000000180029ba0 f   libucrtd:locale_refcounting.obj
 0001:00028e00       __acrt_DownlevelLocaleNameToLCID 0000000180029e00 f   libucrtd:lcidtoname_downlevel.obj
 0001:00028e90       ??1?$__crt_scoped_stack_ptr@_W@@QEAA@XZ 0000000180029e90 f i libucrtd:getstringtypea.obj
 0001:00028eb0       _MallocaComputeSize        0000000180029eb0 f i libucrtd:getstringtypea.obj
 0001:00028ef0       _MarkAllocaS               0000000180029ef0 f i libucrtd:getstringtypea.obj
 0001:00028f20       __acrt_GetStringTypeA      0000000180029f20 f   libucrtd:getstringtypea.obj
 0001:00029180       _freea_crt                 000000018002a180 f i libucrtd:getstringtypea.obj
 0001:00029810       __acrt_LCMapStringA        000000018002a810 f   libucrtd:lcmapstringa.obj
 0001:000298c0       ??B?$__crt_unique_heap_ptr@U__crt_multibyte_data@@U__crt_internal_free_policy@@@@QEBA_NXZ 000000018002a8c0 f i libucrtd:mbctype.obj
 0001:000298c0       ??B?$__crt_unique_heap_ptr@DU__crt_public_free_policy@@@@QEBA_NXZ 000000018002a8c0 f i libvcruntimed:std_exception.obj
 0001:000298c0       ??B?$__crt_unique_heap_ptr@U__crt_lowio_handle_data@@U__crt_internal_free_policy@@@@QEBA_NXZ 000000018002a8c0 f i libucrtd:osfinfo.obj
 0001:000298c0       ??B?$__crt_unique_heap_ptr@U__vcrt_ptd@@U__crt_internal_free_policy@@@@QEBA_NXZ 000000018002a8c0 f i libvcruntimed:per_thread_data.obj
 0001:000298c0       ??B?$__crt_unique_heap_ptr@U__acrt_ptd@@U__crt_internal_free_policy@@@@QEBA_NXZ 000000018002a8c0 f i libucrtd:per_thread_data.obj
 0001:000298c0       ??B?$__crt_unique_heap_ptr@DU__crt_internal_free_policy@@@@QEBA_NXZ 000000018002a8c0 f i libvcruntimed:std_type_info.obj
 0001:000298e0       __acrt_lowio_create_handle_array 000000018002a8e0 f   libucrtd:osfinfo.obj
 0001:00029a70       __acrt_lowio_destroy_handle_array 000000018002aa70 f   libucrtd:osfinfo.obj
 0001:00029af0       __acrt_lowio_ensure_fh_exists 000000018002aaf0 f   libucrtd:osfinfo.obj
 0001:00029c50       __acrt_lowio_lock_fh       000000018002ac50 f   libucrtd:osfinfo.obj
 0001:00029c90       __acrt_lowio_unlock_fh     000000018002ac90 f   libucrtd:osfinfo.obj
 0001:00029cd0       _free_osfhnd               000000018002acd0 f   libucrtd:osfinfo.obj
 0001:00029e00       _get_osfhandle             000000018002ae00 f   libucrtd:osfinfo.obj
 0001:0002a000       __pctype_func              000000018002b000 f   libucrtd:ctype.obj
 0001:0002a040       _isatty                    000000018002b040 f   libucrtd:isatty.obj
 0001:0002a150       ?__acrt_stdio_reset_buffer@@YAXV__crt_stdio_stream@@@Z 000000018002b150 f i libucrtd:fflush.obj
 0001:0002a1a0       ?has_all_of@__crt_stdio_stream@@QEBA_NJ@Z 000000018002b1a0 f i libucrtd:fflush.obj
 0001:0002a1e0       ?has_big_buffer@__crt_stdio_stream@@QEBA_NXZ 000000018002b1e0 f i libucrtd:fflush.obj
 0001:0002a200       ?is_in_use@__crt_stdio_stream@@QEBA_NXZ 000000018002b200 f i libucrtd:fflush.obj
 0001:0002a240       __acrt_stdio_flush_nolock  000000018002b240 f   libucrtd:fflush.obj
 0001:0002a360       _fflush_nolock             000000018002b360 f   libucrtd:fflush.obj
 0001:0002a3f0       _flushall                  000000018002b3f0 f   libucrtd:fflush.obj
 0001:0002a580       _malloc_base               000000018002b580 f   libucrtd:malloc_base.obj
 0001:0002a620       free                       000000018002b620 f   libucrtd:free.obj
 0001:0002a640       malloc                     000000018002b640 f   libucrtd:malloc.obj
 0001:0002a670       _isleadbyte_l              000000018002b670 f i libucrtd:_wctype.obj
 0001:0002a6d0       __acrt_locale_free_monetary 000000018002b6d0 f   libucrtd:initmon.obj
 0001:0002a8e0       __acrt_locale_free_numeric 000000018002b8e0 f   libucrtd:initnum.obj
 0001:0002aa80       __acrt_locale_free_time    000000018002ba80 f   libucrtd:inittime.obj
 0001:0002b270       wcscat_s                   000000018002c270 f   libucrtd:wcscat_s.obj
 0001:0002b930       wcsncpy_s                  000000018002c930 f   libucrtd:wcsncpy_s.obj
 0001:0002c560       _itoa_s                    000000018002d560 f   libucrtd:xtoa.obj
 0001:0002c5c0       _itow_s                    000000018002d5c0 f   libucrtd:xtoa.obj
 0001:0002cb90       _mbstowcs_s_l              000000018002db90 f   libucrtd:mbstowcs.obj
 0001:0002d160       mbstowcs_s                 000000018002e160 f   libucrtd:mbstowcs.obj
 0001:0002da80       _wcstombs_s_l              000000018002ea80 f   libucrtd:wcstombs.obj
 0001:0002dfc0       wcstombs_s                 000000018002efc0 f   libucrtd:wcstombs.obj
 0001:0002e670       strcat_s                   000000018002f670 f   libucrtd:strcat_s.obj
 0001:0002e6a0       _set_error_mode            000000018002f6a0 f   libucrtd:set_error_mode.obj
 0001:0002e7a0       __acrt_fp_strflt_to_string 000000018002f7a0 f   libucrtd:_fptostr.obj
 0001:0002f230       ??4big_integer@__crt_strtox@@QEAAAEAU01@AEBU01@@Z 0000000180030230 f i libucrtd:cfout.obj
 0001:0002f230       ??0big_integer@__crt_strtox@@QEAA@AEBU01@@Z 0000000180030230 f i libucrtd:cfout.obj
 0001:0002f290       ??0big_integer@__crt_strtox@@QEAA@XZ 0000000180030290 f i libucrtd:cfout.obj
 0001:0002f2d0       ??0scoped_fp_state_reset@?A0x22020a54@@QEAA@XZ 00000001800302d0 f i libucrtd:cfout.obj
 0001:0002f320       ??1scoped_fp_state_reset@?A0x22020a54@@QEAA@XZ 0000000180030320 f i libucrtd:cfout.obj
 0001:0002f350       ??8__crt_strtox@@YA_NAEBUbig_integer@0@0@Z 0000000180030350 f i libucrtd:cfout.obj
 0001:0002f3c0       ??9__crt_strtox@@YA_NAEBUbig_integer@0@0@Z 00000001800303c0 f i libucrtd:cfout.obj
 0001:0002f400       ?add_carry@__crt_strtox@@YAIAEAIII@Z 0000000180030400 f i libucrtd:cfout.obj
 0001:0002f450       ?add_multiply_carry@__crt_strtox@@YAIAEAIIII@Z 0000000180030450 f i libucrtd:cfout.obj
 0001:0002f4b0       ?bit_scan_reverse@__crt_strtox@@YAII@Z 00000001800304b0 f i libucrtd:cfout.obj
 0001:0002f4f0       ?count_sequential_high_zeroes@__crt_strtox@@YAII@Z 00000001800304f0 f i libucrtd:cfout.obj
 0001:0002f530       ?divide@__crt_strtox@@YA_KAEAUbig_integer@1@AEBU21@@Z 0000000180030530 f i libucrtd:cfout.obj
 0001:0002fef0       ?is_zero@__crt_strtox@@YA_NAEBUbig_integer@1@@Z 0000000180030ef0 f i libucrtd:cfout.obj
 0001:0002ff20       ?make_big_integer@__crt_strtox@@YA?AUbig_integer@1@_K@Z 0000000180030f20 f i libucrtd:cfout.obj
 0001:0002fff0       ?make_big_integer_power_of_two@__crt_strtox@@YA?AUbig_integer@1@I@Z 0000000180030ff0 f i libucrtd:cfout.obj
 0001:000300c0       ?multiply@__crt_strtox@@YA_NAEAUbig_integer@1@AEBU21@@Z 00000001800310c0 f i libucrtd:cfout.obj
 0001:00030440       ?multiply@__crt_strtox@@YA_NAEAUbig_integer@1@I@Z 0000000180031440 f i libucrtd:cfout.obj
 0001:00030560       ?multiply_64_32@__crt_strtox@@YA_K_KI@Z 0000000180031560 f i libucrtd:cfout.obj
 0001:00030580       ?multiply_by_power_of_ten@__crt_strtox@@YA_NAEAUbig_integer@1@I@Z 0000000180031580 f i libucrtd:cfout.obj
 0001:00030730       ?multiply_core@__crt_strtox@@YAIQEAIII@Z 0000000180031730 f i libucrtd:cfout.obj
 0001:000307b0       ?shift_left@__crt_strtox@@YA_NAEAUbig_integer@1@I@Z 00000001800317b0 f i libucrtd:cfout.obj
 0001:00030ae0       __acrt_fltout              0000000180031ae0 f   libucrtd:cfout.obj
 0001:00030f60       _fcloseall                 0000000180031f60 f   libucrtd:closeall.obj
 0001:00031070       ?has_crt_buffer@__crt_stdio_stream@@QEBA_NXZ 0000000180032070 f i libucrtd:_freebuf.obj
 0001:00031090       __acrt_stdio_free_buffer_nolock 0000000180032090 f   libucrtd:_freebuf.obj
 0001:00031360       _clearfp                   0000000180032360 f   libucrtd:ieee.obj
 0001:00031380       _controlfp                 0000000180032380 f   libucrtd:ieee.obj
 0001:00031500       _statusfp                  0000000180032500 f   libucrtd:ieee.obj
 0001:00031650       _get_fpsr                  0000000180032650 f   libucrtd:fpsr.obj
 0001:00031660       _set_fpsr                  0000000180032660 f   libucrtd:fpsr.obj
 0001:0003166a       _fclrf                     000000018003266a f   libucrtd:fpsr.obj
 0001:0003167e       _frnd                      000000018003267e f   libucrtd:fpsr.obj
 0001:000316a0       __strncnt                  00000001800326a0 f   libucrtd:strncnt.obj
 0001:00031700       ??$?RV<lambda_2ce24b26f23dade10250ef086380d911>@@AEAV<lambda_e9ab68cc08dfd839979545c079379e6e>@@V<lambda_6262c464c96e4c69799ed44814c7c457>@@@?$__crt_seh_guarded_call@H@@QEAAH$$QEAV<lambda_2ce24b26f23dade10250ef086380d911>@@AEAV<lambda_e9ab68cc08dfd839979545c079379e6e>@@$$QEAV<lambda_6262c464c96e4c69799ed44814c7c457>@@@Z 0000000180032700 f i libucrtd:commit.obj
 0001:00031750       ??$__acrt_lowio_lock_fh_and_call@V<lambda_e9ab68cc08dfd839979545c079379e6e>@@@@YAHH$$QEAV<lambda_e9ab68cc08dfd839979545c079379e6e>@@@Z 0000000180032750 f i libucrtd:commit.obj
 0001:000318b0       _commit                    00000001800328b0 f   libucrtd:commit.obj
 0001:00032b40       _write                     0000000180033b40 f   libucrtd:write.obj
 0001:00032de0       _write_nolock              0000000180033de0 f   libucrtd:write.obj
 0001:000333c0       log10                      00000001800343c0 f   libucrtd:log10.obj
 0001:00033970       ceil                       0000000180034970 f   libucrtd:ceil.obj
 0001:00033b40       fegetenv                   0000000180034b40 f   libucrtd:fegetenv.obj
 0001:00033b70       fesetenv                   0000000180034b70 f   libucrtd:fesetenv.obj
 0001:00033be0       feholdexcept               0000000180034be0 f   libucrtd:feholdexcept.obj
 0001:00033dc0       _lseeki64_nolock           0000000180034dc0 f   libucrtd:lseek.obj
 0001:00033df0       _fclose_nolock             0000000180034df0 f   libucrtd:fclose.obj
 0001:00033f80       fclose                     0000000180034f80 f   libucrtd:fclose.obj
 0001:000340b4       _putwch_nolock             00000001800350b4 f   libucrtd:putwch.obj
 0001:00034110       __acrt_initialize_fma3     0000000180035110 f   libucrtd:fma3_available.obj
 0001:000341c0       _log10_special             00000001800351c0 f   libucrtd:log_special.obj
 0001:00034330       ??$?RV<lambda_4f1f1a84956f0d44b74de224c960ff76>@@AEAV<lambda_a8f98972ebaa5f7148d35bffe53bd70d>@@V<lambda_f6ca65dda28655a1cf758c1c4e38e52a>@@@?$__crt_seh_guarded_call@H@@QEAAH$$QEAV<lambda_4f1f1a84956f0d44b74de224c960ff76>@@AEAV<lambda_a8f98972ebaa5f7148d35bffe53bd70d>@@$$QEAV<lambda_f6ca65dda28655a1cf758c1c4e38e52a>@@@Z 0000000180035330 f i libucrtd:close.obj
 0001:00034380       ??$__acrt_lowio_lock_fh_and_call@V<lambda_a8f98972ebaa5f7148d35bffe53bd70d>@@@@YAHH$$QEAV<lambda_a8f98972ebaa5f7148d35bffe53bd70d>@@@Z 0000000180035380 f i libucrtd:close.obj
 0001:000345a0       _close                     00000001800355a0 f   libucrtd:close.obj
 0001:00034790       _close_nolock              0000000180035790 f   libucrtd:close.obj
 0001:00034800       ?__acrt_stdio_free_stream@@YAXV__crt_stdio_stream@@@Z 0000000180035800 f   libucrtd:stream.obj
 0001:000348a0       ?deallocate@__crt_stdio_stream@@QEAAXXZ 00000001800358a0 f i libucrtd:stream.obj
 0001:000348b8       __dcrt_lowio_initialize_console_output 00000001800358b8 f   libucrtd:initcon.obj
 0001:000348f4       __dcrt_terminate_console_output 00000001800358f4 f   libucrtd:initcon.obj
 0001:00034920       _FindPESection             0000000180035920 f   LIBCMTD:pesect.obj
 0001:000349d0       _IsNonwritableInCurrentImage 00000001800359d0 f   LIBCMTD:pesect.obj
 0001:00034a60       _ValidateImageBase         0000000180035a60 f   LIBCMTD:pesect.obj
 0001:00034ae0       ??1type_info@@UEAA@XZ      0000000180035ae0 f   LIBCMTD:std_type_info_static.obj
 0001:00034b00       ??_Gtype_info@@UEAAPEAXI@Z 0000000180035b00 f i LIBCMTD:std_type_info_static.obj
 0001:00034b00       ??_Etype_info@@UEAAPEAXI@Z 0000000180035b00 f i LIBCMTD:std_type_info_static.obj
 0001:00034b50       __chkstk                   0000000180035b50 f   LIBCMTD:_chkstk_.obj
 0001:00034b50       _alloca_probe              0000000180035b50 f   LIBCMTD:_chkstk_.obj
 0001:00034bb0       __GSHandlerCheck_SEH       0000000180035bb0 f   LIBCMTD:_gshandlerseh_.obj
 0001:00034c70       __GSHandlerCheck_EH        0000000180035c70 f   LIBCMTD:gshandlereh.obj
 0001:00034d20       ??3@YAXPEAX_K@Z            0000000180035d20 f   LIBCMTD:delete_scalar_size.obj
 0001:00034d40       ??3@YAXPEAX@Z              0000000180035d40 f   LIBCMTD:delete_scalar.obj
 0001:00034d5e       RtlUnwindEx                0000000180035d5e f   kernel32:KERNEL32.dll
 0001:00034d64       SystemFunction036          0000000180035d64 f   advapi32:ADVAPI32.dll
 0001:00034d80       memcpy                     0000000180035d80 f   libvcruntimed:memcpy.obj
 0001:00034d80       memmove                    0000000180035d80 f   libvcruntimed:memcpy.obj
 0001:000351d0       memset                     00000001800361d0 f   libvcruntimed:memset.obj
 0001:00035380       memcmp                     0000000180036380 f   libvcruntimed:memcmp.obj
 0001:00035450       strrchr                    0000000180036450 f   libvcruntimed:strrchr.obj
 0001:00035900       ?_GetEstablisherFrame@@YAPEA_KPEA_KPEAU_xDISPATCHER_CONTEXT@@PEBU_s_FuncInfo@@0@Z 0000000180036900 f   libvcruntimed:trnsctrl.obj
 0001:00035a70       ?_GetRangeOfTrysToCheck@@YAPEBU_s_TryBlockMapEntry@@PEA_KPEBU_s_FuncInfo@@HHPEAI2PEAU_xDISPATCHER_CONTEXT@@@Z 0000000180036a70 f   libvcruntimed:trnsctrl.obj
 0001:00035c90       ?__FrameUnwindToEmptyState@@YAXPEA_KPEAU_xDISPATCHER_CONTEXT@@PEBU_s_FuncInfo@@@Z 0000000180036c90 f   libvcruntimed:trnsctrl.obj
 0001:00035d30       ?__SehTransFilter@@YAHPEAU_EXCEPTION_POINTERS@@PEAUEHExceptionRecord@@PEA_KPEAU_CONTEXT@@PEAU_xDISPATCHER_CONTEXT@@PEBU_s_FuncInfo@@PEAH@Z 0000000180036d30 f   libvcruntimed:trnsctrl.obj
 0001:00035de0       _CallSETranslator          0000000180036de0 f   libvcruntimed:trnsctrl.obj
 0001:00035e70       _CreateFrameInfo           0000000180036e70 f   libvcruntimed:trnsctrl.obj
 0001:00035ee0       _FindAndUnlinkFrame        0000000180036ee0 f   libvcruntimed:trnsctrl.obj
 0001:00035f60       _GetImageBase              0000000180036f60 f   libvcruntimed:trnsctrl.obj
 0001:00035f80       _GetThrowImageBase         0000000180036f80 f   libvcruntimed:trnsctrl.obj
 0001:00035fa0       _IsExceptionObjectToBeDestroyed 0000000180036fa0 f   libvcruntimed:trnsctrl.obj
 0001:00035ff0       _SetImageBase              0000000180036ff0 f   libvcruntimed:trnsctrl.obj
 0001:00036010       _SetThrowImageBase         0000000180037010 f   libvcruntimed:trnsctrl.obj
 0001:00036030       _UnwindNestedFrames        0000000180037030 f   libvcruntimed:trnsctrl.obj
 0001:000361a0       __CxxFrameHandler3         00000001800371a0 f   libvcruntimed:trnsctrl.obj
 0001:00036260       ?__GetCurrentState@@YAHPEA_KPEAU_xDISPATCHER_CONTEXT@@PEBU_s_FuncInfo@@@Z 0000000180037260 f   libvcruntimed:ehstate.obj
 0001:000362c0       ?__GetUnwindTryBlock@@YAHPEA_KPEAU_xDISPATCHER_CONTEXT@@PEBU_s_FuncInfo@@@Z 00000001800372c0 f   libvcruntimed:ehstate.obj
 0001:00036310       ?__SetState@@YAXPEA_KPEAU_xDISPATCHER_CONTEXT@@PEBU_s_FuncInfo@@H@Z 0000000180037310 f   libvcruntimed:ehstate.obj
 0001:00036340       ?__SetUnwindTryBlock@@YAXPEA_KPEAU_xDISPATCHER_CONTEXT@@PEBU_s_FuncInfo@@H@Z 0000000180037340 f   libvcruntimed:ehstate.obj
 0001:000363b0       ?__StateFromControlPc@@YAHPEBU_s_FuncInfo@@PEAU_xDISPATCHER_CONTEXT@@@Z 00000001800373b0 f   libvcruntimed:ehstate.obj
 0001:000363e0       ?__StateFromIp@@YAHPEBU_s_FuncInfo@@PEAU_xDISPATCHER_CONTEXT@@_J@Z 00000001800373e0 f   libvcruntimed:ehstate.obj
 0001:000364c0       __DestructExceptionObject  00000001800374c0 f   libvcruntimed:frame.obj
 0001:000365c0       ??0bad_exception@std@@QEAA@AEBV01@@Z 00000001800375c0 f i libvcruntimed:frame.obj
 0001:00036600       ??0bad_exception@std@@QEAA@XZ 0000000180037600 f i libvcruntimed:frame.obj
 0001:00036640       ??0exception@std@@QEAA@AEBV01@@Z 0000000180037640 f i libvcruntimed:frame.obj
 0001:000366a0       ??0exception@std@@QEAA@QEBDH@Z 00000001800376a0 f i libvcruntimed:frame.obj
 0001:000366f0       ??1bad_exception@std@@UEAA@XZ 00000001800376f0 f i libvcruntimed:frame.obj
 0001:00036710       ??1exception@std@@UEAA@XZ  0000000180037710 f i libvcruntimed:frame.obj
 0001:00036740       ??8type_info@@QEBA_NAEBV0@@Z 0000000180037740 f i libvcruntimed:frame.obj
 0001:00036790       ??_Ebad_exception@std@@UEAAPEAXI@Z 0000000180037790 f i libvcruntimed:frame.obj
 0001:00036790       ??_Gbad_exception@std@@UEAAPEAXI@Z 0000000180037790 f i libvcruntimed:frame.obj
 0001:000367d0       ??_Gexception@std@@UEAAPEAXI@Z 00000001800377d0 f i libvcruntimed:frame.obj
 0001:000367d0       ??_Eexception@std@@UEAAPEAXI@Z 00000001800377d0 f i libvcruntimed:frame.obj
 0001:00037750       ?_CallMemberFunction0@@YAXPEAXP6AX0@Z@Z 0000000180038750 f i libvcruntimed:frame.obj
 0001:00037770       ?_CallMemberFunction1@@YAXPEAXP6AX0@Z0@Z 0000000180038770 f i libvcruntimed:frame.obj
 0001:000377a0       ?_CallMemberFunction2@@YAXPEAXP6AX0@Z0H@Z 00000001800387a0 f i libvcruntimed:frame.obj
 0001:000377d0       ?_ValidateExecute@@YA_NP6A_JXZ@Z 00000001800387d0 f i libvcruntimed:frame.obj
 0001:000377f0       ?_ValidateRead@@YA_NPEBXI@Z 00000001800387f0 f i libvcruntimed:frame.obj
 0001:000377f0       ?_ValidateWrite@@YA_NPEAXI@Z 00000001800387f0 f i libvcruntimed:frame.obj
 0001:00037850       ?what@exception@std@@UEBAPEBDXZ 0000000180038850 f i libvcruntimed:frame.obj
 0001:00037890       __AdjustPointer            0000000180038890 f   libvcruntimed:frame.obj
 0001:00037910       __BuildCatchObject         0000000180038910 f   libvcruntimed:frame.obj
 0001:00037a50       __BuildCatchObjectHelper   0000000180038a50 f   libvcruntimed:frame.obj
 0001:00037ee0       __CxxCallCatchBlock        0000000180038ee0 f   libvcruntimed:frame.obj
 0001:00038140       __FrameUnwindFilter        0000000180039140 f   libvcruntimed:frame.obj
 0001:000381d0       __FrameUnwindToState       00000001800391d0 f   libvcruntimed:frame.obj
 0001:00038420       __InternalCxxFrameHandler  0000000180039420 f   libvcruntimed:frame.obj
 0001:000388a0       __TypeMatch                00000001800398a0 f   libvcruntimed:frame.obj
 0001:00038aa0       _CallSettingFrame          0000000180039aa0 f   libvcruntimed:handlers.obj
 0001:00038ae0       ??$?RD@__crt_public_free_policy@@QEBAXQEBD@Z 0000000180039ae0 f i libvcruntimed:std_exception.obj
 0001:00038b00       ??1?$__crt_unique_heap_ptr@DU__crt_public_free_policy@@@@QEAA@XZ 0000000180039b00 f i libvcruntimed:std_exception.obj
 0001:00038b20       ?release@?$__crt_unique_heap_ptr@DU__crt_public_free_policy@@@@QEAAXXZ 0000000180039b20 f i libvcruntimed:std_exception.obj
 0001:00038b50       __std_exception_copy       0000000180039b50 f   libvcruntimed:std_exception.obj
 0001:00038c80       __std_exception_destroy    0000000180039c80 f   libvcruntimed:std_exception.obj
 0001:00038cc0       _CxxThrowException         0000000180039cc0 f   libvcruntimed:throw.obj
 0001:00038e10       _guard_dispatch_icall_nop  0000000180039e10 f   LIBCMTD:_guard_dispatch_.obj
 0002:00000000       __imp_SystemFunction036    000000018003b000     advapi32:ADVAPI32.dll
 0002:00000008       \177ADVAPI32_NULL_THUNK_DATA 000000018003b008     advapi32:ADVAPI32.dll
 0002:00000010       __imp_RtlVirtualUnwind     000000018003b010     kernel32:KERNEL32.dll
 0002:00000018       __imp_UnhandledExceptionFilter 000000018003b018     kernel32:KERNEL32.dll
 0002:00000020       __imp_SetUnhandledExceptionFilter 000000018003b020     kernel32:KERNEL32.dll
 0002:00000028       __imp_GetCurrentProcess    000000018003b028     kernel32:KERNEL32.dll
 0002:00000030       __imp_TerminateProcess     000000018003b030     kernel32:KERNEL32.dll
 0002:00000038       __imp_IsProcessorFeaturePresent 000000018003b038     kernel32:KERNEL32.dll
 0002:00000040       __imp_QueryPerformanceCounter 000000018003b040     kernel32:KERNEL32.dll
 0002:00000048       __imp_GetCurrentProcessId  000000018003b048     kernel32:KERNEL32.dll
 0002:00000050       __imp_GetCurrentThreadId   000000018003b050     kernel32:KERNEL32.dll
 0002:00000058       __imp_GetSystemTimeAsFileTime 000000018003b058     kernel32:KERNEL32.dll
 0002:00000060       __imp_InitializeSListHead  000000018003b060     kernel32:KERNEL32.dll
 0002:00000068       __imp_IsDebuggerPresent    000000018003b068     kernel32:KERNEL32.dll
 0002:00000070       __imp_GetStartupInfoW      000000018003b070     kernel32:KERNEL32.dll
 0002:00000078       __imp_GetModuleHandleW     000000018003b078     kernel32:KERNEL32.dll
 0002:00000080       __imp_GetLastError         000000018003b080     kernel32:KERNEL32.dll
 0002:00000088       __imp_GetModuleFileNameW   000000018003b088     kernel32:KERNEL32.dll
 0002:00000090       __imp_RtlUnwindEx          000000018003b090     kernel32:KERNEL32.dll
 0002:00000098       __imp_InterlockedFlushSList 000000018003b098     kernel32:KERNEL32.dll
 0002:000000a0       __imp_InitializeCriticalSectionAndSpinCount 000000018003b0a0     kernel32:KERNEL32.dll
 0002:000000a8       __imp_TlsAlloc             000000018003b0a8     kernel32:KERNEL32.dll
 0002:000000b0       __imp_TlsGetValue          000000018003b0b0     kernel32:KERNEL32.dll
 0002:000000b8       __imp_TlsSetValue          000000018003b0b8     kernel32:KERNEL32.dll
 0002:000000c0       __imp_TlsFree              000000018003b0c0     kernel32:KERNEL32.dll
 0002:000000c8       __imp_FreeLibrary          000000018003b0c8     kernel32:KERNEL32.dll
 0002:000000d0       __imp_GetProcAddress       000000018003b0d0     kernel32:KERNEL32.dll
 0002:000000d8       __imp_LoadLibraryExW       000000018003b0d8     kernel32:KERNEL32.dll
 0002:000000e0       __imp_SetLastError         000000018003b0e0     kernel32:KERNEL32.dll
 0002:000000e8       __imp_EnterCriticalSection 000000018003b0e8     kernel32:KERNEL32.dll
 0002:000000f0       __imp_LeaveCriticalSection 000000018003b0f0     kernel32:KERNEL32.dll
 0002:000000f8       __imp_DeleteCriticalSection 000000018003b0f8     kernel32:KERNEL32.dll
 0002:00000100       __imp_ExitProcess          000000018003b100     kernel32:KERNEL32.dll
 0002:00000108       __imp_GetModuleHandleExW   000000018003b108     kernel32:KERNEL32.dll
 0002:00000110       __imp_MultiByteToWideChar  000000018003b110     kernel32:KERNEL32.dll
 0002:00000118       __imp_WideCharToMultiByte  000000018003b118     kernel32:KERNEL32.dll
 0002:00000120       __imp_HeapAlloc            000000018003b120     kernel32:KERNEL32.dll
 0002:00000128       __imp_HeapSize             000000018003b128     kernel32:KERNEL32.dll
 0002:00000130       __imp_HeapValidate         000000018003b130     kernel32:KERNEL32.dll
 0002:00000138       __imp_GetSystemInfo        000000018003b138     kernel32:KERNEL32.dll
 0002:00000140       __imp_RtlLookupFunctionEntry 000000018003b140     kernel32:KERNEL32.dll
 0002:00000148       __imp_LCMapStringW         000000018003b148     kernel32:KERNEL32.dll
 0002:00000150       __imp_IsValidCodePage      000000018003b150     kernel32:KERNEL32.dll
 0002:00000158       __imp_GetACP               000000018003b158     kernel32:KERNEL32.dll
 0002:00000160       __imp_GetOEMCP             000000018003b160     kernel32:KERNEL32.dll
 0002:00000168       __imp_GetCPInfo            000000018003b168     kernel32:KERNEL32.dll
 0002:00000170       __imp_GetEnvironmentStringsW 000000018003b170     kernel32:KERNEL32.dll
 0002:00000178       __imp_FreeEnvironmentStringsW 000000018003b178     kernel32:KERNEL32.dll
 0002:00000180       __imp_GetProcessHeap       000000018003b180     kernel32:KERNEL32.dll
 0002:00000188       __imp_GetStdHandle         000000018003b188     kernel32:KERNEL32.dll
 0002:00000190       __imp_GetFileType          000000018003b190     kernel32:KERNEL32.dll
 0002:00000198       __imp_GetCommandLineA      000000018003b198     kernel32:KERNEL32.dll
 0002:000001a0       __imp_GetCommandLineW      000000018003b1a0     kernel32:KERNEL32.dll
 0002:000001a8       __imp_HeapFree             000000018003b1a8     kernel32:KERNEL32.dll
 0002:000001b0       __imp_HeapReAlloc          000000018003b1b0     kernel32:KERNEL32.dll
 0002:000001b8       __imp_HeapQueryInformation 000000018003b1b8     kernel32:KERNEL32.dll
 0002:000001c0       __imp_WriteFile            000000018003b1c0     kernel32:KERNEL32.dll
 0002:000001c8       __imp_OutputDebugStringA   000000018003b1c8     kernel32:KERNEL32.dll
 0002:000001d0       __imp_OutputDebugStringW   000000018003b1d0     kernel32:KERNEL32.dll
 0002:000001d8       __imp_WriteConsoleW        000000018003b1d8     kernel32:KERNEL32.dll
 0002:000001e0       __imp_CloseHandle          000000018003b1e0     kernel32:KERNEL32.dll
 0002:000001e8       __imp_WaitForSingleObjectEx 000000018003b1e8     kernel32:KERNEL32.dll
 0002:000001f0       __imp_CreateThread         000000018003b1f0     kernel32:KERNEL32.dll
 0002:000001f8       __imp_GetStringTypeW       000000018003b1f8     kernel32:KERNEL32.dll
 0002:00000200       __imp_RaiseException       000000018003b200     kernel32:KERNEL32.dll
 0002:00000208       __imp_SetStdHandle         000000018003b208     kernel32:KERNEL32.dll
 0002:00000210       __imp_FlushFileBuffers     000000018003b210     kernel32:KERNEL32.dll
 0002:00000218       __imp_GetConsoleCP         000000018003b218     kernel32:KERNEL32.dll
 0002:00000220       __imp_GetConsoleMode       000000018003b220     kernel32:KERNEL32.dll
 0002:00000228       __imp_SetFilePointerEx     000000018003b228     kernel32:KERNEL32.dll
 0002:00000230       __imp_CreateFileW          000000018003b230     kernel32:KERNEL32.dll
 0002:00000238       __imp_GetModuleFileNameA   000000018003b238     kernel32:KERNEL32.dll
 0002:00000240       __imp_RtlCaptureContext    000000018003b240     kernel32:KERNEL32.dll
 0002:00000248       __imp_RtlPcToFileHeader    000000018003b248     kernel32:KERNEL32.dll
 0002:00000250       __imp_EncodePointer        000000018003b250     kernel32:KERNEL32.dll
 0002:00000258       \177KERNEL32_NULL_THUNK_DATA 000000018003b258     kernel32:KERNEL32.dll
 0002:00000260       __guard_check_icall_fptr   000000018003b260     LIBCMTD:guard_support.obj
 0002:00000268       __guard_dispatch_icall_fptr 000000018003b268     LIBCMTD:guard_support.obj
 0002:00000270       __xc_a                     000000018003b270     LIBCMTD:initializers.obj
 0002:00000278       __xc_z                     000000018003b278     LIBCMTD:initializers.obj
 0002:00000280       __xi_a                     000000018003b280     LIBCMTD:initializers.obj
 0002:00000288       __acrt_multibyte_initializer 000000018003b288     libucrtd:multibyte_initializer.obj
 0002:00000290       __acrt_stdio_initializer   000000018003b290     libucrtd:stdio_initializer.obj
 0002:00000298       __acrt_tran_fma3_initializer 000000018003b298     libucrtd:fma3_initializer.obj
 0002:000002a0       __xi_z                     000000018003b2a0     LIBCMTD:initializers.obj
 0002:000002a8       __xp_a                     000000018003b2a8     LIBCMTD:initializers.obj
 0002:000002b0       __acrt_locale_terminator   000000018003b2b0     libucrtd:locale_initializer.obj
 0002:000002b8       __dcrt_console_output_terminator 000000018003b2b8     libucrtd:console_output_initializer.obj
 0002:000002c0       __acrt_stdio_terminator    000000018003b2c0     libucrtd:stdio_initializer.obj
 0002:000002c8       __xp_z                     000000018003b2c8     LIBCMTD:initializers.obj
 0002:000002d0       __xt_a                     000000018003b2d0     LIBCMTD:initializers.obj
 0002:000002d8       __xt_z                     000000018003b2d8     LIBCMTD:initializers.obj
 0002:000002e0       __real@00000000            000000018003b2e0     gamecode.obj
 0002:000002e4       __real@28800000            000000018003b2e4     gamecode.obj
 0002:000002e8       __real@34000000            000000018003b2e8     gamecode.obj
 0002:000002ec       __real@3ba3d70a            000000018003b2ec     gamecode.obj
 0002:000002f0       __real@3c23d70a            000000018003b2f0     gamecode.obj
 0002:000002f4       __real@3dcccccd            000000018003b2f4     gamecode.obj
 0002:000002f8       __real@3f000000            000000018003b2f8     gamecode.obj
 0002:000002fc       __real@3f733333            000000018003b2fc     gamecode.obj
 0002:00000300       __real@3f800000            000000018003b300     gamecode.obj
 0002:00000308       __real@3feff7ced916872b    000000018003b308     gamecode.obj
 0002:00000310       __real@40000000            000000018003b310     gamecode.obj
 0002:00000314       __real@41200000            000000018003b314     gamecode.obj
 0002:00000318       __real@41a00000            000000018003b318     gamecode.obj
 0002:0000031c       __real@42c80000            000000018003b31c     gamecode.obj
 0002:00000320       __real@42dc0000            000000018003b320     gamecode.obj
 0002:00000324       __real@42f00000            000000018003b324     gamecode.obj
 0002:00000328       __real@437f0000            000000018003b328     gamecode.obj
 0002:0000032c       __real@43cd0000            000000018003b32c     gamecode.obj
 0002:00000330       __real@43fa0000            000000018003b330     gamecode.obj
 0002:00000334       __real@7f7fffff            000000018003b334     gamecode.obj
 0002:00000338       __real@bf800000            000000018003b338     gamecode.obj
 0002:0000033c       __real@ff7fffff            000000018003b33c     gamecode.obj
 0002:00000340       __xmm@7fffffffffffffff7fffffffffffffff 000000018003b340     gamecode.obj
 0002:00000350       __xmm@80000000800000008000000080000000 000000018003b350     gamecode.obj
 0002:00000360       _pRawDllMain               000000018003b360     LIBCMTD:dll_dllmain.obj
 0002:00000360       _pDefaultRawDllMain        000000018003b360     LIBCMTD:dll_dllmain.obj
 0002:00000378       _Microsoft_CRTProvider     000000018003b378     libvcruntimed:telemetry.obj
 0002:00000380       ??_C@_00CNPNBAHC@?$AA@     000000018003b380     libvcruntimed:telemetry.obj
 0002:00000384       ??_C@_11LOCGONAA@?$AA?$AA@ 000000018003b384     libvcruntimed:telemetry.obj
 0002:00000388       ??_C@_0O@JEOPJOMI@Main?5Invoked?4?$AA@ 000000018003b388     libvcruntimed:telemetry.obj
 0002:00000398       ??_C@_0P@NEAEIBDO@Main?5Returned?4?$AA@ 000000018003b398     libvcruntimed:telemetry.obj
 0002:000003c8       ??_C@_1BC@DNHGCMLG@?$AAa?$AAd?$AAv?$AAa?$AAp?$AAi?$AA3?$AA2?$AA?$AA@ 000000018003b3c8     libvcruntimed:winapi_downlevel.obj
 0002:000003e0       ??_C@_1DM@KHCHBNEB@?$AAa?$AAp?$AAi?$AA?9?$AAm?$AAs?$AA?9?$AAw?$AAi?$AAn?$AA?9?$AAc?$AAo?$AAr?$AAe?$AA?9?$AAf?$AAi?$AAb?$AAe?$AAr?$AAs?$AA?9?$AAl?$AA1?$AA?9?$AA1?$AA?9?$AA1?$AA?$AA@ 000000018003b3e0     libvcruntimed:winapi_downlevel.obj
 0002:00000420       ??_C@_1DK@LPPGFMPP@?$AAa?$AAp?$AAi?$AA?9?$AAm?$AAs?$AA?9?$AAw?$AAi?$AAn?$AA?9?$AAc?$AAo?$AAr?$AAe?$AA?9?$AAs?$AAy?$AAn?$AAc?$AAh?$AA?9?$AAl?$AA1?$AA?9?$AA2?$AA?9?$AA0?$AA?$AA@ 000000018003b420     libvcruntimed:winapi_downlevel.obj
 0002:00000460       ??_C@_1BC@GDMECMAK@?$AAk?$AAe?$AAr?$AAn?$AAe?$AAl?$AA3?$AA2?$AA?$AA@ 000000018003b460     libvcruntimed:winapi_downlevel.obj
 0002:00000478       ??_C@_17CNPHIMPH@?$AA?$CF?$AAl?$AAs?$AA?$AA@ 000000018003b478     libvcruntimed:winapi_downlevel.obj
 0002:00000480       ??_C@_1EM@LBIFGLGH@?$AAc?$AAa?$AAc?$AAh?$AAe?$AAd?$AA_?$AAh?$AAa?$AAn?$AAd?$AAl?$AAe?$AA?5?$AA?$DN?$AA?$DN?$AA?5?$AAI?$AAN?$AAV?$AAA?$AAL?$AAI?$AAD?$AA_?$AAH?$AAA?$AAN?$AAD?$AAL?$AAE?$AA_@ 000000018003b480     libvcruntimed:winapi_downlevel.obj
 0002:000004d0       ??_C@_1HM@FGPKDEPG@?$AAf?$AA?3?$AA?2?$AAd?$AAd?$AA?2?$AAv?$AAc?$AAt?$AAo?$AAo?$AAl?$AAs?$AA?2?$AAc?$AAr?$AAt?$AA?2?$AAv?$AAc?$AAr?$AAu?$AAn?$AAt?$AAi?$AAm?$AAe?$AA?2?$AAs?$AAr?$AAc?$AA?2@ 000000018003b4d0     libvcruntimed:winapi_downlevel.obj
 0002:00000550       ??_C@_1DI@MAHEDLDB@?$AAc?$AAa?$AAc?$AAh?$AAe?$AAd?$AA_?$AAh?$AAa?$AAn?$AAd?$AAl?$AAe?$AA?5?$AA?$DN?$AA?$DN?$AA?5?$AAn?$AAe?$AAw?$AA_?$AAh?$AAa?$AAn?$AAd?$AAl?$AAe?$AA?$AA@ 000000018003b550     libvcruntimed:winapi_downlevel.obj
 0002:00000590       ??_C@_1FC@IBNCGNKL@?$AAc?$AAa?$AAc?$AAh?$AAe?$AAd?$AA_?$AAf?$AAp?$AA?5?$AA?$DN?$AA?$DN?$AA?5?$AAi?$AAn?$AAv?$AAa?$AAl?$AAi?$AAd?$AA_?$AAf?$AAu?$AAn?$AAc?$AAt?$AAi?$AAo?$AAn?$AA_?$AAs?$AAe@ 000000018003b590     libvcruntimed:winapi_downlevel.obj
 0002:000005e8       ??_C@_1CI@GDJBAGLP@?$AAc?$AAa?$AAc?$AAh?$AAe?$AAd?$AA_?$AAf?$AAp?$AA?5?$AA?$DN?$AA?$DN?$AA?5?$AAn?$AAe?$AAw?$AA_?$AAf?$AAp?$AA?$AA@ 000000018003b5e8     libvcruntimed:winapi_downlevel.obj
 0002:00000618       ??_C@_0O@BAMBGLIE@EventRegister?$AA@ 000000018003b618     libvcruntimed:winapi_downlevel.obj
 0002:00000630       ??_C@_0BE@BJEEGHGK@EventSetInformation?$AA@ 000000018003b630     libvcruntimed:winapi_downlevel.obj
 0002:00000648       ??_C@_0BA@FAKLIPIC@EventUnregister?$AA@ 000000018003b648     libvcruntimed:winapi_downlevel.obj
 0002:00000660       ??_C@_0BD@PKLHJPHD@EventWriteTransfer?$AA@ 000000018003b660     libvcruntimed:winapi_downlevel.obj
 0002:00000680       ??_C@_08KNHFBNJ@FlsAlloc?$AA@ 000000018003b680     libvcruntimed:winapi_downlevel.obj
 0002:00000698       ??_C@_07PEJMOBNF@FlsFree?$AA@ 000000018003b698     libvcruntimed:winapi_downlevel.obj
 0002:000006a8       ??_C@_0M@GDNOONDI@FlsGetValue?$AA@ 000000018003b6a8     libvcruntimed:winapi_downlevel.obj
 0002:000006c0       ??_C@_0M@JCPCPOEF@FlsSetValue?$AA@ 000000018003b6c0     libvcruntimed:winapi_downlevel.obj
 0002:000006d8       ??_C@_0BM@HCFOFFN@InitializeCriticalSectionEx?$AA@ 000000018003b6d8     libvcruntimed:winapi_downlevel.obj
 0002:000006f8       ??_C@_0DN@JAECLCAP@f?3?2dd?2vctools?2crt?2vcruntime?2src?2@ 000000018003b6f8     libvcruntimed:per_thread_data.obj
 0002:00000a60       ??_C@_08EHJDFFNH@__based?$CI?$AA@ 000000018003ba60     libvcruntimed:undname.obj
 0002:00000a70       ??_C@_07KOLFKCDI@__cdecl?$AA@ 000000018003ba70     libvcruntimed:undname.obj
 0002:00000a78       ??_C@_08GHMPAG@__pascal?$AA@ 000000018003ba78     libvcruntimed:undname.obj
 0002:00000a88       ??_C@_09IFJBGAPI@__stdcall?$AA@ 000000018003ba88     libvcruntimed:undname.obj
 0002:00000a98       ??_C@_0L@NPHFGOKO@__thiscall?$AA@ 000000018003ba98     libvcruntimed:undname.obj
 0002:00000aa8       ??_C@_0L@JMKHOMEK@__fastcall?$AA@ 000000018003baa8     libvcruntimed:undname.obj
 0002:00000ab8       ??_C@_0N@BCKKPABJ@__vectorcall?$AA@ 000000018003bab8     libvcruntimed:undname.obj
 0002:00000ac8       ??_C@_09HIJEGCPM@__clrcall?$AA@ 000000018003bac8     libvcruntimed:undname.obj
 0002:00000ad4       ??_C@_06GHPCKEAG@__eabi?$AA@ 000000018003bad4     libvcruntimed:undname.obj
 0002:00000ae0       ??_C@_07JOMMBBKO@__ptr64?$AA@ 000000018003bae0     libvcruntimed:undname.obj
 0002:00000ae8       ??_C@_0L@PILCLIHE@__restrict?$AA@ 000000018003bae8     libvcruntimed:undname.obj
 0002:00000af8       ??_C@_0M@GFIIJFMG@__unaligned?$AA@ 000000018003baf8     libvcruntimed:undname.obj
 0002:00000b08       ??_C@_09DHDLOLLB@restrict?$CI?$AA@ 000000018003bb08     libvcruntimed:undname.obj
 0002:00000b14       ??_C@_04NIHEBCM@?5new?$AA@ 000000018003bb14     libvcruntimed:undname.obj
 0002:00000b20       ??_C@_07FPCDHGMM@?5delete?$AA@ 000000018003bb20     libvcruntimed:undname.obj
 0002:00000b28       ??_C@_01NEMOKFLO@?$DN?$AA@ 000000018003bb28     libvcruntimed:undname.obj
 0002:00000b2c       ??_C@_02GPIOPFAK@?$DO?$DO?$AA@ 000000018003bb2c     libvcruntimed:undname.obj
 0002:00000b30       ??_C@_02FODMEDOG@?$DM?$DM?$AA@ 000000018003bb30     libvcruntimed:undname.obj
 0002:00000b34       ??_C@_01DCLJPIOD@?$CB?$AA@ 000000018003bb34     libvcruntimed:undname.obj
 0002:00000b38       ??_C@_02EGOFBIJA@?$DN?$DN?$AA@ 000000018003bb38     libvcruntimed:undname.obj
 0002:00000b3c       ??_C@_02FDNJECIE@?$CB?$DN?$AA@ 000000018003bb3c     libvcruntimed:undname.obj
 0002:00000b40       ??_C@_02GPECMEKF@?$FL?$FN?$AA@ 000000018003bb40     libvcruntimed:undname.obj
 0002:00000b48       ??_C@_08LHJFAFGD@operator?$AA@ 000000018003bb48     libvcruntimed:undname.obj
 0002:00000b54       ??_C@_02HBOOOICD@?9?$DO?$AA@ 000000018003bb54     libvcruntimed:undname.obj
 0002:00000b58       ??_C@_01NBENCBCI@?$CK?$AA@ 000000018003bb58     libvcruntimed:undname.obj
 0002:00000b5c       ??_C@_02ECNGHCIF@?$CL?$CL?$AA@ 000000018003bb5c     libvcruntimed:undname.obj
 0002:00000b60       ??_C@_02BAABKJLB@?9?9?$AA@ 000000018003bb60     libvcruntimed:undname.obj
 0002:00000b64       ??_C@_01JOAMLHOP@?9?$AA@   000000018003bb64     libvcruntimed:undname.obj
 0002:00000b68       ??_C@_01MIFGBAGJ@?$CL?$AA@ 000000018003bb68     libvcruntimed:undname.obj
 0002:00000b6c       ??_C@_01HNPIGOCE@?$CG?$AA@ 000000018003bb6c     libvcruntimed:undname.obj
 0002:00000b70       ??_C@_03MNHNFDLC@?9?$DO?$CK?$AA@ 000000018003bb70     libvcruntimed:undname.obj
 0002:00000b74       ??_C@_01KMDKNFGN@?1?$AA@   000000018003bb74     libvcruntimed:undname.obj
 0002:00000b78       ??_C@_01FGNFDNOH@?$CF?$AA@ 000000018003bb78     libvcruntimed:undname.obj
 0002:00000b7c       ??_C@_01MNNFJEPP@?$DM?$AA@ 000000018003bb7c     libvcruntimed:undname.obj
 0002:00000b80       ??_C@_02EHCHHCKH@?$DM?$DN?$AA@ 000000018003bb80     libvcruntimed:undname.obj
 0002:00000b84       ??_C@_01PPODPGHN@?$DO?$AA@ 000000018003bb84     libvcruntimed:undname.obj
 0002:00000b88       ??_C@_02EEKDKGMJ@?$DO?$DN?$AA@ 000000018003bb88     libvcruntimed:undname.obj
 0002:00000b8c       ??_C@_01IHBHIGKO@?0?$AA@   000000018003bb8c     libvcruntimed:undname.obj
 0002:00000b90       ??_C@_02HCKGKOFO@?$CI?$CJ?$AA@ 000000018003bb90     libvcruntimed:undname.obj
 0002:00000b94       ??_C@_01PJKLJHI@?$HO?$AA@  000000018003bb94     libvcruntimed:undname.obj
 0002:00000b98       ??_C@_01JKBOJNNK@?$FO?$AA@ 000000018003bb98     libvcruntimed:undname.obj
 0002:00000b9c       ??_C@_01DNKMNLPK@?$HM?$AA@ 000000018003bb9c     libvcruntimed:undname.obj
 0002:00000ba0       ??_C@_02PPKAJPJL@?$CG?$CG?$AA@ 000000018003bba0     libvcruntimed:undname.obj
 0002:00000ba4       ??_C@_02NONPIBCD@?$HM?$HM?$AA@ 000000018003bba4     libvcruntimed:undname.obj
 0002:00000ba8       ??_C@_02FPIMKNGF@?$CK?$DN?$AA@ 000000018003bba8     libvcruntimed:undname.obj
 0002:00000bac       ??_C@_02FOEOMHFC@?$CL?$DN?$AA@ 000000018003bbac     libvcruntimed:undname.obj
 0002:00000bb0       ??_C@_02FKMDLLOA@?9?$DN?$AA@ 000000018003bbb0     libvcruntimed:undname.obj
 0002:00000bb4       ??_C@_02FJEHGPIO@?1?$DN?$AA@ 000000018003bbb4     libvcruntimed:undname.obj
 0002:00000bb8       ??_C@_02FENAOKFI@?$CF?$DN?$AA@ 000000018003bbb8     libvcruntimed:undname.obj
 0002:00000bbc       ??_C@_03IKFCCPFF@?$DO?$DO?$DN?$AA@ 000000018003bbbc     libvcruntimed:undname.obj
 0002:00000bc0       ??_C@_03CDNPDDLA@?$DM?$DM?$DN?$AA@ 000000018003bbc0     libvcruntimed:undname.obj
 0002:00000bc4       ??_C@_02FGJGFEAB@?$CG?$DN?$AA@ 000000018003bbc4     libvcruntimed:undname.obj
 0002:00000bc8       ??_C@_02DHLNPPGH@?$HM?$DN?$AA@ 000000018003bbc8     libvcruntimed:undname.obj
 0002:00000bcc       ??_C@_02MHEGNOJ@?$FO?$DN?$AA@ 000000018003bbcc     libvcruntimed:undname.obj
 0002:00000bd0       ??_C@_09IFPLHPGF@?$GAvftable?8?$AA@ 000000018003bbd0     libvcruntimed:undname.obj
 0002:00000be0       ??_C@_09BLBHBJP@?$GAvbtable?8?$AA@ 000000018003bbe0     libvcruntimed:undname.obj
 0002:00000bf0       ??_C@_07FEEIOKP@?$GAvcall?8?$AA@ 000000018003bbf0     libvcruntimed:undname.obj
 0002:00000bf8       ??_C@_08LLFFHHDJ@?$GAtypeof?8?$AA@ 000000018003bbf8     libvcruntimed:undname.obj
 0002:00000c08       ??_C@_0BF@KDPPACIK@?$GAlocal?5static?5guard?8?$AA@ 000000018003bc08     libvcruntimed:undname.obj
 0002:00000c20       ??_C@_08OBABFOLI@?$GAstring?8?$AA@ 000000018003bc20     libvcruntimed:undname.obj
 0002:00000c30       ??_C@_0BD@JDLKDPAB@?$GAvbase?5destructor?8?$AA@ 000000018003bc30     libvcruntimed:undname.obj
 0002:00000c48       ??_C@_0BN@DEGPLNFK@?$GAvector?5deleting?5destructor?8?$AA@ 000000018003bc48     libvcruntimed:undname.obj
 0002:00000c68       ??_C@_0BO@OBMKPJIG@?$GAdefault?5constructor?5closure?8?$AA@ 000000018003bc68     libvcruntimed:undname.obj
 0002:00000c88       ??_C@_0BN@IMDCHIKM@?$GAscalar?5deleting?5destructor?8?$AA@ 000000018003bc88     libvcruntimed:undname.obj
 0002:00000ca8       ??_C@_0BO@PFGOCPJJ@?$GAvector?5constructor?5iterator?8?$AA@ 000000018003bca8     libvcruntimed:undname.obj
 0002:00000cc8       ??_C@_0BN@LFPFMEDL@?$GAvector?5destructor?5iterator?8?$AA@ 000000018003bcc8     libvcruntimed:undname.obj
 0002:00000ce8       ??_C@_0CE@IKBNEHA@?$GAvector?5vbase?5constructor?5iterat@ 000000018003bce8     libvcruntimed:undname.obj
 0002:00000d10       ??_C@_0BL@NILFHHPC@?$GAvirtual?5displacement?5map?8?$AA@ 000000018003bd10     libvcruntimed:undname.obj
 0002:00000d30       ??_C@_0CB@JONCMFFK@?$GAeh?5vector?5constructor?5iterator?8@ 000000018003bd30     libvcruntimed:undname.obj
 0002:00000d58       ??_C@_0CA@GCEOPDGL@?$GAeh?5vector?5destructor?5iterator?8?$AA@ 000000018003bd58     libvcruntimed:undname.obj
 0002:00000d78       ??_C@_0CH@OOJPLCPH@?$GAeh?5vector?5vbase?5constructor?5ite@ 000000018003bd78     libvcruntimed:undname.obj
 0002:00000da0       ??_C@_0BL@LLKPOHJI@?$GAcopy?5constructor?5closure?8?$AA@ 000000018003bda0     libvcruntimed:undname.obj
 0002:00000dc0       ??_C@_0BA@KBCDOMBN@?$GAudt?5returning?8?$AA@ 000000018003bdc0     libvcruntimed:undname.obj
 0002:00000dd0       ??_C@_03KLGMFNMG@?$GAEH?$AA@ 000000018003bdd0     libvcruntimed:undname.obj
 0002:00000dd4       ??_C@_05KHLCHHI@?$GARTTI?$AA@ 000000018003bdd4     libvcruntimed:undname.obj
 0002:00000de0       ??_C@_0BA@KKLDJDLB@?$GAlocal?5vftable?8?$AA@ 000000018003bde0     libvcruntimed:undname.obj
 0002:00000df0       ??_C@_0CE@IIHCMGGL@?$GAlocal?5vftable?5constructor?5closu@ 000000018003bdf0     libvcruntimed:undname.obj
 0002:00000e14       ??_C@_06FHBGPFGH@?5new?$FL?$FN?$AA@ 000000018003be14     libvcruntimed:undname.obj
 0002:00000e20       ??_C@_09LBNFPBCA@?5delete?$FL?$FN?$AA@ 000000018003be20     libvcruntimed:undname.obj
 0002:00000e30       ??_C@_0P@HJKNJFNN@?$GAomni?5callsig?8?$AA@ 000000018003be30     libvcruntimed:undname.obj
 0002:00000e40       ??_C@_0BL@CNOONJFP@?$GAplacement?5delete?5closure?8?$AA@ 000000018003be40     libvcruntimed:undname.obj
 0002:00000e60       ??_C@_0BN@CKNJLHMB@?$GAplacement?5delete?$FL?$FN?5closure?8?$AA@ 000000018003be60     libvcruntimed:undname.obj
 0002:00000e80       ??_C@_0CG@CFDHKGGD@?$GAmanaged?5vector?5constructor?5iter@ 000000018003be80     libvcruntimed:undname.obj
 0002:00000ea8       ??_C@_0CF@IMGKMJNO@?$GAmanaged?5vector?5destructor?5itera@ 000000018003bea8     libvcruntimed:undname.obj
 0002:00000ed0       ??_C@_0CG@HLDDJMAG@?$GAeh?5vector?5copy?5constructor?5iter@ 000000018003bed0     libvcruntimed:undname.obj
 0002:00000ef8       ??_C@_0CM@FCBBDIGB@?$GAeh?5vector?5vbase?5copy?5constructo@ 000000018003bef8     libvcruntimed:undname.obj
 0002:00000f28       ??_C@_0BL@CLIPGLGB@?$GAdynamic?5initializer?5for?5?8?$AA@ 000000018003bf28     libvcruntimed:undname.obj
 0002:00000f48       ??_C@_0CB@PDBIFEP@?$GAdynamic?5atexit?5destructor?5for?5?8@ 000000018003bf48     libvcruntimed:undname.obj
 0002:00000f70       ??_C@_0CD@CGAJBKEJ@?$GAvector?5copy?5constructor?5iterato@ 000000018003bf70     libvcruntimed:undname.obj
 0002:00000f98       ??_C@_0CJ@GJELGAMM@?$GAvector?5vbase?5copy?5constructor?5i@ 000000018003bf98     libvcruntimed:undname.obj
 0002:00000fc8       ??_C@_0CL@FGIJHLCE@?$GAmanaged?5vector?5copy?5constructor@ 000000018003bfc8     libvcruntimed:undname.obj
 0002:00000ff8       ??_C@_0BM@PMGGMLDN@?$GAlocal?5static?5thread?5guard?8?$AA@ 000000018003bff8     libvcruntimed:undname.obj
 0002:00001018       ??_C@_0N@BDNMDMOL@operator?5?$CC?$CC?5?$AA@ 000000018003c018     libvcruntimed:undname.obj
 0002:00001028       ??_C@_0BC@DAFEJGAK@?5Type?5Descriptor?8?$AA@ 000000018003c028     libvcruntimed:undname.obj
 0002:00001040       ??_C@_0BM@LDKODKLH@?5Base?5Class?5Descriptor?5at?5?$CI?$AA@ 000000018003c040     libvcruntimed:undname.obj
 0002:00001060       ??_C@_0BD@LGICGFMM@?5Base?5Class?5Array?8?$AA@ 000000018003c060     libvcruntimed:undname.obj
 0002:00001078       ??_C@_0BN@MECKDCOJ@?5Class?5Hierarchy?5Descriptor?8?$AA@ 000000018003c078     libvcruntimed:undname.obj
 0002:00001098       ??_C@_0BK@CFCOFLF@?5Complete?5Object?5Locator?8?$AA@ 000000018003c098     libvcruntimed:undname.obj
 0002:000010b4       ??_C@_05KGFAIMPG@sqrtf?$AA@ 000000018003c0b4     libucrtd:sqrtf.obj
 0002:000010c0       __acrt_exception_action_table 000000018003c0c0     libucrtd:exception_filter.obj
 0002:00001180       __acrt_signal_action_table_count 000000018003c180     libucrtd:exception_filter.obj
 0002:00001188       __acrt_signal_action_first_fpe_index 000000018003c188     libucrtd:exception_filter.obj
 0002:00001190       __acrt_signal_action_fpe_count 000000018003c190     libucrtd:exception_filter.obj
 0002:00001198       ??_C@_1BI@BGOHAHKC@?$AAm?$AAs?$AAc?$AAo?$AAr?$AAe?$AAe?$AA?4?$AAd?$AAl?$AAl?$AA?$AA@ 000000018003c198     libucrtd:exit.obj
 0002:000011b0       ??_C@_0P@MIGLKIOC@CorExitProcess?$AA@ 000000018003c1b0     libucrtd:exit.obj
 0002:000011c0       ??_C@_0EG@LEHKHOEH@minkernel?2crts?2ucrt?2src?2desktopc@ 000000018003c1c0     libucrtd:environment_initialization.obj
 0002:00001210       ??_C@_1IM@IMOFFPLG@?$AAm?$AAi?$AAn?$AAk?$AAe?$AAr?$AAn?$AAe?$AAl?$AA?2?$AAc?$AAr?$AAt?$AAs?$AA?2?$AAu?$AAc?$AAr?$AAt?$AA?2?$AAs?$AAr?$AAc?$AA?2?$AAd?$AAe?$AAs?$AAk?$AAt?$AAo?$AAp?$AAc@ 000000018003c210     libucrtd:environment_initialization.obj
 0002:000012a0       ??_C@_1CG@MNNNBNAK@?$AAc?$AAr?$AAe?$AAa?$AAt?$AAe?$AA_?$AAe?$AAn?$AAv?$AAi?$AAr?$AAo?$AAn?$AAm?$AAe?$AAn?$AAt?$AA?$AA@ 000000018003c2a0     libucrtd:environment_initialization.obj
 0002:000012d0       ??_C@_1HI@OOPIFFGA@?$AAt?$AAr?$AAa?$AAi?$AAt?$AAs?$AA?3?$AA?3?$AAt?$AAc?$AAs?$AAc?$AAp?$AAy?$AA_?$AAs?$AA?$CI?$AAv?$AAa?$AAr?$AAi?$AAa?$AAb?$AAl?$AAe?$AA?4?$AAg?$AAe?$AAt?$AA?$CI?$AA?$CJ?$AA?0@ 000000018003c2d0     libucrtd:environment_initialization.obj
 0002:00001348       ??_C@_0DC@NBHMIIKL@minkernel?2crts?2ucrt?2src?2appcrt?2s@ 000000018003c348     libucrtd:onexit.obj
 0002:00001498       ??_C@_04HJMOFLDF@Free?$AA@ 000000018003c498     libucrtd:debug_heap.obj
 0002:000014a0       ??_C@_06EFAGIKOH@Normal?$AA@ 000000018003c4a0     libucrtd:debug_heap.obj
 0002:000014a8       ??_C@_03OGPFLFLO@CRT?$AA@  000000018003c4a8     libucrtd:debug_heap.obj
 0002:000014ac       ??_C@_06KMEJCCGM@Ignore?$AA@ 000000018003c4ac     libucrtd:debug_heap.obj
 0002:000014b4       ??_C@_06PJIGMIJB@Client?$AA@ 000000018003c4b4     libucrtd:debug_heap.obj
 0002:000014c0       ??_C@_1CE@LJFEPPMP@?$AA_?$AAC?$AAr?$AAt?$AAC?$AAh?$AAe?$AAc?$AAk?$AAM?$AAe?$AAm?$AAo?$AAr?$AAy?$AA?$CI?$AA?$CJ?$AA?$AA@ 000000018003c4c0     libucrtd:debug_heap.obj
 0002:000014f0       ??_C@_1GG@OCLHPJPK@?$AAm?$AAi?$AAn?$AAk?$AAe?$AAr?$AAn?$AAe?$AAl?$AA?2?$AAc?$AAr?$AAt?$AAs?$AA?2?$AAu?$AAc?$AAr?$AAt?$AA?2?$AAs?$AAr?$AAc?$AA?2?$AAa?$AAp?$AAp?$AAc?$AAr?$AAt?$AA?2?$AAh@ 000000018003c4f0     libucrtd:debug_heap.obj
 0002:00001558       ??_C@_0DF@BBEGIFEK@Client?5hook?5allocation?5failure?5a@ 000000018003c558     libucrtd:debug_heap.obj
 0002:00001590       ??_C@_0CB@CCLOLAHO@Client?5hook?5allocation?5failure?4?6@ 000000018003c590     libucrtd:debug_heap.obj
 0002:000015b4       ??_C@_02DKCKIIND@?$CFs?$AA@ 000000018003c5b4     libucrtd:debug_heap.obj
 0002:000015b8       ??_C@_0DC@JEMAGEKG@Error?3?5memory?5allocation?3?5bad?5me@ 000000018003c5b8     libucrtd:debug_heap.obj
 0002:000015f0       ??_C@_0DI@KKJPDPGM@Client?5hook?5re?9allocation?5failur@ 000000018003c5f0     libucrtd:debug_heap.obj
 0002:00001628       ??_C@_0CE@DOFMDOL@Client?5hook?5re?9allocation?5failur@ 000000018003c628     libucrtd:debug_heap.obj
 0002:00001650       ??_C@_0FA@EFEIGJKG@Error?3?5memory?5allocation?3?5bad?5me@ 000000018003c650     libucrtd:debug_heap.obj
 0002:000016a0       ??_C@_0EM@LGFLMAGJ@The?5Block?5at?50x?$CFp?5was?5allocated?5@ 000000018003c6a0     libucrtd:debug_heap.obj
 0002:000016f0       ??_C@_1DM@DEDLGNML@?$AA_?$AAC?$AAr?$AAt?$AAI?$AAs?$AAV?$AAa?$AAl?$AAi?$AAd?$AAH?$AAe?$AAa?$AAp?$AAP?$AAo?$AAi?$AAn?$AAt?$AAe?$AAr?$AA?$CI?$AAb?$AAl?$AAo?$AAc?$AAk?$AA?$CJ?$AA?$AA@ 000000018003c6f0     libucrtd:debug_heap.obj
 0002:00001730       ??_C@_1PC@MCGKJLN@?$AAo?$AAl?$AAd?$AA_?$AAh?$AAe?$AAa?$AAd?$AA?9?$AA?$DO?$AA_?$AAl?$AAi?$AAn?$AAe?$AA_?$AAn?$AAu?$AAm?$AAb?$AAe?$AAr?$AA?5?$AA?$DN?$AA?$DN?$AA?5?$AAl?$AAi?$AAn?$AAe?$AA_?$AAn@ 000000018003c730     libucrtd:debug_heap.obj
 0002:00001828       ??_C@_0DA@HFBKENN@Error?3?5possible?5heap?5corruption?5@ 000000018003c828     libucrtd:debug_heap.obj
 0002:00001860       ??_C@_1JM@MCMEPJEP@?$AAr?$AAe?$AAa?$AAl?$AAl?$AAo?$AAc?$AAa?$AAt?$AAi?$AAo?$AAn?$AA_?$AAi?$AAs?$AA_?$AAa?$AAl?$AAl?$AAo?$AAw?$AAe?$AAd?$AA?5?$AA?$HM?$AA?$HM?$AA?5?$AA?$CI?$AA?$CB?$AAr?$AAe?$AAa@ 000000018003c860     libucrtd:debug_heap.obj
 0002:00001900       ??_C@_1DM@LNOPKAIJ@?$AA_?$AA_?$AAa?$AAc?$AAr?$AAt?$AA_?$AAl?$AAa?$AAs?$AAt?$AA_?$AAb?$AAl?$AAo?$AAc?$AAk?$AA?5?$AA?$DN?$AA?$DN?$AA?5?$AAo?$AAl?$AAd?$AA_?$AAh?$AAe?$AAa?$AAd?$AA?$AA@ 000000018003c900     libucrtd:debug_heap.obj
 0002:00001940       ??_C@_1DO@HABCJBHO@?$AA_?$AA_?$AAa?$AAc?$AAr?$AAt?$AA_?$AAf?$AAi?$AAr?$AAs?$AAt?$AA_?$AAb?$AAl?$AAo?$AAc?$AAk?$AA?5?$AA?$DN?$AA?$DN?$AA?5?$AAo?$AAl?$AAd?$AA_?$AAh?$AAe?$AAa?$AAd?$AA?$AA@ 000000018003c940     libucrtd:debug_heap.obj
 0002:00001980       ??_C@_1CC@CKEAHJPH@?$AAb?$AAl?$AAo?$AAc?$AAk?$AA?5?$AA?$CB?$AA?$DN?$AA?5?$AAn?$AAu?$AAl?$AAl?$AAp?$AAt?$AAr?$AA?$AA@ 000000018003c980     libucrtd:debug_heap.obj
 0002:000019b0       ??_C@_0EJ@HEIBCIMJ@The?5Block?5at?50x?$CFp?5was?5allocated?5@ 000000018003c9b0     libucrtd:debug_heap.obj
 0002:00001a00       ??_C@_0BL@KEIPLFAC@Client?5hook?5free?5failure?4?6?$AA@ 000000018003ca00     libucrtd:debug_heap.obj
 0002:00001a20       ??_C@_1FA@KDNEBILF@?$AAi?$AAs?$AA_?$AAb?$AAl?$AAo?$AAc?$AAk?$AA_?$AAt?$AAy?$AAp?$AAe?$AA_?$AAv?$AAa?$AAl?$AAi?$AAd?$AA?$CI?$AAh?$AAe?$AAa?$AAd?$AAe?$AAr?$AA?9?$AA?$DO?$AA_?$AAb?$AAl?$AAo@ 000000018003ca20     libucrtd:debug_heap.obj
 0002:00001a70       ??_C@_0KI@JGFOHMEB@HEAP?5CORRUPTION?5DETECTED?3?5before@ 000000018003ca70     libucrtd:debug_heap.obj
 0002:00001b20       ??_C@_0IK@PJCGLBOB@HEAP?5CORRUPTION?5DETECTED?3?5before@ 000000018003cb20     libucrtd:debug_heap.obj
 0002:00001bb0       ??_C@_0KE@MBMNHHHN@HEAP?5CORRUPTION?5DETECTED?3?5after?5@ 000000018003cbb0     libucrtd:debug_heap.obj
 0002:00001c60       ??_C@_0IG@LEMBDCJK@HEAP?5CORRUPTION?5DETECTED?3?5after?5@ 000000018003cc60     libucrtd:debug_heap.obj
 0002:00001cf0       ??_C@_1OK@GFEOEJAF@?$AAh?$AAe?$AAa?$AAd?$AAe?$AAr?$AA?9?$AA?$DO?$AA_?$AAl?$AAi?$AAn?$AAe?$AA_?$AAn?$AAu?$AAm?$AAb?$AAe?$AAr?$AA?5?$AA?$DN?$AA?$DN?$AA?5?$AAl?$AAi?$AAn?$AAe?$AA_?$AAn?$AAu?$AAm@ 000000018003ccf0     libucrtd:debug_heap.obj
 0002:00001de0       ??_C@_1ME@GFALMLNA@?$AAh?$AAe?$AAa?$AAd?$AAe?$AAr?$AA?9?$AA?$DO?$AA_?$AAb?$AAl?$AAo?$AAc?$AAk?$AA_?$AAu?$AAs?$AAe?$AA?5?$AA?$DN?$AA?$DN?$AA?5?$AAb?$AAl?$AAo?$AAc?$AAk?$AA_?$AAu?$AAs?$AAe?$AA?5@ 000000018003cde0     libucrtd:debug_heap.obj
 0002:00001ea8       ??_C@_1DI@ILNOPEPI@?$AA_?$AA_?$AAa?$AAc?$AAr?$AAt?$AA_?$AAl?$AAa?$AAs?$AAt?$AA_?$AAb?$AAl?$AAo?$AAc?$AAk?$AA?5?$AA?$DN?$AA?$DN?$AA?5?$AAh?$AAe?$AAa?$AAd?$AAe?$AAr?$AA?$AA@ 000000018003cea8     libucrtd:debug_heap.obj
 0002:00001ee0       ??_C@_1DK@KEHFGDIJ@?$AA_?$AA_?$AAa?$AAc?$AAr?$AAt?$AA_?$AAf?$AAi?$AAr?$AAs?$AAt?$AA_?$AAb?$AAl?$AAo?$AAc?$AAk?$AA?5?$AA?$DN?$AA?$DN?$AA?5?$AAh?$AAe?$AAa?$AAd?$AAe?$AAr?$AA?$AA@ 000000018003cee0     libucrtd:debug_heap.obj
 0002:00001f20       ??_C@_1BG@MBKOGDLD@?$AA_?$AAm?$AAs?$AAi?$AAz?$AAe?$AA_?$AAd?$AAb?$AAg?$AA?$AA@ 000000018003cf20     libucrtd:debug_heap.obj
 0002:00001f38       ??_C@_07OHKEFPKJ@DAMAGED?$AA@ 000000018003cf38     libucrtd:debug_heap.obj
 0002:00001f40       ??_C@_0KA@IHNJJKPL@HEAP?5CORRUPTION?5DETECTED?3?5on?5top@ 000000018003cf40     libucrtd:debug_heap.obj
 0002:00001fe0       ??_C@_0IC@BBJIOOJH@HEAP?5CORRUPTION?5DETECTED?3?5on?5top@ 000000018003cfe0     libucrtd:debug_heap.obj
 0002:00002070       ??_C@_0EG@DGJMPDBH@?$CFhs?5located?5at?50x?$CFp?5is?5?$CFIu?5bytes@ 000000018003d070     libucrtd:debug_heap.obj
 0002:000020b8       ??_C@_0CI@JMLBEDHJ@?$CFhs?5located?5at?50x?$CFp?5is?5?$CFIu?5bytes@ 000000018003d0b8     libucrtd:debug_heap.obj
 0002:000020e0       ??_C@_0EG@GPFHANHO@Cycle?5in?5block?5list?5detected?5whi@ 000000018003d0e0     libucrtd:debug_heap.obj
 0002:00002128       ??_C@_0BJ@ELMAOCAJ@Heap?5validation?5failed?4?6?$AA@ 000000018003d128     libucrtd:debug_heap.obj
 0002:00002150       ??_C@_1IE@BBIFDGEB@?$AAn?$AAe?$AAw?$AA_?$AAb?$AAi?$AAt?$AAs?$AA?5?$AA?$DN?$AA?$DN?$AA?5?$AA_?$AAC?$AAR?$AAT?$AAD?$AAB?$AAG?$AA_?$AAR?$AAE?$AAP?$AAO?$AAR?$AAT?$AA_?$AAF?$AAL?$AAA?$AAG?$AA?5@ 000000018003d150     libucrtd:debug_heap.obj
 0002:000021d8       ??_C@_1BO@GJFDNMNF@?$AA_?$AAC?$AAr?$AAt?$AAS?$AAe?$AAt?$AAD?$AAb?$AAg?$AAF?$AAl?$AAa?$AAg?$AA?$AA@ 000000018003d1d8     libucrtd:debug_heap.obj
 0002:000021f8       ??_C@_1CC@BBKMONGA@?$AAs?$AAt?$AAa?$AAt?$AAe?$AA?5?$AA?$CB?$AA?$DN?$AA?5?$AAn?$AAu?$AAl?$AAl?$AAp?$AAt?$AAr?$AA?$AA@ 000000018003d1f8     libucrtd:debug_heap.obj
 0002:00002220       ??_C@_1CE@NJJKELF@?$AA_?$AAC?$AAr?$AAt?$AAM?$AAe?$AAm?$AAC?$AAh?$AAe?$AAc?$AAk?$AAp?$AAo?$AAi?$AAn?$AAt?$AA?$AA@ 000000018003d220     libucrtd:debug_heap.obj
 0002:00002248       ??_C@_0DP@LEFMFBOD@Bad?5memory?5block?5found?5at?50x?$CFp?4?6@ 000000018003d248     libucrtd:debug_heap.obj
 0002:00002288       ??_C@_0CB@EAAIGELO@Bad?5memory?5block?5found?5at?50x?$CFp?4?6@ 000000018003d288     libucrtd:debug_heap.obj
 0002:000022ac       ??_C@_05MKKEDADM@?$CF?42X?5?$AA@ 000000018003d2ac     libucrtd:debug_heap.obj
 0002:000022b8       ??_C@_1CC@DIJAHFFJ@?$AAp?$AAr?$AAi?$AAn?$AAt?$AA_?$AAb?$AAl?$AAo?$AAc?$AAk?$AA_?$AAd?$AAa?$AAt?$AAa?$AA?$AA@ 000000018003d2b8     libucrtd:debug_heap.obj
 0002:000022e0       ??_C@_1BI@KALLJECN@?$AA?$CI?$AA?$CK?$AA_?$AAe?$AAr?$AAr?$AAn?$AAo?$AA?$CI?$AA?$CJ?$AA?$CJ?$AA?$AA@ 000000018003d2e0     libucrtd:debug_heap.obj
 0002:000022f8       ??_C@_0BA@HJBKCELP@?5Data?3?5?$DM?$CFs?$DO?5?$CFs?6?$AA@ 000000018003d2f8     libucrtd:debug_heap.obj
 0002:00002308       ??_C@_0BE@KCIPKCIA@Dumping?5objects?5?9?$DO?6?$AA@ 000000018003d308     libucrtd:debug_heap.obj
 0002:00002320       ??_C@_0BE@OIEFNFL@?$CDFile?5Error?$CD?$CI?$CFd?$CJ?5?3?5?$AA@ 000000018003d320     libucrtd:debug_heap.obj
 0002:00002338       ??_C@_0L@JMEFFCCJ@?$CFhs?$CI?$CFd?$CJ?5?3?5?$AA@ 000000018003d338     libucrtd:debug_heap.obj
 0002:00002344       ??_C@_06PKLGBFGM@?$HL?$CFld?$HN?5?$AA@ 000000018003d344     libucrtd:debug_heap.obj
 0002:00002350       ??_C@_0DD@GHNAAKBB@client?5block?5at?50x?$CFp?0?5subtype?5?$CFx@ 000000018003d350     libucrtd:debug_heap.obj
 0002:00002388       ??_C@_0CH@FAGDDGPN@normal?5block?5at?50x?$CFp?0?5?$CFIu?5bytes?5@ 000000018003d388     libucrtd:debug_heap.obj
 0002:000023b0       ??_C@_0DA@MDLBNIBM@crt?5block?5at?50x?$CFp?0?5subtype?5?$CFx?0?5?$CF@ 000000018003d3b0     libucrtd:debug_heap.obj
 0002:000023e0       ??_C@_0BH@GFGKJDCO@Object?5dump?5complete?4?6?$AA@ 000000018003d3e0     libucrtd:debug_heap.obj
 0002:000023f8       ??_C@_0BI@JBFPOEJA@Detected?5memory?5leaks?$CB?6?$AA@ 000000018003d3f8     libucrtd:debug_heap.obj
 0002:00002410       ??_C@_1GI@BBAEIKL@?$AA?$CI?$AA?$CI?$AAd?$AAe?$AAs?$AAt?$AAi?$AAn?$AAa?$AAt?$AAi?$AAo?$AAn?$AA?$CJ?$AA?$CJ?$AA?5?$AA?$CB?$AA?$DN?$AA?5?$AAN?$AAU?$AAL?$AAL?$AA?5?$AA?$CG?$AA?$CG?$AA?5?$AA?$CI?$AA?$CI?$AAs?$AAi?$AAz@ 000000018003d410     libucrtd:strcpy_s.obj
 0002:00002480       ??_C@_1HI@PBJPCEBC@?$AAm?$AAi?$AAn?$AAk?$AAe?$AAr?$AAn?$AAe?$AAl?$AA?2?$AAc?$AAr?$AAt?$AAs?$AA?2?$AAu?$AAc?$AAr?$AAt?$AA?2?$AAi?$AAn?$AAc?$AA?2?$AAc?$AAo?$AAr?$AAe?$AAc?$AAr?$AAt?$AA_@ 000000018003d480     libucrtd:strcpy_s.obj
 0002:000024f8       ??_C@_1CA@FHIAGDFH@?$AAc?$AAo?$AAm?$AAm?$AAo?$AAn?$AA_?$AAt?$AAc?$AAs?$AAc?$AAp?$AAy?$AA_?$AAs?$AA?$AA@ 000000018003d4f8     libucrtd:strcpy_s.obj
 0002:00002518       ??_C@_1CK@EIOKGPJL@?$AA?$CI?$AA?$CI?$AA?$CI?$AAs?$AAo?$AAu?$AAr?$AAc?$AAe?$AA?$CJ?$AA?$CJ?$AA?$CJ?$AA?5?$AA?$CB?$AA?$DN?$AA?5?$AAN?$AAU?$AAL?$AAL?$AA?$AA@ 000000018003d518     libucrtd:strcpy_s.obj
 0002:00002548       ??_C@_1CI@HCPHDDLE@?$AAB?$AAu?$AAf?$AAf?$AAe?$AAr?$AA?5?$AAi?$AAs?$AA?5?$AAt?$AAo?$AAo?$AA?5?$AAs?$AAm?$AAa?$AAl?$AAl?$AA?$AA@ 000000018003d548     libucrtd:strcpy_s.obj
 0002:00002570       ??_C@_1DM@MADKGDLO@?$AA?$CI?$AAL?$AA?$CC?$AAB?$AAu?$AAf?$AAf?$AAe?$AAr?$AA?5?$AAi?$AAs?$AA?5?$AAt?$AAo?$AAo?$AA?5?$AAs?$AAm?$AAa?$AAl?$AAl?$AA?$CC?$AA?5?$AA?$CG?$AA?$CG?$AA?5?$AA0?$AA?$CJ?$AA?$AA@ 000000018003d570     libucrtd:strcpy_s.obj
 0002:000025c8       ??_C@_1BA@GLMCNLEM@?$AAW?$AAa?$AAr?$AAn?$AAi?$AAn?$AAg?$AA?$AA@ 000000018003d5c8     libucrtd:dbgrpt.obj
 0002:000025d8       ??_C@_1M@ILHOPKA@?$AAE?$AAr?$AAr?$AAo?$AAr?$AA?$AA@ 000000018003d5d8     libucrtd:dbgrpt.obj
 0002:000025e8       ??_C@_1CC@CGHMNGDG@?$AAA?$AAs?$AAs?$AAe?$AAr?$AAt?$AAi?$AAo?$AAn?$AA?5?$AAF?$AAa?$AAi?$AAl?$AAe?$AAd?$AA?$AA@ 000000018003d5e8     libucrtd:dbgrpt.obj
 0002:00002620       ??_C@_1OG@PMPPFHAF@?$AA?6?$AA?6?$AAF?$AAo?$AAr?$AA?5?$AAi?$AAn?$AAf?$AAo?$AAr?$AAm?$AAa?$AAt?$AAi?$AAo?$AAn?$AA?5?$AAo?$AAn?$AA?5?$AAh?$AAo?$AAw?$AA?5?$AAy?$AAo?$AAu?$AAr?$AA?5?$AAp?$AAr@ 000000018003d620     libucrtd:dbgrpt.obj
 0002:00002710       ??_C@_1MG@LJLILFFD@?$AAD?$AAe?$AAb?$AAu?$AAg?$AA?5?$AA?$CF?$AAl?$AAs?$AA?$CB?$AA?6?$AA?6?$AAP?$AAr?$AAo?$AAg?$AAr?$AAa?$AAm?$AA?3?$AA?5?$AA?$CF?$AAh?$AAs?$AA?$CF?$AAl?$AAs?$AA?$CF?$AAl?$AAs?$AA?$CF?$AAh@ 000000018003d710     libucrtd:dbgrpt.obj
 0002:000027e0       ??_C@_1MG@OODCADGL@?$AAD?$AAe?$AAb?$AAu?$AAg?$AA?5?$AA?$CF?$AAl?$AAs?$AA?$CB?$AA?6?$AA?6?$AAP?$AAr?$AAo?$AAg?$AAr?$AAa?$AAm?$AA?3?$AA?5?$AA?$CF?$AAl?$AAs?$AA?$CF?$AAl?$AAs?$AA?$CF?$AAl?$AAs?$AA?$CF?$AAl@ 000000018003d7e0     libucrtd:dbgrpt.obj
 0002:000028a8       ??_C@_0BH@DNAGHKFM@?$DMprogram?5name?5unknown?$DO?$AA@ 000000018003d8a8     libucrtd:dbgrpt.obj
 0002:000028c0       ??_C@_1CO@EAEJAADC@?$AA?$DM?$AAp?$AAr?$AAo?$AAg?$AAr?$AAa?$AAm?$AA?5?$AAn?$AAa?$AAm?$AAe?$AA?5?$AAu?$AAn?$AAk?$AAn?$AAo?$AAw?$AAn?$AA?$DO?$AA?$AA@ 000000018003d8c0     libucrtd:dbgrpt.obj
 0002:000028f0       ??_C@_1FO@GMJDLAJD@?$AAm?$AAi?$AAn?$AAk?$AAe?$AAr?$AAn?$AAe?$AAl?$AA?2?$AAc?$AAr?$AAt?$AAs?$AA?2?$AAu?$AAc?$AAr?$AAt?$AA?2?$AAs?$AAr?$AAc?$AA?2?$AAa?$AAp?$AAp?$AAc?$AAr?$AAt?$AA?2?$AAm@ 000000018003d8f0     libucrtd:dbgrpt.obj
 0002:00002950       ??_C@_1CM@EHMOGBJJ@?$AAc?$AAo?$AAm?$AAm?$AAo?$AAn?$AA_?$AAm?$AAe?$AAs?$AAs?$AAa?$AAg?$AAe?$AA_?$AAw?$AAi?$AAn?$AAd?$AAo?$AAw?$AA?$AA@ 000000018003d950     libucrtd:dbgrpt.obj
 0002:00002980       ??_C@_1PE@ECNALGCA@?$AAt?$AAr?$AAa?$AAi?$AAt?$AAs?$AA?3?$AA?3?$AAt?$AAc?$AAs?$AAc?$AAp?$AAy?$AA_?$AAs?$AA?$CI?$AAp?$AAr?$AAo?$AAg?$AAr?$AAa?$AAm?$AA_?$AAn?$AAa?$AAm?$AAe?$AA?0?$AA?5?$AA?$CI@ 000000018003d980     libucrtd:dbgrpt.obj
 0002:00002a78       ??_C@_1BK@PEDCIPMA@?$AAE?$AAx?$AAp?$AAr?$AAe?$AAs?$AAs?$AAi?$AAo?$AAn?$AA?3?$AA?5?$AA?$AA@ 000000018003da78     libucrtd:dbgrpt.obj
 0002:00002a94       ??_C@_15IABLJNFO@?$AA?6?$AA?6?$AA?$AA@ 000000018003da94     libucrtd:dbgrpt.obj
 0002:00002aa0       ??_C@_1BA@GLLGCPCK@?$AA?6?$AAL?$AAi?$AAn?$AAe?$AA?3?$AA?5?$AA?$AA@ 000000018003daa0     libucrtd:dbgrpt.obj
 0002:00002ab0       ??_C@_1BA@LNHECFIM@?$AA?6?$AAF?$AAi?$AAl?$AAe?$AA?3?$AA?5?$AA?$AA@ 000000018003dab0     libucrtd:dbgrpt.obj
 0002:00002ac0       ??_C@_17LGKOMLJ@?$AA?4?$AA?4?$AA?4?$AA?$AA@ 000000018003dac0     libucrtd:dbgrpt.obj
 0002:00002ac8       ??_C@_1BE@CGCJKGHI@?$AA?6?$AAM?$AAo?$AAd?$AAu?$AAl?$AAe?$AA?3?$AA?5?$AA?$AA@ 000000018003dac8     libucrtd:dbgrpt.obj
 0002:00002ae0       ??_C@_1JM@IBOIJEOO@?$AAw?$AAc?$AAs?$AAc?$AAp?$AAy?$AA_?$AAs?$AA?$CI?$AAm?$AAe?$AAs?$AAs?$AAa?$AAg?$AAe?$AA_?$AAb?$AAu?$AAf?$AAf?$AAe?$AAr?$AA?0?$AA?5?$AA4?$AA0?$AA9?$AA6?$AA?0?$AA?5?$AAL@ 000000018003dae0     libucrtd:dbgrpt.obj
 0002:00002b80       ??_C@_1FG@BBOLDHGF@?$AA_?$AAC?$AAr?$AAt?$AAD?$AAb?$AAg?$AAR?$AAe?$AAp?$AAo?$AAr?$AAt?$AA?3?$AA?5?$AAS?$AAt?$AAr?$AAi?$AAn?$AAg?$AA?5?$AAt?$AAo?$AAo?$AA?5?$AAl?$AAo?$AAn?$AAg?$AA?5?$AAo@ 000000018003db80     libucrtd:dbgrpt.obj
 0002:00002be0       ??_C@_1EK@MBDPDCGA@?$AAM?$AAi?$AAc?$AAr?$AAo?$AAs?$AAo?$AAf?$AAt?$AA?5?$AAV?$AAi?$AAs?$AAu?$AAa?$AAl?$AA?5?$AAC?$AA?$CL?$AA?$CL?$AA?5?$AAR?$AAu?$AAn?$AAt?$AAi?$AAm?$AAe?$AA?5?$AAL?$AAi?$AAb@ 000000018003dbe0     libucrtd:dbgrpt.obj
 0002:00002c30       ??_C@_1DA@LLLMNMKI@?$AAa?$AAb?$AAo?$AAr?$AAt?$AA?$CI?$AA?$CJ?$AA?5?$AAh?$AAa?$AAs?$AA?5?$AAb?$AAe?$AAe?$AAn?$AA?5?$AAc?$AAa?$AAl?$AAl?$AAe?$AAd?$AA?$AA@ 000000018003dc30     libucrtd:abort.obj
 0002:00002c60       format_validation_lookup_table 000000018003dc60     libucrtd:output.obj
 0002:00002cc0       ??_C@_1GA@MOBAPGIO@?$AAm?$AAi?$AAn?$AAk?$AAe?$AAr?$AAn?$AAe?$AAl?$AA?2?$AAc?$AAr?$AAt?$AAs?$AA?2?$AAu?$AAc?$AAr?$AAt?$AA?2?$AAs?$AAr?$AAc?$AA?2?$AAa?$AAp?$AAp?$AAc?$AAr?$AAt?$AA?2?$AAs@ 000000018003dcc0     libucrtd:output.obj
 0002:00002d20       ??_C@_1CE@EAKLPBKK@?$AAf?$AAo?$AAr?$AAm?$AAa?$AAt?$AA?5?$AA?$CB?$AA?$DN?$AA?5?$AAn?$AAu?$AAl?$AAl?$AAp?$AAt?$AAr?$AA?$AA@ 000000018003dd20     libucrtd:output.obj
 0002:00002d48       ??_C@_1CA@PIMGHCEK@?$AAc?$AAo?$AAm?$AAm?$AAo?$AAn?$AA_?$AAv?$AAs?$AAp?$AAr?$AAi?$AAn?$AAt?$AAf?$AA?$AA@ 000000018003dd48     libucrtd:output.obj
 0002:00002d70       ??_C@_1EO@EGEEFEFM@?$AAb?$AAu?$AAf?$AAf?$AAe?$AAr?$AA_?$AAc?$AAo?$AAu?$AAn?$AAt?$AA?5?$AA?$DN?$AA?$DN?$AA?5?$AA0?$AA?5?$AA?$HM?$AA?$HM?$AA?5?$AAb?$AAu?$AAf?$AAf?$AAe?$AAr?$AA?5?$AA?$CB?$AA?$DN?$AA?5?$AAn@ 000000018003dd70     libucrtd:output.obj
 0002:00002dc0       ??_C@_1CE@JEILLNB@?$AAc?$AAo?$AAm?$AAm?$AAo?$AAn?$AA_?$AAv?$AAs?$AAp?$AAr?$AAi?$AAn?$AAt?$AAf?$AA_?$AAs?$AA?$AA@ 000000018003ddc0     libucrtd:output.obj
 0002:00002df0       ??_C@_1EM@OAFHAOLH@?$AAb?$AAu?$AAf?$AAf?$AAe?$AAr?$AA?5?$AA?$CB?$AA?$DN?$AA?5?$AAn?$AAu?$AAl?$AAl?$AAp?$AAt?$AAr?$AA?5?$AA?$CG?$AA?$CG?$AA?5?$AAb?$AAu?$AAf?$AAf?$AAe?$AAr?$AA_?$AAc?$AAo?$AAu?$AAn@ 000000018003ddf0     libucrtd:output.obj
 0002:00002e40       ??_C@_1DA@HPBFKMEB@?$AA?$CI?$AA?$CC?$AAB?$AAu?$AAf?$AAf?$AAe?$AAr?$AA?5?$AAt?$AAo?$AAo?$AA?5?$AAs?$AAm?$AAa?$AAl?$AAl?$AA?$CC?$AA?0?$AA?5?$AA0?$AA?$CJ?$AA?$AA@ 000000018003de40     libucrtd:output.obj
 0002:00002e70       ??_C@_1CG@LHFJHFBB@?$AAc?$AAo?$AAm?$AAm?$AAo?$AAn?$AA_?$AAv?$AAs?$AAn?$AAp?$AAr?$AAi?$AAn?$AAt?$AAf?$AA_?$AAs?$AA?$AA@ 000000018003de70     libucrtd:output.obj
 0002:00002e98       ??_C@_1CM@JOIJBMEM@?$AA_?$AAf?$AAo?$AAr?$AAm?$AAa?$AAt?$AA_?$AAi?$AAt?$AA?5?$AA?$CB?$AA?$DN?$AA?5?$AAn?$AAu?$AAl?$AAl?$AAp?$AAt?$AAr?$AA?$AA@ 000000018003de98     libucrtd:output.obj
 0002:00002ed0       ??_C@_1HA@DMAAKIJP@?$AAm?$AAi?$AAn?$AAk?$AAe?$AAr?$AAn?$AAe?$AAl?$AA?2?$AAc?$AAr?$AAt?$AAs?$AA?2?$AAu?$AAc?$AAr?$AAt?$AA?2?$AAi?$AAn?$AAc?$AA?2?$AAc?$AAo?$AAr?$AAe?$AAc?$AAr?$AAt?$AA_@ 000000018003ded0     libucrtd:output.obj
 0002:00002f40       ??_C@_1EE@DMAIGNBG@?$AA?$CI?$AA?$CC?$AAI?$AAn?$AAc?$AAo?$AAr?$AAr?$AAe?$AAc?$AAt?$AA?5?$AAf?$AAo?$AAr?$AAm?$AAa?$AAt?$AA?5?$AAs?$AAp?$AAe?$AAc?$AAi?$AAf?$AAi?$AAe?$AAr?$AA?$CC?$AA?0?$AA?5?$AA0@ 000000018003df40     libucrtd:output.obj
 0002:00002f88       ??_C@_1DG@CEJKFDMO@?$AAs?$AAt?$AAa?$AAt?$AAe?$AA_?$AAc?$AAa?$AAs?$AAe?$AA_?$AAn?$AAo?$AAr?$AAm?$AAa?$AAl?$AA_?$AAc?$AAo?$AAm?$AAm?$AAo?$AAn?$AA?$CI?$AA?$CJ?$AA?$AA@ 000000018003df88     libucrtd:output.obj
 0002:00002fc0       ??_C@_1FG@OBJBDPAC@?$AA?$CI?$AA?$CC?$AAN?$AA?5?$AAl?$AAe?$AAn?$AAg?$AAt?$AAh?$AA?5?$AAm?$AAo?$AAd?$AAi?$AAf?$AAi?$AAe?$AAr?$AA?5?$AAn?$AAo?$AAt?$AA?5?$AAs?$AAp?$AAe?$AAc?$AAi?$AAf?$AAi?$AAe@ 000000018003dfc0     libucrtd:output.obj
 0002:00003020       ??_C@_1EC@GJPNJDCN@?$AA_?$AAl?$AAe?$AAn?$AAg?$AAt?$AAh?$AA?5?$AA?$DN?$AA?$DN?$AA?5?$AAl?$AAe?$AAn?$AAg?$AAt?$AAh?$AA_?$AAm?$AAo?$AAd?$AAi?$AAf?$AAi?$AAe?$AAr?$AA?3?$AA?3?$AAn?$AAo?$AAn?$AAe@ 000000018003e020     libucrtd:output.obj
 0002:00003070       ??_C@_1GC@BNMHNGKM@?$AA_?$AAs?$AAt?$AAa?$AAt?$AAe?$AA?5?$AA?$DN?$AA?$DN?$AA?5?$AAs?$AAt?$AAa?$AAt?$AAe?$AA?3?$AA?3?$AAn?$AAo?$AAr?$AAm?$AAa?$AAl?$AA?5?$AA?$HM?$AA?$HM?$AA?5?$AA_?$AAs?$AAt?$AAa?$AAt@ 000000018003e070     libucrtd:output.obj
 0002:000030d8       ??_C@_1CI@DDKMNCPP@?$AA_?$AAc?$AAo?$AAn?$AAt?$AAe?$AAx?$AAt?$AA?5?$AA?$CB?$AA?$DN?$AA?5?$AAn?$AAu?$AAl?$AAl?$AAp?$AAt?$AAr?$AA?$AA@ 000000018003e0d8     libucrtd:output.obj
 0002:00003100       ??_C@_1HE@IACOMEJF@?$AA_?$AA_?$AAc?$AAr?$AAt?$AA_?$AAs?$AAt?$AAd?$AAi?$AAo?$AA_?$AAo?$AAu?$AAt?$AAp?$AAu?$AAt?$AA?3?$AA?3?$AAs?$AAt?$AAr?$AAi?$AAn?$AAg?$AA_?$AAo?$AAu?$AAt?$AAp?$AAu@ 000000018003e100     libucrtd:output.obj
 0002:00003180       ??_C@_1HK@IIPGOADH@?$AA_?$AA_?$AAc?$AAr?$AAt?$AA_?$AAs?$AAt?$AAd?$AAi?$AAo?$AA_?$AAo?$AAu?$AAt?$AAp?$AAu?$AAt?$AA?3?$AA?3?$AAs?$AAt?$AAr?$AAi?$AAn?$AAg?$AA_?$AAo?$AAu?$AAt?$AAp?$AAu@ 000000018003e180     libucrtd:output.obj
 0002:00003200       ??_C@_1EK@PNGFDECN@?$AA?$CI?$AA?$CC?$AA?8?$AAn?$AA?8?$AA?5?$AAf?$AAo?$AAr?$AAm?$AAa?$AAt?$AA?5?$AAs?$AAp?$AAe?$AAc?$AAi?$AAf?$AAi?$AAe?$AAr?$AA?5?$AAd?$AAi?$AAs?$AAa?$AAb?$AAl?$AAe?$AAd?$AA?$CC@ 000000018003e200     libucrtd:output.obj
 0002:00003250       ??_C@_1EO@GHKFGFKL@?$AA?$CI?$AA?$CC?$AAI?$AAn?$AAv?$AAa?$AAl?$AAi?$AAd?$AA?5?$AAi?$AAn?$AAt?$AAe?$AAg?$AAe?$AAr?$AA?5?$AAl?$AAe?$AAn?$AAg?$AAt?$AAh?$AA?5?$AAm?$AAo?$AAd?$AAi?$AAf?$AAi?$AAe@ 000000018003e250     libucrtd:output.obj
 0002:000032a0       ??_C@_1BDG@KOLEFKPF@?$AA_?$AA_?$AAc?$AAr?$AAt?$AA_?$AAs?$AAt?$AAd?$AAi?$AAo?$AA_?$AAo?$AAu?$AAt?$AAp?$AAu?$AAt?$AA?3?$AA?3?$AAf?$AAo?$AAr?$AAm?$AAa?$AAt?$AA_?$AAv?$AAa?$AAl?$AAi?$AAd@ 000000018003e2a0     libucrtd:output.obj
 0002:000033e0       ??_C@_1BEC@NDOOKIMC@?$AA_?$AA_?$AAc?$AAr?$AAt?$AA_?$AAs?$AAt?$AAd?$AAi?$AAo?$AA_?$AAo?$AAu?$AAt?$AAp?$AAu?$AAt?$AA?3?$AA?3?$AAf?$AAo?$AAr?$AAm?$AAa?$AAt?$AA_?$AAv?$AAa?$AAl?$AAi?$AAd@ 000000018003e3e0     libucrtd:output.obj
 0002:00003528       ??_C@_1CK@LGDCECDH@?$AA_?$AAf?$AAo?$AAr?$AAm?$AAa?$AAt?$AA_?$AAc?$AAh?$AAa?$AAr?$AA?5?$AA?$CB?$AA?$DN?$AA?5?$AA?8?$AA?2?$AA0?$AA?8?$AA?$AA@ 000000018003e528     libucrtd:output.obj
 0002:00003554       ??_C@_06OJHGLDPL@?$CInull?$CJ?$AA@ 000000018003e554     libucrtd:output.obj
 0002:00003560       ??_C@_1O@CEDCILHN@?$AA?$CI?$AAn?$AAu?$AAl?$AAl?$AA?$CJ?$AA?$AA@ 000000018003e560     libucrtd:output.obj
 0002:00003570       ??_C@_0DI@KIFBHMNO@minkernel?2crts?2ucrt?2inc?2corecrt_@ 000000018003e570     libucrtd:output.obj
 0002:000035b0       ??_C@_1BLC@INKIGOCN@?$AA_?$AA_?$AAc?$AAr?$AAt?$AA_?$AAs?$AAt?$AAd?$AAi?$AAo?$AA_?$AAo?$AAu?$AAt?$AAp?$AAu?$AAt?$AA?3?$AA?3?$AAo?$AAu?$AAt?$AAp?$AAu?$AAt?$AA_?$AAp?$AAr?$AAo?$AAc?$AAe@ 000000018003e5b0     libucrtd:output.obj
 0002:00003770       ??_C@_1BMK@JGIBNIA@?$AA_?$AA_?$AAc?$AAr?$AAt?$AA_?$AAs?$AAt?$AAd?$AAi?$AAo?$AA_?$AAo?$AAu?$AAt?$AAp?$AAu?$AAt?$AA?3?$AA?3?$AAo?$AAu?$AAt?$AAp?$AAu?$AAt?$AA_?$AAp?$AAr?$AAo?$AAc?$AAe@ 000000018003e770     libucrtd:output.obj
 0002:00003940       ??_C@_1BMG@CGPDIFDK@?$AA_?$AA_?$AAc?$AAr?$AAt?$AA_?$AAs?$AAt?$AAd?$AAi?$AAo?$AA_?$AAo?$AAu?$AAt?$AAp?$AAu?$AAt?$AA?3?$AA?3?$AAo?$AAu?$AAt?$AAp?$AAu?$AAt?$AA_?$AAp?$AAr?$AAo?$AAc?$AAe@ 000000018003e940     libucrtd:output.obj
 0002:00003b10       ??_C@_1BMC@FAGJFBLI@?$AA_?$AA_?$AAc?$AAr?$AAt?$AA_?$AAs?$AAt?$AAd?$AAi?$AAo?$AA_?$AAo?$AAu?$AAt?$AAp?$AAu?$AAt?$AA?3?$AA?3?$AAo?$AAu?$AAt?$AAp?$AAu?$AAt?$AA_?$AAp?$AAr?$AAo?$AAc?$AAe@ 000000018003eb10     libucrtd:output.obj
 0002:00003ce0       ??_C@_1BNO@OHFFMOOJ@?$AA_?$AA_?$AAc?$AAr?$AAt?$AA_?$AAs?$AAt?$AAd?$AAi?$AAo?$AA_?$AAo?$AAu?$AAt?$AAp?$AAu?$AAt?$AA?3?$AA?3?$AAo?$AAu?$AAt?$AAp?$AAu?$AAt?$AA_?$AAp?$AAr?$AAo?$AAc?$AAe@ 000000018003ece0     libucrtd:output.obj
 0002:00003ec0       ??_C@_1BNK@KHNJGCCP@?$AA_?$AA_?$AAc?$AAr?$AAt?$AA_?$AAs?$AAt?$AAd?$AAi?$AAo?$AA_?$AAo?$AAu?$AAt?$AAp?$AAu?$AAt?$AA?3?$AA?3?$AAo?$AAu?$AAt?$AAp?$AAu?$AAt?$AA_?$AAp?$AAr?$AAo?$AAc?$AAe@ 000000018003eec0     libucrtd:output.obj
 0002:000040a0       ??_C@_1BLK@FOLFMPJH@?$AA_?$AA_?$AAc?$AAr?$AAt?$AA_?$AAs?$AAt?$AAd?$AAi?$AAo?$AA_?$AAo?$AAu?$AAt?$AAp?$AAu?$AAt?$AA?3?$AA?3?$AAo?$AAu?$AAt?$AAp?$AAu?$AAt?$AA_?$AAp?$AAr?$AAo?$AAc?$AAe@ 000000018003f0a0     libucrtd:output.obj
 0002:00004260       ??_C@_1BNC@OHPDPPJK@?$AA_?$AA_?$AAc?$AAr?$AAt?$AA_?$AAs?$AAt?$AAd?$AAi?$AAo?$AA_?$AAo?$AAu?$AAt?$AAp?$AAu?$AAt?$AA?3?$AA?3?$AAo?$AAu?$AAt?$AAp?$AAu?$AAt?$AA_?$AAp?$AAr?$AAo?$AAc?$AAe@ 000000018003f260     libucrtd:output.obj
 0002:00004440       ??_C@_1BNC@JPKLPOHO@?$AA_?$AA_?$AAc?$AAr?$AAt?$AA_?$AAs?$AAt?$AAd?$AAi?$AAo?$AA_?$AAo?$AAu?$AAt?$AAp?$AAu?$AAt?$AA?3?$AA?3?$AAo?$AAu?$AAt?$AAp?$AAu?$AAt?$AA_?$AAp?$AAr?$AAo?$AAc?$AAe@ 000000018003f440     libucrtd:output.obj
 0002:00004620       ??_C@_1BMG@BBEFGBID@?$AA_?$AA_?$AAc?$AAr?$AAt?$AA_?$AAs?$AAt?$AAd?$AAi?$AAo?$AA_?$AAo?$AAu?$AAt?$AAp?$AAu?$AAt?$AA?3?$AA?3?$AAo?$AAu?$AAt?$AAp?$AAu?$AAt?$AA_?$AAp?$AAr?$AAo?$AAc?$AAe@ 000000018003f620     libucrtd:output.obj
 0002:000047f0       ??_C@_1BNO@NAODCKFA@?$AA_?$AA_?$AAc?$AAr?$AAt?$AA_?$AAs?$AAt?$AAd?$AAi?$AAo?$AA_?$AAo?$AAu?$AAt?$AAp?$AAu?$AAt?$AA?3?$AA?3?$AAo?$AAu?$AAt?$AAp?$AAu?$AAt?$AA_?$AAp?$AAr?$AAo?$AAc?$AAe@ 000000018003f7f0     libucrtd:output.obj
 0002:000049d0       ??_C@_1GE@DPGDJKLM@?$AAm?$AAi?$AAn?$AAk?$AAe?$AAr?$AAn?$AAe?$AAl?$AA?2?$AAc?$AAr?$AAt?$AAs?$AA?2?$AAu?$AAc?$AAr?$AAt?$AA?2?$AAi?$AAn?$AAc?$AA?2?$AAc?$AAo?$AAr?$AAe?$AAc?$AAr?$AAt?$AA_@ 000000018003f9d0     libucrtd:atox.obj
 0002:00004a40       ??_C@_1EO@MLJCKPIB@?$AAb?$AAa?$AAs?$AAe?$AA?5?$AA?$DN?$AA?$DN?$AA?5?$AA0?$AA?5?$AA?$HM?$AA?$HM?$AA?5?$AA?$CI?$AA2?$AA?5?$AA?$DM?$AA?$DN?$AA?5?$AAb?$AAa?$AAs?$AAe?$AA?5?$AA?$CG?$AA?$CG?$AA?5?$AAb?$AAa?$AAs?$AAe?$AA?5@ 000000018003fa40     libucrtd:atox.obj
 0002:00004a90       ??_C@_1DI@BANODKFL@?$AA_?$AA_?$AAc?$AAr?$AAt?$AA_?$AAs?$AAt?$AAr?$AAt?$AAo?$AAx?$AA?3?$AA?3?$AAp?$AAa?$AAr?$AAs?$AAe?$AA_?$AAi?$AAn?$AAt?$AAe?$AAg?$AAe?$AAr?$AA?$AA@ 000000018003fa90     libucrtd:atox.obj
 0002:00004ac8       ??_C@_1BM@PNEBBBDO@?$AA_?$AAp?$AA?5?$AA?$CB?$AA?$DN?$AA?5?$AAn?$AAu?$AAl?$AAl?$AAp?$AAt?$AAr?$AA?$AA@ 000000018003fac8     libucrtd:atox.obj
 0002:00004af0       ??_C@_1HA@MKKIHBHP@?$AA_?$AA_?$AAc?$AAr?$AAt?$AA_?$AAs?$AAt?$AAr?$AAt?$AAo?$AAx?$AA?3?$AA?3?$AAc?$AA_?$AAs?$AAt?$AAr?$AAi?$AAn?$AAg?$AA_?$AAc?$AAh?$AAa?$AAr?$AAa?$AAc?$AAt?$AAe?$AAr@ 000000018003faf0     libucrtd:atox.obj
 0002:00004b60       ??_C@_1CM@GJENOOEJ@?$AAc?$AA?5?$AA?$DN?$AA?$DN?$AA?5?$AA?8?$AA?2?$AA0?$AA?8?$AA?5?$AA?$HM?$AA?$HM?$AA?5?$AA?$CK?$AA_?$AAp?$AA?5?$AA?$DN?$AA?$DN?$AA?5?$AAc?$AA?$AA@ 000000018003fb60     libucrtd:atox.obj
 0002:00004b90       ??_C@_1GK@MNHIDABG@?$AA_?$AA_?$AAc?$AAr?$AAt?$AA_?$AAs?$AAt?$AAr?$AAt?$AAo?$AAx?$AA?3?$AA?3?$AAc?$AA_?$AAs?$AAt?$AAr?$AAi?$AAn?$AAg?$AA_?$AAc?$AAh?$AAa?$AAr?$AAa?$AAc?$AAt?$AAe?$AAr@ 000000018003fb90     libucrtd:atox.obj
 0002:00004c00       ??_C@_1HG@FCDBLOEG@?$AA_?$AA_?$AAc?$AAr?$AAt?$AA_?$AAs?$AAt?$AAr?$AAt?$AAo?$AAx?$AA?3?$AA?3?$AAc?$AA_?$AAs?$AAt?$AAr?$AAi?$AAn?$AAg?$AA_?$AAc?$AAh?$AAa?$AAr?$AAa?$AAc?$AAt?$AAe?$AAr@ 000000018003fc00     libucrtd:atox.obj
 0002:00004c80       ??_C@_1HA@CONLANFI@?$AA_?$AA_?$AAc?$AAr?$AAt?$AA_?$AAs?$AAt?$AAr?$AAt?$AAo?$AAx?$AA?3?$AA?3?$AAc?$AA_?$AAs?$AAt?$AAr?$AAi?$AAn?$AAg?$AA_?$AAc?$AAh?$AAa?$AAr?$AAa?$AAc?$AAt?$AAe?$AAr@ 000000018003fc80     libucrtd:atox.obj
 0002:00004d20       ??_C@_0DM@DKIFNNOL@minkernel?2crts?2ucrt?2src?2appcrt?2i@ 000000018003fd20     libucrtd:per_thread_data.obj
 0002:00004e00       ??_C@_1EG@CNNIPFIM@?$AAa?$AAp?$AAi?$AA?9?$AAm?$AAs?$AA?9?$AAw?$AAi?$AAn?$AA?9?$AAa?$AAp?$AAp?$AAm?$AAo?$AAd?$AAe?$AAl?$AA?9?$AAr?$AAu?$AAn?$AAt?$AAi?$AAm?$AAe?$AA?9?$AAl?$AA1?$AA?9?$AA1@ 000000018003fe00     libucrtd:winapi_thunks.obj
 0002:00004e50       ??_C@_1EA@JGEFHKEI@?$AAa?$AAp?$AAi?$AA?9?$AAm?$AAs?$AA?9?$AAw?$AAi?$AAn?$AA?9?$AAc?$AAo?$AAr?$AAe?$AA?9?$AAd?$AAa?$AAt?$AAe?$AAt?$AAi?$AAm?$AAe?$AA?9?$AAl?$AA1?$AA?9?$AA1?$AA?9?$AA1?$AA?$AA@ 000000018003fe50     libucrtd:winapi_thunks.obj
 0002:00004e90       ??_C@_1DI@GCIAAENM@?$AAa?$AAp?$AAi?$AA?9?$AAm?$AAs?$AA?9?$AAw?$AAi?$AAn?$AA?9?$AAc?$AAo?$AAr?$AAe?$AA?9?$AAf?$AAi?$AAl?$AAe?$AA?9?$AAl?$AA2?$AA?9?$AA1?$AA?9?$AA1?$AA?$AA@ 000000018003fe90     libucrtd:winapi_thunks.obj
 0002:00004ed0       ??_C@_1EI@MPIAOHOC@?$AAa?$AAp?$AAi?$AA?9?$AAm?$AAs?$AA?9?$AAw?$AAi?$AAn?$AA?9?$AAc?$AAo?$AAr?$AAe?$AA?9?$AAl?$AAo?$AAc?$AAa?$AAl?$AAi?$AAz?$AAa?$AAt?$AAi?$AAo?$AAn?$AA?9?$AAl?$AA1?$AA?9@ 000000018003fed0     libucrtd:winapi_thunks.obj
 0002:00004f20       ??_C@_1FK@FPHCKFIE@?$AAa?$AAp?$AAi?$AA?9?$AAm?$AAs?$AA?9?$AAw?$AAi?$AAn?$AA?9?$AAc?$AAo?$AAr?$AAe?$AA?9?$AAl?$AAo?$AAc?$AAa?$AAl?$AAi?$AAz?$AAa?$AAt?$AAi?$AAo?$AAn?$AA?9?$AAo?$AAb?$AAs@ 000000018003ff20     libucrtd:winapi_thunks.obj
 0002:00004f80       ??_C@_1EM@DILCGIIO@?$AAa?$AAp?$AAi?$AA?9?$AAm?$AAs?$AA?9?$AAw?$AAi?$AAn?$AA?9?$AAc?$AAo?$AAr?$AAe?$AA?9?$AAp?$AAr?$AAo?$AAc?$AAe?$AAs?$AAs?$AAt?$AAh?$AAr?$AAe?$AAa?$AAd?$AAs?$AA?9?$AAl@ 000000018003ff80     libucrtd:winapi_thunks.obj
 0002:00004fd0       ??_C@_1DM@LNCGDDPN@?$AAa?$AAp?$AAi?$AA?9?$AAm?$AAs?$AA?9?$AAw?$AAi?$AAn?$AA?9?$AAc?$AAo?$AAr?$AAe?$AA?9?$AAs?$AAt?$AAr?$AAi?$AAn?$AAg?$AA?9?$AAl?$AA1?$AA?9?$AA1?$AA?9?$AA0?$AA?$AA@ 000000018003ffd0     libucrtd:winapi_thunks.obj
 0002:00005010       ??_C@_1DO@FPAPJEMD@?$AAa?$AAp?$AAi?$AA?9?$AAm?$AAs?$AA?9?$AAw?$AAi?$AAn?$AA?9?$AAc?$AAo?$AAr?$AAe?$AA?9?$AAs?$AAy?$AAs?$AAi?$AAn?$AAf?$AAo?$AA?9?$AAl?$AA1?$AA?9?$AA2?$AA?9?$AA1?$AA?$AA@ 0000000180040010     libucrtd:winapi_thunks.obj
 0002:00005050       ??_C@_1DK@NDHNAHIO@?$AAa?$AAp?$AAi?$AA?9?$AAm?$AAs?$AA?9?$AAw?$AAi?$AAn?$AA?9?$AAc?$AAo?$AAr?$AAe?$AA?9?$AAw?$AAi?$AAn?$AAr?$AAt?$AA?9?$AAl?$AA1?$AA?9?$AA1?$AA?9?$AA0?$AA?$AA@ 0000000180040050     libucrtd:winapi_thunks.obj
 0002:00005090       ??_C@_1DM@KGHDGBCM@?$AAa?$AAp?$AAi?$AA?9?$AAm?$AAs?$AA?9?$AAw?$AAi?$AAn?$AA?9?$AAc?$AAo?$AAr?$AAe?$AA?9?$AAx?$AAs?$AAt?$AAa?$AAt?$AAe?$AA?9?$AAl?$AA2?$AA?9?$AA1?$AA?9?$AA0?$AA?$AA@ 0000000180040090     libucrtd:winapi_thunks.obj
 0002:000050d0       ??_C@_1EO@IJIOEFOH@?$AAa?$AAp?$AAi?$AA?9?$AAm?$AAs?$AA?9?$AAw?$AAi?$AAn?$AA?9?$AAr?$AAt?$AAc?$AAo?$AAr?$AAe?$AA?9?$AAn?$AAt?$AAu?$AAs?$AAe?$AAr?$AA?9?$AAw?$AAi?$AAn?$AAd?$AAo?$AAw?$AA?9@ 00000001800400d0     libucrtd:winapi_thunks.obj
 0002:00005120       ??_C@_1FG@HHGEKANL@?$AAa?$AAp?$AAi?$AA?9?$AAm?$AAs?$AA?9?$AAw?$AAi?$AAn?$AA?9?$AAs?$AAe?$AAc?$AAu?$AAr?$AAi?$AAt?$AAy?$AA?9?$AAs?$AAy?$AAs?$AAt?$AAe?$AAm?$AAf?$AAu?$AAn?$AAc?$AAt?$AAi@ 0000000180040120     libucrtd:winapi_thunks.obj
 0002:00005180       ??_C@_1FG@NCKKOLKO@?$AAe?$AAx?$AAt?$AA?9?$AAm?$AAs?$AA?9?$AAw?$AAi?$AAn?$AA?9?$AAk?$AAe?$AAr?$AAn?$AAe?$AAl?$AA3?$AA2?$AA?9?$AAp?$AAa?$AAc?$AAk?$AAa?$AAg?$AAe?$AA?9?$AAc?$AAu?$AAr?$AAr@ 0000000180040180     libucrtd:winapi_thunks.obj
 0002:000051e0       ??_C@_1EG@DBIOJECG@?$AAe?$AAx?$AAt?$AA?9?$AAm?$AAs?$AA?9?$AAw?$AAi?$AAn?$AA?9?$AAn?$AAt?$AAu?$AAs?$AAe?$AAr?$AA?9?$AAd?$AAi?$AAa?$AAl?$AAo?$AAg?$AAb?$AAo?$AAx?$AA?9?$AAl?$AA1?$AA?9?$AA1@ 00000001800401e0     libucrtd:winapi_thunks.obj
 0002:00005230       ??_C@_1EO@FIHMJCLF@?$AAe?$AAx?$AAt?$AA?9?$AAm?$AAs?$AA?9?$AAw?$AAi?$AAn?$AA?9?$AAn?$AAt?$AAu?$AAs?$AAe?$AAr?$AA?9?$AAw?$AAi?$AAn?$AAd?$AAo?$AAw?$AAs?$AAt?$AAa?$AAt?$AAi?$AAo?$AAn?$AA?9@ 0000000180040230     libucrtd:winapi_thunks.obj
 0002:00005280       ??_C@_1O@BCCLBEOE@?$AAu?$AAs?$AAe?$AAr?$AA3?$AA2?$AA?$AA@ 0000000180040280     libucrtd:winapi_thunks.obj
 0002:00005290       ??_C@_1HE@OILMBOBA@?$AAm?$AAi?$AAn?$AAk?$AAe?$AAr?$AAn?$AAe?$AAl?$AA?2?$AAc?$AAr?$AAt?$AAs?$AA?2?$AAu?$AAc?$AAr?$AAt?$AA?2?$AAs?$AAr?$AAc?$AA?2?$AAa?$AAp?$AAp?$AAc?$AAr?$AAt?$AA?2?$AAi@ 0000000180040290     libucrtd:winapi_thunks.obj
 0002:00005330       ??_C@_0BA@HNOPNCHB@GetActiveWindow?$AA@ 0000000180040330     libucrtd:winapi_thunks.obj
 0002:00005348       ??_C@_0BE@JOGNEJCI@GetCurrentPackageId?$AA@ 0000000180040348     libucrtd:winapi_thunks.obj
 0002:00005368       ??_C@_0BD@HHGDFDBJ@GetLastActivePopup?$AA@ 0000000180040368     libucrtd:winapi_thunks.obj
 0002:00005388       ??_C@_0BI@DFKBFLJE@GetProcessWindowStation?$AA@ 0000000180040388     libucrtd:winapi_thunks.obj
 0002:000053a8       ??_C@_0BK@DEKFELLI@GetUserObjectInformationW?$AA@ 00000001800403a8     libucrtd:winapi_thunks.obj
 0002:000053d8       ??_C@_0O@KKBNKAPF@LCMapStringEx?$AA@ 00000001800403d8     libucrtd:winapi_thunks.obj
 0002:000053f0       ??_C@_0BB@HBDEELFH@LocaleNameToLCID?$AA@ 00000001800403f0     libucrtd:winapi_thunks.obj
 0002:00005410       ??_C@_0M@CHKKJDAI@MessageBoxA?$AA@ 0000000180040410     libucrtd:winapi_thunks.obj
 0002:00005428       ??_C@_0M@DLDCCGNP@MessageBoxW?$AA@ 0000000180040428     libucrtd:winapi_thunks.obj
 0002:00005438       ??_C@_1DC@JKJAOJNC@?$AAc?$AAa?$AAc?$AAh?$AAe?$AAd?$AA_?$AAs?$AAt?$AAa?$AAt?$AAe?$AA?5?$AA?$DN?$AA?$DN?$AA?5?$AAp?$AAa?$AAc?$AAk?$AAa?$AAg?$AAe?$AAd?$AA?$AA@ 0000000180040438     libucrtd:winapi_thunks.obj
 0002:00005470       ??_C@_1DK@JOPMHFDB@?$AAc?$AAa?$AAc?$AAh?$AAe?$AAd?$AA_?$AAs?$AAt?$AAa?$AAt?$AAe?$AA?5?$AA?$DN?$AA?$DN?$AA?5?$AAn?$AAo?$AAt?$AA_?$AAp?$AAa?$AAc?$AAk?$AAa?$AAg?$AAe?$AAd?$AA?$AA@ 0000000180040470     libucrtd:winapi_thunks.obj
 0002:000054d0       ??_C@_1M@HPNHIDJI@?$AAj?$AAa?$AA?9?$AAJ?$AAP?$AA?$AA@ 00000001800404d0     libucrtd:mbctype.obj
 0002:000054e0       ??_C@_1M@BIBDDEMK@?$AAz?$AAh?$AA?9?$AAC?$AAN?$AA?$AA@ 00000001800404e0     libucrtd:mbctype.obj
 0002:000054f0       ??_C@_1M@JLOOOEGK@?$AAk?$AAo?$AA?9?$AAK?$AAR?$AA?$AA@ 00000001800404f0     libucrtd:mbctype.obj
 0002:00005500       ??_C@_1M@CLNBBOPM@?$AAz?$AAh?$AA?9?$AAT?$AAW?$AA?$AA@ 0000000180040500     libucrtd:mbctype.obj
 0002:00005510       ??_C@_0DE@HGDKNBFD@minkernel?2crts?2ucrt?2src?2appcrt?2m@ 0000000180040510     libucrtd:mbctype.obj
 0002:00005550       ??_C@_0ED@BLPEHJAI@minkernel?2crts?2ucrt?2src?2desktopc@ 0000000180040550     libucrtd:get_environment_from_os.obj
 0002:00005598       ??_C@_1DA@NBILLKNO@?$AAl?$AAo?$AAc?$AAa?$AAl?$AA_?$AAa?$AAc?$AAt?$AAi?$AAo?$AAn?$AA?5?$AA?$CB?$AA?$DN?$AA?5?$AAn?$AAu?$AAl?$AAl?$AAp?$AAt?$AAr?$AA?$AA@ 0000000180040598     libucrtd:signal.obj
 0002:000055d0       ??_C@_1FO@CCGDPEKE@?$AAm?$AAi?$AAn?$AAk?$AAe?$AAr?$AAn?$AAe?$AAl?$AA?2?$AAc?$AAr?$AAt?$AAs?$AA?2?$AAu?$AAc?$AAr?$AAt?$AA?2?$AAs?$AAr?$AAc?$AA?2?$AAa?$AAp?$AAp?$AAc?$AAr?$AAt?$AA?2?$AAm@ 00000001800405d0     libucrtd:signal.obj
 0002:00005630       ??_C@_1M@DMJEIKHL@?$AAr?$AAa?$AAi?$AAs?$AAe?$AA?$AA@ 0000000180040630     libucrtd:signal.obj
 0002:00005640       ??_C@_1DO@MLNEDKGB@?$AA?$CI?$AA?$CC?$AAI?$AAn?$AAv?$AAa?$AAl?$AAi?$AAd?$AA?5?$AAs?$AAi?$AAg?$AAn?$AAa?$AAl?$AA?5?$AAo?$AAr?$AA?5?$AAe?$AAr?$AAr?$AAo?$AAr?$AA?$CC?$AA?0?$AA?5?$AA0?$AA?$CJ?$AA?$AA@ 0000000180040640     libucrtd:signal.obj
 0002:00005680       __lc_time_c                0000000180040680     libucrtd:nlsdata.obj
 0002:00005940       ??_C@_03KOEHGMDN@Sun?$AA@  0000000180040940     libucrtd:nlsdata.obj
 0002:00005944       ??_C@_03PDAGKDH@Mon?$AA@   0000000180040944     libucrtd:nlsdata.obj
 0002:00005948       ??_C@_03NAGEINEP@Tue?$AA@  0000000180040948     libucrtd:nlsdata.obj
 0002:0000594c       ??_C@_03MHOMLAJA@Wed?$AA@  000000018004094c     libucrtd:nlsdata.obj
 0002:00005950       ??_C@_03IOFIKPDN@Thu?$AA@  0000000180040950     libucrtd:nlsdata.obj
 0002:00005954       ??_C@_03IDIOELNC@Fri?$AA@  0000000180040954     libucrtd:nlsdata.obj
 0002:00005958       ??_C@_03FEFJNEK@Sat?$AA@   0000000180040958     libucrtd:nlsdata.obj
 0002:0000595c       ??_C@_06OOPIFAJ@Sunday?$AA@ 000000018004095c     libucrtd:nlsdata.obj
 0002:00005964       ??_C@_06JLEDEDGH@Monday?$AA@ 0000000180040964     libucrtd:nlsdata.obj
 0002:00005970       ??_C@_07BAAGCFCM@Tuesday?$AA@ 0000000180040970     libucrtd:nlsdata.obj
 0002:00005978       ??_C@_09DLIGFAKA@Wednesday?$AA@ 0000000180040978     libucrtd:nlsdata.obj
 0002:00005988       ??_C@_08HACCIKIA@Thursday?$AA@ 0000000180040988     libucrtd:nlsdata.obj
 0002:00005994       ??_C@_06JECMNKMI@Friday?$AA@ 0000000180040994     libucrtd:nlsdata.obj
 0002:000059a0       ??_C@_08INBOOONO@Saturday?$AA@ 00000001800409a0     libucrtd:nlsdata.obj
 0002:000059ac       ??_C@_03JIHJHPIE@Jan?$AA@  00000001800409ac     libucrtd:nlsdata.obj
 0002:000059b0       ??_C@_03HJBDCHOM@Feb?$AA@  00000001800409b0     libucrtd:nlsdata.obj
 0002:000059b4       ??_C@_03ODNJBKGA@Mar?$AA@  00000001800409b4     libucrtd:nlsdata.obj
 0002:000059b8       ??_C@_03LEOLGMJP@Apr?$AA@  00000001800409b8     libucrtd:nlsdata.obj
 0002:000059bc       ??_C@_03CNMDKL@May?$AA@    00000001800409bc     libucrtd:nlsdata.obj
 0002:000059c0       ??_C@_03IDFGHECI@Jun?$AA@  00000001800409c0     libucrtd:nlsdata.obj
 0002:000059c4       ??_C@_03LBGABGKK@Jul?$AA@  00000001800409c4     libucrtd:nlsdata.obj
 0002:000059c8       ??_C@_03IFJFEIGA@Aug?$AA@  00000001800409c8     libucrtd:nlsdata.obj
 0002:000059cc       ??_C@_03GGCAPAJC@Sep?$AA@  00000001800409cc     libucrtd:nlsdata.obj
 0002:000059d0       ??_C@_03BMAOKBAD@Oct?$AA@  00000001800409d0     libucrtd:nlsdata.obj
 0002:000059d4       ??_C@_03JPJOFNIA@Nov?$AA@  00000001800409d4     libucrtd:nlsdata.obj
 0002:000059d8       ??_C@_03MKABNOCG@Dec?$AA@  00000001800409d8     libucrtd:nlsdata.obj
 0002:000059e0       ??_C@_07CGJPFGJA@January?$AA@ 00000001800409e0     libucrtd:nlsdata.obj
 0002:000059e8       ??_C@_08GNJGEPFN@February?$AA@ 00000001800409e8     libucrtd:nlsdata.obj
 0002:000059f4       ??_C@_05HPCKOFNC@March?$AA@ 00000001800409f4     libucrtd:nlsdata.obj
 0002:000059fc       ??_C@_05DMJDNLEJ@April?$AA@ 00000001800409fc     libucrtd:nlsdata.obj
 0002:00005a04       ??_C@_04CNLMGBGM@June?$AA@ 0000000180040a04     libucrtd:nlsdata.obj
 0002:00005a0c       ??_C@_04MIEPOIFP@July?$AA@ 0000000180040a0c     libucrtd:nlsdata.obj
 0002:00005a14       ??_C@_06LBBHFDDG@August?$AA@ 0000000180040a14     libucrtd:nlsdata.obj
 0002:00005a20       ??_C@_09BHHEALKD@September?$AA@ 0000000180040a20     libucrtd:nlsdata.obj
 0002:00005a30       ??_C@_07JJNFCEND@October?$AA@ 0000000180040a30     libucrtd:nlsdata.obj
 0002:00005a38       ??_C@_08HCHEGEOA@November?$AA@ 0000000180040a38     libucrtd:nlsdata.obj
 0002:00005a48       ??_C@_08EDHMEBNP@December?$AA@ 0000000180040a48     libucrtd:nlsdata.obj
 0002:00005a54       ??_C@_02DEDBPAFC@AM?$AA@   0000000180040a54     libucrtd:nlsdata.obj
 0002:00005a58       ??_C@_02CJNFDJBF@PM?$AA@   0000000180040a58     libucrtd:nlsdata.obj
 0002:00005a60       ??_C@_08BPBNCDIB@MM?1dd?1yy?$AA@ 0000000180040a60     libucrtd:nlsdata.obj
 0002:00005a70       ??_C@_0BE@CKGJFCPC@dddd?0?5MMMM?5dd?0?5yyyy?$AA@ 0000000180040a70     libucrtd:nlsdata.obj
 0002:00005a88       ??_C@_08JCCMCCIL@HH?3mm?3ss?$AA@ 0000000180040a88     libucrtd:nlsdata.obj
 0002:00005a98       ??_C@_17MBGCMIPB@?$AAS?$AAu?$AAn?$AA?$AA@ 0000000180040a98     libucrtd:nlsdata.obj
 0002:00005aa0       ??_C@_17KBOMKBF@?$AAM?$AAo?$AAn?$AA?$AA@ 0000000180040aa0     libucrtd:nlsdata.obj
 0002:00005aa8       ??_C@_17BMKGEGOJ@?$AAT?$AAu?$AAe?$AA?$AA@ 0000000180040aa8     libucrtd:nlsdata.obj
 0002:00005ab0       ??_C@_17CJEDCEPE@?$AAW?$AAe?$AAd?$AA?$AA@ 0000000180040ab0     libucrtd:nlsdata.obj
 0002:00005ab8       ??_C@_17PDPHAADD@?$AAT?$AAh?$AAu?$AA?$AA@ 0000000180040ab8     libucrtd:nlsdata.obj
 0002:00005ac0       ??_C@_17HFOLPPLP@?$AAF?$AAr?$AAi?$AA?$AA@ 0000000180040ac0     libucrtd:nlsdata.obj
 0002:00005ac8       ??_C@_17GGIBDPIH@?$AAS?$AAa?$AAt?$AA?$AA@ 0000000180040ac8     libucrtd:nlsdata.obj
 0002:00005ad0       ??_C@_1O@IHNHDHPB@?$AAS?$AAu?$AAn?$AAd?$AAa?$AAy?$AA?$AA@ 0000000180040ad0     libucrtd:nlsdata.obj
 0002:00005ae0       ??_C@_1O@MMNBFLIA@?$AAM?$AAo?$AAn?$AAd?$AAa?$AAy?$AA?$AA@ 0000000180040ae0     libucrtd:nlsdata.obj
 0002:00005af0       ??_C@_1BA@ENFBFFEK@?$AAT?$AAu?$AAe?$AAs?$AAd?$AAa?$AAy?$AA?$AA@ 0000000180040af0     libucrtd:nlsdata.obj
 0002:00005b00       ??_C@_1BE@EBOGMDOH@?$AAW?$AAe?$AAd?$AAn?$AAe?$AAs?$AAd?$AAa?$AAy?$AA?$AA@ 0000000180040b00     libucrtd:nlsdata.obj
 0002:00005b18       ??_C@_1BC@HHMNLIHE@?$AAT?$AAh?$AAu?$AAr?$AAs?$AAd?$AAa?$AAy?$AA?$AA@ 0000000180040b18     libucrtd:nlsdata.obj
 0002:00005b30       ??_C@_1O@PDICJHAG@?$AAF?$AAr?$AAi?$AAd?$AAa?$AAy?$AA?$AA@ 0000000180040b30     libucrtd:nlsdata.obj
 0002:00005b40       ??_C@_1BC@ENMNNPAJ@?$AAS?$AAa?$AAt?$AAu?$AAr?$AAd?$AAa?$AAy?$AA?$AA@ 0000000180040b40     libucrtd:nlsdata.obj
 0002:00005b58       ??_C@_17DKNBKCHM@?$AAJ?$AAa?$AAn?$AA?$AA@ 0000000180040b58     libucrtd:nlsdata.obj
 0002:00005b60       ??_C@_17LMDJEKJN@?$AAF?$AAe?$AAb?$AA?$AA@ 0000000180040b60     libucrtd:nlsdata.obj
 0002:00005b68       ??_C@_17CKNLEDEC@?$AAM?$AAa?$AAr?$AA?$AA@ 0000000180040b68     libucrtd:nlsdata.obj
 0002:00005b70       ??_C@_17LFPOIHDD@?$AAA?$AAp?$AAr?$AA?$AA@ 0000000180040b70     libucrtd:nlsdata.obj
 0002:00005b78       ??_C@_17PNNKMEED@?$AAM?$AAa?$AAy?$AA?$AA@ 0000000180040b78     libucrtd:nlsdata.obj
 0002:00005b80       ??_C@_17KCJGOCPB@?$AAJ?$AAu?$AAn?$AA?$AA@ 0000000180040b80     libucrtd:nlsdata.obj
 0002:00005b88       ??_C@_17IJPCKHK@?$AAJ?$AAu?$AAl?$AA?$AA@ 0000000180040b88     libucrtd:nlsdata.obj
 0002:00005b90       ??_C@_17ICPELBCN@?$AAA?$AAu?$AAg?$AA?$AA@ 0000000180040b90     libucrtd:nlsdata.obj
 0002:00005b98       ??_C@_17HCHCOKMG@?$AAS?$AAe?$AAp?$AA?$AA@ 0000000180040b98     libucrtd:nlsdata.obj
 0002:00005ba0       ??_C@_17FNLKOI@?$AAO?$AAc?$AAt?$AA?$AA@ 0000000180040ba0     libucrtd:nlsdata.obj
 0002:00005ba8       ??_C@_17BBDMLCIG@?$AAN?$AAo?$AAv?$AA?$AA@ 0000000180040ba8     libucrtd:nlsdata.obj
 0002:00005bb0       ??_C@_17EGKACKIF@?$AAD?$AAe?$AAc?$AA?$AA@ 0000000180040bb0     libucrtd:nlsdata.obj
 0002:00005bb8       ??_C@_1BA@EFMEIEBA@?$AAJ?$AAa?$AAn?$AAu?$AAa?$AAr?$AAy?$AA?$AA@ 0000000180040bb8     libucrtd:nlsdata.obj
 0002:00005bc8       ??_C@_1BC@JGDDFFAM@?$AAF?$AAe?$AAb?$AAr?$AAu?$AAa?$AAr?$AAy?$AA?$AA@ 0000000180040bc8     libucrtd:nlsdata.obj
 0002:00005be0       ??_C@_1M@IKEENEDF@?$AAM?$AAa?$AAr?$AAc?$AAh?$AA?$AA@ 0000000180040be0     libucrtd:nlsdata.obj
 0002:00005bf0       ??_C@_1M@GJNLMHFD@?$AAA?$AAp?$AAr?$AAi?$AAl?$AA?$AA@ 0000000180040bf0     libucrtd:nlsdata.obj
 0002:00005c00       ??_C@_19EPFLPGAP@?$AAJ?$AAu?$AAn?$AAe?$AA?$AA@ 0000000180040c00     libucrtd:nlsdata.obj
 0002:00005c10       ??_C@_19BIFMLPCD@?$AAJ?$AAu?$AAl?$AAy?$AA?$AA@ 0000000180040c10     libucrtd:nlsdata.obj
 0002:00005c20       ??_C@_1O@PAHLKOAC@?$AAA?$AAu?$AAg?$AAu?$AAs?$AAt?$AA?$AA@ 0000000180040c20     libucrtd:nlsdata.obj
 0002:00005c30       ??_C@_1BE@DKAAMBJL@?$AAS?$AAe?$AAp?$AAt?$AAe?$AAm?$AAb?$AAe?$AAr?$AA?$AA@ 0000000180040c30     libucrtd:nlsdata.obj
 0002:00005c48       ??_C@_1BA@EPANDLNG@?$AAO?$AAc?$AAt?$AAo?$AAb?$AAe?$AAr?$AA?$AA@ 0000000180040c48     libucrtd:nlsdata.obj
 0002:00005c58       ??_C@_1BC@BGLIFPF@?$AAN?$AAo?$AAv?$AAe?$AAm?$AAb?$AAe?$AAr?$AA?$AA@ 0000000180040c58     libucrtd:nlsdata.obj
 0002:00005c70       ??_C@_1BC@FEMKIFH@?$AAD?$AAe?$AAc?$AAe?$AAm?$AAb?$AAe?$AAr?$AA?$AA@ 0000000180040c70     libucrtd:nlsdata.obj
 0002:00005c84       ??_C@_15ODEHAHHF@?$AAA?$AAM?$AA?$AA@ 0000000180040c84     libucrtd:nlsdata.obj
 0002:00005c8c       ??_C@_15CLMNNGEL@?$AAP?$AAM?$AA?$AA@ 0000000180040c8c     libucrtd:nlsdata.obj
 0002:00005c98       ??_C@_1BC@IEBCMHCM@?$AAM?$AAM?$AA?1?$AAd?$AAd?$AA?1?$AAy?$AAy?$AA?$AA@ 0000000180040c98     libucrtd:nlsdata.obj
 0002:00005cb0       ??_C@_1CI@KNAKOEBC@?$AAd?$AAd?$AAd?$AAd?$AA?0?$AA?5?$AAM?$AAM?$AAM?$AAM?$AA?5?$AAd?$AAd?$AA?0?$AA?5?$AAy?$AAy?$AAy?$AAy?$AA?$AA@ 0000000180040cb0     libucrtd:nlsdata.obj
 0002:00005cd8       ??_C@_1BC@GDGBMEMK@?$AAH?$AAH?$AA?3?$AAm?$AAm?$AA?3?$AAs?$AAs?$AA?$AA@ 0000000180040cd8     libucrtd:nlsdata.obj
 0002:00005cf0       ??_C@_1M@BMHNFIME@?$AAe?$AAn?$AA?9?$AAU?$AAS?$AA?$AA@ 0000000180040cf0     libucrtd:nlsdata.obj
 0002:00005d00       ??_C@_1DC@OGOLMDEL@?$AAp?$AAu?$AAb?$AAl?$AAi?$AAc?$AA_?$AAs?$AAt?$AAr?$AAe?$AAa?$AAm?$AA?5?$AA?$CB?$AA?$DN?$AA?5?$AAn?$AAu?$AAl?$AAl?$AAp?$AAt?$AAr?$AA?$AA@ 0000000180040d00     libucrtd:_sftbuf.obj
 0002:00005ea8       ??_C@_1CI@JELMFMDH@?$AAc?$AA?5?$AA?$DO?$AA?$DN?$AA?5?$AA?9?$AA1?$AA?5?$AA?$CG?$AA?$CG?$AA?5?$AAc?$AA?5?$AA?$DM?$AA?$DN?$AA?5?$AA2?$AA5?$AA5?$AA?$AA@ 0000000180040ea8     libucrtd:isctype.obj
 0002:00005ed0       ??_C@_1GG@KPBGDFHJ@?$AAm?$AAi?$AAn?$AAk?$AAe?$AAr?$AAn?$AAe?$AAl?$AA?2?$AAc?$AAr?$AAt?$AAs?$AA?2?$AAu?$AAc?$AAr?$AAt?$AA?2?$AAs?$AAr?$AAc?$AA?2?$AAa?$AAp?$AAp?$AAc?$AAr?$AAt?$AA?2?$AAc@ 0000000180040ed0     libucrtd:isctype.obj
 0002:00005f40       ??_C@_1FO@GEKPJHID@?$AAm?$AAi?$AAn?$AAk?$AAe?$AAr?$AAn?$AAe?$AAl?$AA?2?$AAc?$AAr?$AAt?$AAs?$AA?2?$AAu?$AAc?$AAr?$AAt?$AA?2?$AAs?$AAr?$AAc?$AA?2?$AAa?$AAp?$AAp?$AAc?$AAr?$AAt?$AA?2?$AAh@ 0000000180040f40     libucrtd:expand.obj
 0002:00005fa0       ??_C@_1BK@JMCGJOCC@?$AA_?$AAe?$AAx?$AAp?$AAa?$AAn?$AAd?$AA_?$AAb?$AAa?$AAs?$AAe?$AA?$AA@ 0000000180040fa0     libucrtd:expand.obj
 0002:00005fc0       ??_C@_1GA@LFAOKOOP@?$AAm?$AAi?$AAn?$AAk?$AAe?$AAr?$AAn?$AAe?$AAl?$AA?2?$AAc?$AAr?$AAt?$AAs?$AA?2?$AAu?$AAc?$AAr?$AAt?$AA?2?$AAs?$AAr?$AAc?$AA?2?$AAa?$AAp?$AAp?$AAc?$AAr?$AAt?$AA?2?$AAm@ 0000000180040fc0     libucrtd:dbgrptt.obj
 0002:00006020       ??_C@_1CA@KHJHLKA@?$AA_?$AAV?$AAC?$AAr?$AAt?$AAD?$AAb?$AAg?$AAR?$AAe?$AAp?$AAo?$AAr?$AAt?$AAA?$AA?$AA@ 0000000180041020     libucrtd:dbgrptt.obj
 0002:00006040       ??_C@_1FA@JPHJBHEM@?$AA_?$AAi?$AAt?$AAo?$AAa?$AA_?$AAs?$AA?$CI?$AAn?$AAL?$AAi?$AAn?$AAe?$AA?0?$AA?5?$AAs?$AAz?$AAL?$AAi?$AAn?$AAe?$AAM?$AAe?$AAs?$AAs?$AAa?$AAg?$AAe?$AA?0?$AA?5?$AA4?$AA0@ 0000000180041040     libucrtd:dbgrptt.obj
 0002:00006090       ??_C@_0CG@BNGLOCEO@Second?5Chance?5Assertion?5Failed?3?5@ 0000000180041090     libucrtd:dbgrptt.obj
 0002:000060b8       ??_C@_0P@DFJNDPOP@?$DMfile?5unknown?$DO?$AA@ 00000001800410b8     libucrtd:dbgrptt.obj
 0002:000060c8       ??_C@_07BHGABMGB@?0?5Line?5?$AA@ 00000001800410c8     libucrtd:dbgrptt.obj
 0002:000060d0       ??_C@_01EEMJAFIK@?6?$AA@   00000001800410d0     libucrtd:dbgrptt.obj
 0002:000060e0       ??_C@_1JI@GAALPGBM@?$AAs?$AAt?$AAr?$AAc?$AAp?$AAy?$AA_?$AAs?$AA?$CI?$AAs?$AAz?$AAU?$AAs?$AAe?$AAr?$AAM?$AAe?$AAs?$AAs?$AAa?$AAg?$AAe?$AA?0?$AA?5?$AA4?$AA0?$AA9?$AA6?$AA?0?$AA?5?$AA?$CC?$AA_@ 00000001800410e0     libucrtd:dbgrptt.obj
 0002:00006178       ??_C@_0CL@EACFGMNB@_CrtDbgReport?3?5String?5too?5long?5o@ 0000000180041178     libucrtd:dbgrptt.obj
 0002:000061b0       ??_C@_1KK@GIGAEDMO@?$AAs?$AAt?$AAr?$AAc?$AAp?$AAy?$AA_?$AAs?$AA?$CI?$AAs?$AAz?$AAL?$AAi?$AAn?$AAe?$AAM?$AAe?$AAs?$AAs?$AAa?$AAg?$AAe?$AA?0?$AA?5?$AA4?$AA0?$AA9?$AA6?$AA?0?$AA?5?$AAs?$AAz@ 00000001800411b0     libucrtd:dbgrptt.obj
 0002:00006260       ??_C@_0BD@CAENFOHP@Assertion?5failed?3?5?$AA@ 0000000180041260     libucrtd:dbgrptt.obj
 0002:00006278       ??_C@_0BC@LAIDCHCH@Assertion?5failed?$CB?$AA@ 0000000180041278     libucrtd:dbgrptt.obj
 0002:00006290       ??_C@_1FK@NPGBPOFO@?$AAs?$AAt?$AAr?$AAc?$AAa?$AAt?$AA_?$AAs?$AA?$CI?$AAs?$AAz?$AAL?$AAi?$AAn?$AAe?$AAM?$AAe?$AAs?$AAs?$AAa?$AAg?$AAe?$AA?0?$AA?5?$AA4?$AA0?$AA9?$AA6?$AA?0?$AA?5?$AAs?$AAz@ 0000000180041290     libucrtd:dbgrptt.obj
 0002:000062f0       ??_C@_1EI@CACDLAFK@?$AAs?$AAt?$AAr?$AAc?$AAa?$AAt?$AA_?$AAs?$AA?$CI?$AAs?$AAz?$AAL?$AAi?$AAn?$AAe?$AAM?$AAe?$AAs?$AAs?$AAa?$AAg?$AAe?$AA?0?$AA?5?$AA4?$AA0?$AA9?$AA6?$AA?0?$AA?5?$AA?$CC?$AA?2@ 00000001800412f0     libucrtd:dbgrptt.obj
 0002:00006338       ??_C@_01LIIJDEN@?$AN?$AA@  0000000180041338     libucrtd:dbgrptt.obj
 0002:00006340       ??_C@_1EI@LDHJEDO@?$AAs?$AAt?$AAr?$AAc?$AAa?$AAt?$AA_?$AAs?$AA?$CI?$AAs?$AAz?$AAL?$AAi?$AAn?$AAe?$AAM?$AAe?$AAs?$AAs?$AAa?$AAg?$AAe?$AA?0?$AA?5?$AA4?$AA0?$AA9?$AA6?$AA?0?$AA?5?$AA?$CC?$AA?2@ 0000000180041340     libucrtd:dbgrptt.obj
 0002:00006388       ??_C@_0M@IPILFDFN@?$CFs?$CI?$CFd?$CJ?5?3?5?$CFs?$AA@ 0000000180041388     libucrtd:dbgrptt.obj
 0002:000063a0       ??_C@_1JG@CPKCIOEE@?$AAs?$AAt?$AAr?$AAc?$AAp?$AAy?$AA_?$AAs?$AA?$CI?$AAs?$AAz?$AAO?$AAu?$AAt?$AAM?$AAe?$AAs?$AAs?$AAa?$AAg?$AAe?$AA?0?$AA?5?$AA4?$AA0?$AA9?$AA6?$AA?0?$AA?5?$AA?$CC?$AA_?$AAC@ 00000001800413a0     libucrtd:dbgrptt.obj
 0002:00006440       ??_C@_1FI@IBIOIHEG@?$AAs?$AAt?$AAr?$AAc?$AAp?$AAy?$AA_?$AAs?$AA?$CI?$AAs?$AAz?$AAO?$AAu?$AAt?$AAM?$AAe?$AAs?$AAs?$AAa?$AAg?$AAe?$AA?0?$AA?5?$AA4?$AA0?$AA9?$AA6?$AA?0?$AA?5?$AAs?$AAz?$AAL@ 0000000180041440     libucrtd:dbgrptt.obj
 0002:000064a0       ??_C@_1IM@OOKIFKOH@?$AAe?$AA?5?$AA?$DN?$AA?5?$AAm?$AAb?$AAs?$AAt?$AAo?$AAw?$AAc?$AAs?$AA_?$AAs?$AA?$CI?$AA?$CG?$AAr?$AAe?$AAt?$AA?0?$AA?5?$AAs?$AAz?$AAO?$AAu?$AAt?$AAM?$AAe?$AAs?$AAs?$AAa?$AAg@ 00000001800414a0     libucrtd:dbgrptt.obj
 0002:00006530       ??_C@_1MC@IGEECMDB@?$AAw?$AAc?$AAs?$AAc?$AAp?$AAy?$AA_?$AAs?$AA?$CI?$AAs?$AAz?$AAO?$AAu?$AAt?$AAM?$AAe?$AAs?$AAs?$AAa?$AAg?$AAe?$AA2?$AA?0?$AA?5?$AA4?$AA0?$AA9?$AA6?$AA?0?$AA?5?$AAL?$AA?$CC@ 0000000180041530     libucrtd:dbgrptt.obj
 0002:00006600       ??_C@_1HO@PJOFIKFE@?$AA_?$AAC?$AAr?$AAt?$AAD?$AAb?$AAg?$AAR?$AAe?$AAp?$AAo?$AAr?$AAt?$AA?3?$AA?5?$AAS?$AAt?$AAr?$AAi?$AAn?$AAg?$AA?5?$AAt?$AAo?$AAo?$AA?5?$AAl?$AAo?$AAn?$AAg?$AA?5?$AAo@ 0000000180041600     libucrtd:dbgrptt.obj
 0002:00006680       ??_C@_1CA@HPALHDOD@?$AA_?$AAV?$AAC?$AAr?$AAt?$AAD?$AAb?$AAg?$AAR?$AAe?$AAp?$AAo?$AAr?$AAt?$AAW?$AA?$AA@ 0000000180041680     libucrtd:dbgrptt.obj
 0002:000066a0       ??_C@_1FA@CNLLOMHI@?$AA_?$AAi?$AAt?$AAo?$AAw?$AA_?$AAs?$AA?$CI?$AAn?$AAL?$AAi?$AAn?$AAe?$AA?0?$AA?5?$AAs?$AAz?$AAL?$AAi?$AAn?$AAe?$AAM?$AAe?$AAs?$AAs?$AAa?$AAg?$AAe?$AA?0?$AA?5?$AA4?$AA0@ 00000001800416a0     libucrtd:dbgrptt.obj
 0002:000066f0       ??_C@_1EM@MJFLEDMB@?$AAS?$AAe?$AAc?$AAo?$AAn?$AAd?$AA?5?$AAC?$AAh?$AAa?$AAn?$AAc?$AAe?$AA?5?$AAA?$AAs?$AAs?$AAe?$AAr?$AAt?$AAi?$AAo?$AAn?$AA?5?$AAF?$AAa?$AAi?$AAl?$AAe?$AAd?$AA?3?$AA?5@ 00000001800416f0     libucrtd:dbgrptt.obj
 0002:00006740       ??_C@_1BO@OCHMLCAG@?$AA?$DM?$AAf?$AAi?$AAl?$AAe?$AA?5?$AAu?$AAn?$AAk?$AAn?$AAo?$AAw?$AAn?$AA?$DO?$AA?$AA@ 0000000180041740     libucrtd:dbgrptt.obj
 0002:00006760       ??_C@_1BA@ELMMDCFC@?$AA?0?$AA?5?$AAL?$AAi?$AAn?$AAe?$AA?5?$AA?$AA@ 0000000180041760     libucrtd:dbgrptt.obj
 0002:00006770       ??_C@_13LBAGMAIH@?$AA?6?$AA?$AA@ 0000000180041770     libucrtd:dbgrptt.obj
 0002:00006780       ??_C@_1JK@KHFABAEO@?$AAw?$AAc?$AAs?$AAc?$AAp?$AAy?$AA_?$AAs?$AA?$CI?$AAs?$AAz?$AAU?$AAs?$AAe?$AAr?$AAM?$AAe?$AAs?$AAs?$AAa?$AAg?$AAe?$AA?0?$AA?5?$AA4?$AA0?$AA9?$AA6?$AA?0?$AA?5?$AAL?$AA?$CC@ 0000000180041780     libucrtd:dbgrptt.obj
 0002:00006820       ??_C@_1KO@DGAHENCH@?$AAw?$AAc?$AAs?$AAc?$AAp?$AAy?$AA_?$AAs?$AA?$CI?$AAs?$AAz?$AAL?$AAi?$AAn?$AAe?$AAM?$AAe?$AAs?$AAs?$AAa?$AAg?$AAe?$AA?0?$AA?5?$AA4?$AA0?$AA9?$AA6?$AA?0?$AA?5?$AAs?$AAz@ 0000000180041820     libucrtd:dbgrptt.obj
 0002:000068d0       ??_C@_1CG@FFFGGODN@?$AAA?$AAs?$AAs?$AAe?$AAr?$AAt?$AAi?$AAo?$AAn?$AA?5?$AAf?$AAa?$AAi?$AAl?$AAe?$AAd?$AA?3?$AA?5?$AA?$AA@ 00000001800418d0     libucrtd:dbgrptt.obj
 0002:000068f8       ??_C@_1CE@OJBNHDMO@?$AAA?$AAs?$AAs?$AAe?$AAr?$AAt?$AAi?$AAo?$AAn?$AA?5?$AAf?$AAa?$AAi?$AAl?$AAe?$AAd?$AA?$CB?$AA?$AA@ 00000001800418f8     libucrtd:dbgrptt.obj
 0002:00006920       ??_C@_1FK@HPADHBBD@?$AAw?$AAc?$AAs?$AAc?$AAa?$AAt?$AA_?$AAs?$AA?$CI?$AAs?$AAz?$AAL?$AAi?$AAn?$AAe?$AAM?$AAe?$AAs?$AAs?$AAa?$AAg?$AAe?$AA?0?$AA?5?$AA4?$AA0?$AA9?$AA6?$AA?0?$AA?5?$AAs?$AAz@ 0000000180041920     libucrtd:dbgrptt.obj
 0002:00006980       ??_C@_1EK@NMDFGHMF@?$AAw?$AAc?$AAs?$AAc?$AAa?$AAt?$AA_?$AAs?$AA?$CI?$AAs?$AAz?$AAL?$AAi?$AAn?$AAe?$AAM?$AAe?$AAs?$AAs?$AAa?$AAg?$AAe?$AA?0?$AA?5?$AA4?$AA0?$AA9?$AA6?$AA?0?$AA?5?$AAL?$AA?$CC@ 0000000180041980     libucrtd:dbgrptt.obj
 0002:000069cc       ??_C@_13CMNBPIDO@?$AA?$AN?$AA?$AA@ 00000001800419cc     libucrtd:dbgrptt.obj
 0002:000069d0       ??_C@_1EK@PHCBEDKB@?$AAw?$AAc?$AAs?$AAc?$AAa?$AAt?$AA_?$AAs?$AA?$CI?$AAs?$AAz?$AAL?$AAi?$AAn?$AAe?$AAM?$AAe?$AAs?$AAs?$AAa?$AAg?$AAe?$AA?0?$AA?5?$AA4?$AA0?$AA9?$AA6?$AA?0?$AA?5?$AAL?$AA?$CC@ 00000001800419d0     libucrtd:dbgrptt.obj
 0002:00006a20       ??_C@_1BM@GIBPMLNL@?$AA?$CF?$AAl?$AAs?$AA?$CI?$AA?$CF?$AAd?$AA?$CJ?$AA?5?$AA?3?$AA?5?$AA?$CF?$AAl?$AAs?$AA?$AA@ 0000000180041a20     libucrtd:dbgrptt.obj
 0002:00006a40       ??_C@_1JI@EACPGHID@?$AAw?$AAc?$AAs?$AAc?$AAp?$AAy?$AA_?$AAs?$AA?$CI?$AAs?$AAz?$AAO?$AAu?$AAt?$AAM?$AAe?$AAs?$AAs?$AAa?$AAg?$AAe?$AA?0?$AA?5?$AA4?$AA0?$AA9?$AA6?$AA?0?$AA?5?$AAL?$AA?$CC?$AA_@ 0000000180041a40     libucrtd:dbgrptt.obj
 0002:00006ae0       ??_C@_1FI@DBAIJPJE@?$AAw?$AAc?$AAs?$AAc?$AAp?$AAy?$AA_?$AAs?$AA?$CI?$AAs?$AAz?$AAO?$AAu?$AAt?$AAM?$AAe?$AAs?$AAs?$AAa?$AAg?$AAe?$AA?0?$AA?5?$AA4?$AA0?$AA9?$AA6?$AA?0?$AA?5?$AAs?$AAz?$AAL@ 0000000180041ae0     libucrtd:dbgrptt.obj
 0002:00006b40       ??_C@_1IK@LEBMBAP@?$AAw?$AAc?$AAs?$AAt?$AAo?$AAm?$AAb?$AAs?$AA_?$AAs?$AA?$CI?$AAn?$AAu?$AAl?$AAl?$AAp?$AAt?$AAr?$AA?0?$AA?5?$AAs?$AAz?$AAO?$AAu?$AAt?$AAM?$AAe?$AAs?$AAs?$AAa?$AAg?$AAe@ 0000000180041b40     libucrtd:dbgrptt.obj
 0002:00006bd0       ??_C@_1MA@LBAMNNOB@?$AAs?$AAt?$AAr?$AAc?$AAp?$AAy?$AA_?$AAs?$AA?$CI?$AAs?$AAz?$AAO?$AAu?$AAt?$AAM?$AAe?$AAs?$AAs?$AAa?$AAg?$AAe?$AA2?$AA?0?$AA?5?$AA4?$AA0?$AA9?$AA6?$AA?0?$AA?5?$AA?$CC?$AA_@ 0000000180041bd0     libucrtd:dbgrptt.obj
 0002:00006c90       ??_C@_0DP@GNPEPHJD@_CrtDbgReport?3?5String?5too?5long?5o@ 0000000180041c90     libucrtd:dbgrptt.obj
 0002:00006cd0       ??_C@_1IE@CPGKIAGP@?$AAw?$AAc?$AAs?$AAt?$AAo?$AAm?$AAb?$AAs?$AA_?$AAs?$AA?$CI?$AA?$CG?$AAr?$AAe?$AAt?$AA?0?$AA?5?$AAs?$AAz?$AAa?$AAO?$AAu?$AAt?$AAM?$AAe?$AAs?$AAs?$AAa?$AAg?$AAe?$AA?0?$AA?5@ 0000000180041cd0     libucrtd:dbgrptt.obj
 0002:00006d60       ??_C@_1IC@DCNEKBE@?$AAm?$AAi?$AAn?$AAk?$AAe?$AAr?$AAn?$AAe?$AAl?$AA?2?$AAc?$AAr?$AAt?$AAs?$AA?2?$AAu?$AAc?$AAr?$AAt?$AA?2?$AAs?$AAr?$AAc?$AA?2?$AAa?$AAp?$AAp?$AAc?$AAr?$AAt?$AA?2?$AAi@ 0000000180041d60     libucrtd:report_runtime_error.obj
 0002:00006de8       ??_C@_1DI@BLFJHKKP@?$AA_?$AA_?$AAa?$AAc?$AAr?$AAt?$AA_?$AAr?$AAe?$AAp?$AAo?$AAr?$AAt?$AA_?$AAr?$AAu?$AAn?$AAt?$AAi?$AAm?$AAe?$AA_?$AAe?$AAr?$AAr?$AAo?$AAr?$AA?$AA@ 0000000180041de8     libucrtd:report_runtime_error.obj
 0002:00006e20       ??_C@_1LE@MHPGJGKE@?$AAw?$AAc?$AAs?$AAc?$AAp?$AAy?$AA_?$AAs?$AA?$CI?$AAo?$AAu?$AAt?$AAm?$AAs?$AAg?$AA?0?$AA?5?$AA?$CI?$AAs?$AAi?$AAz?$AAe?$AAo?$AAf?$AA?$CI?$AA?$CK?$AA_?$AA_?$AAc?$AAo?$AAu?$AAn@ 0000000180041e20     libucrtd:report_runtime_error.obj
 0002:00006ed8       ??_C@_1DE@JNGNBFGO@?$AAR?$AAu?$AAn?$AAt?$AAi?$AAm?$AAe?$AA?5?$AAE?$AAr?$AAr?$AAo?$AAr?$AA?$CB?$AA?6?$AA?6?$AAP?$AAr?$AAo?$AAg?$AAr?$AAa?$AAm?$AA?3?$AA?5?$AA?$AA@ 0000000180041ed8     libucrtd:report_runtime_error.obj
 0002:00006f10       ??_C@_1HK@FJJNAABO@?$AAw?$AAc?$AAs?$AAc?$AAp?$AAy?$AA_?$AAs?$AA?$CI?$AAp?$AAr?$AAo?$AAg?$AAn?$AAa?$AAm?$AAe?$AA?0?$AA?5?$AAp?$AAr?$AAo?$AAg?$AAn?$AAa?$AAm?$AAe?$AA_?$AAs?$AAi?$AAz?$AAe@ 0000000180041f10     libucrtd:report_runtime_error.obj
 0002:00006f90       ??_C@_1HI@FLHKGEBE@?$AAw?$AAc?$AAs?$AAn?$AAc?$AAp?$AAy?$AA_?$AAs?$AA?$CI?$AAp?$AAc?$AAh?$AA?0?$AA?5?$AAp?$AAr?$AAo?$AAg?$AAn?$AAa?$AAm?$AAe?$AA_?$AAs?$AAi?$AAz?$AAe?$AA?5?$AA?9?$AA?5?$AA?$CI@ 0000000180041f90     libucrtd:report_runtime_error.obj
 0002:00007010       ??_C@_1IG@MNNKBLBI@?$AAw?$AAc?$AAs?$AAc?$AAa?$AAt?$AA_?$AAs?$AA?$CI?$AAo?$AAu?$AAt?$AAm?$AAs?$AAg?$AA?0?$AA?5?$AA?$CI?$AAs?$AAi?$AAz?$AAe?$AAo?$AAf?$AA?$CI?$AA?$CK?$AA_?$AA_?$AAc?$AAo?$AAu?$AAn@ 0000000180042010     libucrtd:report_runtime_error.obj
 0002:000070a0       ??_C@_1IG@DFBBBDAN@?$AAw?$AAc?$AAs?$AAc?$AAa?$AAt?$AA_?$AAs?$AA?$CI?$AAo?$AAu?$AAt?$AAm?$AAs?$AAg?$AA?0?$AA?5?$AA?$CI?$AAs?$AAi?$AAz?$AAe?$AAo?$AAf?$AA?$CI?$AA?$CK?$AA_?$AA_?$AAc?$AAo?$AAu?$AAn@ 00000001800420a0     libucrtd:report_runtime_error.obj
 0002:00007130       ??_C@_1BBC@DECGKMGJ@?$AA_?$AAl?$AAo?$AAc?$AA_?$AAu?$AAp?$AAd?$AAa?$AAt?$AAe?$AA?4?$AAG?$AAe?$AAt?$AAL?$AAo?$AAc?$AAa?$AAl?$AAe?$AAT?$AA?$CI?$AA?$CJ?$AA?9?$AA?$DO?$AAl?$AAo?$AAc?$AAi?$AAn?$AAf@ 0000000180042130     libucrtd:mbtowc.obj
 0002:00007250       ??_C@_1GE@CGIHMDEJ@?$AAm?$AAi?$AAn?$AAk?$AAe?$AAr?$AAn?$AAe?$AAl?$AA?2?$AAc?$AAr?$AAt?$AAs?$AA?2?$AAu?$AAc?$AAr?$AAt?$AA?2?$AAs?$AAr?$AAc?$AA?2?$AAa?$AAp?$AAp?$AAc?$AAr?$AAt?$AA?2?$AAc@ 0000000180042250     libucrtd:mbtowc.obj
 0002:000072b8       ??_C@_1DK@NBNOAGKB@?$AAd?$AAe?$AAs?$AAt?$AAi?$AAn?$AAa?$AAt?$AAi?$AAo?$AAn?$AA_?$AAc?$AAo?$AAu?$AAn?$AAt?$AA?5?$AA?$DM?$AA?$DN?$AA?5?$AAI?$AAN?$AAT?$AA_?$AAM?$AAA?$AAX?$AA?$AA@ 00000001800422b8     libucrtd:wctomb.obj
 0002:00007300       ??_C@_1GE@FCCEPHFG@?$AAm?$AAi?$AAn?$AAk?$AAe?$AAr?$AAn?$AAe?$AAl?$AA?2?$AAc?$AAr?$AAt?$AAs?$AA?2?$AAu?$AAc?$AAr?$AAt?$AA?2?$AAs?$AAr?$AAc?$AA?2?$AAa?$AAp?$AAp?$AAc?$AAr?$AAt?$AA?2?$AAc@ 0000000180042300     libucrtd:wctomb.obj
 0002:00007368       ??_C@_1BI@IEADNOHF@?$AA_?$AAw?$AAc?$AAt?$AAo?$AAm?$AAb?$AA_?$AAs?$AA_?$AAl?$AA?$AA@ 0000000180042368     libucrtd:wctomb.obj
 0002:00007380       ??_C@_1CM@ENFEGCNE@?$AAd?$AAe?$AAs?$AAt?$AAi?$AAn?$AAa?$AAt?$AAi?$AAo?$AAn?$AA_?$AAc?$AAo?$AAu?$AAn?$AAt?$AA?5?$AA?$DO?$AA?5?$AA0?$AA?$AA@ 0000000180042380     libucrtd:wctomb.obj
 0002:000073d8       ??_C@_03OEIAHPBN@INF?$AA@  00000001800423d8     libucrtd:cvt.obj
 0002:000073dc       ??_C@_03OJHLLCGB@inf?$AA@  00000001800423dc     libucrtd:cvt.obj
 0002:000073e0       ??_C@_03LKNCIKJB@NAN?$AA@  00000001800423e0     libucrtd:cvt.obj
 0002:000073e4       ??_C@_03LHCJEHON@nan?$AA@  00000001800423e4     libucrtd:cvt.obj
 0002:000073e8       ??_C@_09OFJJIMPC@NAN?$CISNAN?$CJ?$AA@ 00000001800423e8     libucrtd:cvt.obj
 0002:000073f8       ??_C@_09IPFBKMDL@nan?$CIsnan?$CJ?$AA@ 00000001800423f8     libucrtd:cvt.obj
 0002:00007408       ??_C@_08IKHNHAJ@NAN?$CIIND?$CJ?$AA@ 0000000180042408     libucrtd:cvt.obj
 0002:00007418       ??_C@_08OFCDMILK@nan?$CIind?$CJ?$AA@ 0000000180042418     libucrtd:cvt.obj
 0002:00007430       ??_C@_1FO@GKAKAPLI@?$AAm?$AAi?$AAn?$AAk?$AAe?$AAr?$AAn?$AAe?$AAl?$AA?2?$AAc?$AAr?$AAt?$AAs?$AA?2?$AAu?$AAc?$AAr?$AAt?$AA?2?$AAs?$AAr?$AAc?$AA?2?$AAa?$AAp?$AAp?$AAc?$AAr?$AAt?$AA?2?$AAc@ 0000000180042430     libucrtd:cvt.obj
 0002:00007490       ??_C@_1DE@EHGIGIDK@?$AAf?$AAp?$AA_?$AAf?$AAo?$AAr?$AAm?$AAa?$AAt?$AA_?$AAn?$AAa?$AAn?$AA_?$AAo?$AAr?$AA_?$AAi?$AAn?$AAf?$AAi?$AAn?$AAi?$AAt?$AAy?$AA?$AA@ 0000000180042490     libucrtd:cvt.obj
 0002:000074d0       ??_C@_1LI@PCMLJPCO@?$AAs?$AAt?$AAr?$AAc?$AAp?$AAy?$AA_?$AAs?$AA?$CI?$AA?5?$AAr?$AAe?$AAs?$AAu?$AAl?$AAt?$AA_?$AAb?$AAu?$AAf?$AAf?$AAe?$AAr?$AA?0?$AA?5?$AAr?$AAe?$AAs?$AAu?$AAl?$AAt?$AA_@ 00000001800424d0     libucrtd:cvt.obj
 0002:00007590       ??_C@_1KO@LJHOFBCD@?$AAr?$AAe?$AAs?$AAu?$AAl?$AAt?$AA_?$AAb?$AAu?$AAf?$AAf?$AAe?$AAr?$AA_?$AAc?$AAo?$AAu?$AAn?$AAt?$AA?5?$AA?$DO?$AA?5?$AAs?$AAt?$AAa?$AAt?$AAi?$AAc?$AA_?$AAc?$AAa?$AAs@ 0000000180042590     libucrtd:cvt.obj
 0002:00007640       ??_C@_1CK@BOLHOMFO@?$AAf?$AAp?$AA_?$AAf?$AAo?$AAr?$AAm?$AAa?$AAt?$AA_?$AAe?$AA_?$AAi?$AAn?$AAt?$AAe?$AAr?$AAn?$AAa?$AAl?$AA?$AA@ 0000000180042640     libucrtd:cvt.obj
 0002:00007670       ??_C@_1BBA@FHDJNBGM@?$AAs?$AAt?$AAr?$AAc?$AAp?$AAy?$AA_?$AAs?$AA?$CI?$AA?5?$AAp?$AA?0?$AA?5?$AAr?$AAe?$AAs?$AAu?$AAl?$AAt?$AA_?$AAb?$AAu?$AAf?$AAf?$AAe?$AAr?$AA_?$AAc?$AAo?$AAu?$AAn?$AAt@ 0000000180042670     libucrtd:cvt.obj
 0002:00007780       ??_C@_05KLBDPFGC@e?$CL000?$AA@ 0000000180042780     libucrtd:cvt.obj
 0002:00007790       ??_C@_1IC@FILKPBAB@?$AAr?$AAe?$AAs?$AAu?$AAl?$AAt?$AA_?$AAb?$AAu?$AAf?$AAf?$AAe?$AAr?$AA_?$AAc?$AAo?$AAu?$AAn?$AAt?$AA?5?$AA?$DO?$AA?5?$AAs?$AAt?$AAa?$AAt?$AAi?$AAc?$AA_?$AAc?$AAa?$AAs@ 0000000180042790     libucrtd:cvt.obj
 0002:00007818       ??_C@_1BI@PNBDLNBB@?$AAf?$AAp?$AA_?$AAf?$AAo?$AAr?$AAm?$AAa?$AAt?$AA_?$AAa?$AA?$AA@ 0000000180042818     libucrtd:cvt.obj
 0002:00007830       ??_C@_1DC@MGKAFPFD@?$AAr?$AAe?$AAs?$AAu?$AAl?$AAt?$AA_?$AAb?$AAu?$AAf?$AAf?$AAe?$AAr?$AA?5?$AA?$CB?$AA?$DN?$AA?5?$AAn?$AAu?$AAl?$AAl?$AAp?$AAt?$AAr?$AA?$AA@ 0000000180042830     libucrtd:cvt.obj
 0002:00007868       ??_C@_1CC@LDAHJAKK@?$AA_?$AA_?$AAa?$AAc?$AAr?$AAt?$AA_?$AAf?$AAp?$AA_?$AAf?$AAo?$AAr?$AAm?$AAa?$AAt?$AA?$AA@ 0000000180042868     libucrtd:cvt.obj
 0002:00007890       ??_C@_1DA@NMLJJOCO@?$AAr?$AAe?$AAs?$AAu?$AAl?$AAt?$AA_?$AAb?$AAu?$AAf?$AAf?$AAe?$AAr?$AA_?$AAc?$AAo?$AAu?$AAn?$AAt?$AA?5?$AA?$DO?$AA?5?$AA0?$AA?$AA@ 0000000180042890     libucrtd:cvt.obj
 0002:000078c0       ??_C@_1DE@MNOPBCOK@?$AAs?$AAc?$AAr?$AAa?$AAt?$AAc?$AAh?$AA_?$AAb?$AAu?$AAf?$AAf?$AAe?$AAr?$AA?5?$AA?$CB?$AA?$DN?$AA?5?$AAn?$AAu?$AAl?$AAl?$AAp?$AAt?$AAr?$AA?$AA@ 00000001800428c0     libucrtd:cvt.obj
 0002:000078f8       ??_C@_1DC@CKBKNFKH@?$AAs?$AAc?$AAr?$AAa?$AAt?$AAc?$AAh?$AA_?$AAb?$AAu?$AAf?$AAf?$AAe?$AAr?$AA_?$AAc?$AAo?$AAu?$AAn?$AAt?$AA?5?$AA?$DO?$AA?5?$AA0?$AA?$AA@ 00000001800428f8     libucrtd:cvt.obj
 0002:00007930       ??_C@_1EI@JAHBOGIM@?$AA?$CI?$AA?$CC?$AAU?$AAn?$AAs?$AAu?$AAp?$AAp?$AAo?$AAr?$AAt?$AAe?$AAd?$AA?5?$AAf?$AAo?$AAr?$AAm?$AAa?$AAt?$AA?5?$AAs?$AAp?$AAe?$AAc?$AAi?$AAf?$AAi?$AAe?$AAr?$AA?$CC?$AA?0@ 0000000180042930     libucrtd:cvt.obj
 0002:00007978       ??_C@_1BO@MHPFFFJJ@?$AAs?$AAt?$AAr?$AAe?$AAa?$AAm?$AA?4?$AAv?$AAa?$AAl?$AAi?$AAd?$AA?$CI?$AA?$CJ?$AA?$AA@ 0000000180042978     libucrtd:fileno.obj
 0002:000079a0       ??_C@_1GA@KCAHHNGP@?$AAm?$AAi?$AAn?$AAk?$AAe?$AAr?$AAn?$AAe?$AAl?$AA?2?$AAc?$AAr?$AAt?$AAs?$AA?2?$AAu?$AAc?$AAr?$AAt?$AA?2?$AAs?$AAr?$AAc?$AA?2?$AAa?$AAp?$AAp?$AAc?$AAr?$AAt?$AA?2?$AAs@ 00000001800429a0     libucrtd:fileno.obj
 0002:00007a00       ??_C@_1BA@JGHIEKKM@?$AA_?$AAf?$AAi?$AAl?$AAe?$AAn?$AAo?$AA?$AA@ 0000000180042a00     libucrtd:fileno.obj
 0002:00007a10       ??_C@_0CP@GDJHIDC@minkernel?2crts?2ucrt?2src?2appcrt?2s@ 0000000180042a10     libucrtd:_file.obj
 0002:00007a40       ??_C@_05HGHHAHAP@log10?$AA@ 0000000180042a40     libucrtd:fpexcept.obj
 0002:00007a50       ??_C@_1BKC@NBNHJIDM@?$AA?$CI?$AAp?$AAt?$AAl?$AAo?$AAc?$AAi?$AA?9?$AA?$DO?$AAl?$AAc?$AA_?$AAc?$AAa?$AAt?$AAe?$AAg?$AAo?$AAr?$AAy?$AA?$FL?$AAc?$AAa?$AAt?$AAe?$AAg?$AAo?$AAr?$AAy?$AA?$FN?$AA?4?$AAl@ 0000000180042a50     libucrtd:locale_refcounting.obj
 0002:00007c00       ??_C@_1HK@HCNMEOLA@?$AAm?$AAi?$AAn?$AAk?$AAe?$AAr?$AAn?$AAe?$AAl?$AA?2?$AAc?$AAr?$AAt?$AAs?$AA?2?$AAu?$AAc?$AAr?$AAt?$AA?2?$AAs?$AAr?$AAc?$AA?2?$AAa?$AAp?$AAp?$AAc?$AAr?$AAt?$AA?2?$AAl@ 0000000180042c00     libucrtd:locale_refcounting.obj
 0002:00007c80       ??_C@_1BG@NDGMJIMJ@?$AAu?$AAz?$AA?9?$AAU?$AAZ?$AA?9?$AAL?$AAa?$AAt?$AAn?$AA?$AA@ 0000000180042c80     libucrtd:lcidtoname_downlevel.obj
 0002:00007c98       ??_C@_1M@IDCCIHBC@?$AAt?$AAt?$AA?9?$AAR?$AAU?$AA?$AA@ 0000000180042c98     libucrtd:lcidtoname_downlevel.obj
 0002:00007ca8       ??_C@_1M@LOICPMOJ@?$AAb?$AAn?$AA?9?$AAI?$AAN?$AA?$AA@ 0000000180042ca8     libucrtd:lcidtoname_downlevel.obj
 0002:00007cb8       ??_C@_1M@KPKKNEAH@?$AAp?$AAa?$AA?9?$AAI?$AAN?$AA?$AA@ 0000000180042cb8     libucrtd:lcidtoname_downlevel.obj
 0002:00007cc8       ??_C@_1M@PJGPPBOG@?$AAg?$AAu?$AA?9?$AAI?$AAN?$AA?$AA@ 0000000180042cc8     libucrtd:lcidtoname_downlevel.obj
 0002:00007cd8       ??_C@_1M@KMKMOPHI@?$AAt?$AAa?$AA?9?$AAI?$AAN?$AA?$AA@ 0000000180042cd8     libucrtd:lcidtoname_downlevel.obj
 0002:00007ce8       ??_C@_1M@KFEHEPAC@?$AAt?$AAe?$AA?9?$AAI?$AAN?$AA?$AA@ 0000000180042ce8     libucrtd:lcidtoname_downlevel.obj
 0002:00007cf8       ??_C@_1M@CDCLMGHI@?$AAk?$AAn?$AA?9?$AAI?$AAN?$AA?$AA@ 0000000180042cf8     libucrtd:lcidtoname_downlevel.obj
 0002:00007d08       ??_C@_1M@MIODLDKF@?$AAm?$AAl?$AA?9?$AAI?$AAN?$AA?$AA@ 0000000180042d08     libucrtd:lcidtoname_downlevel.obj
 0002:00007d18       ??_C@_1M@PBIEACPO@?$AAm?$AAr?$AA?9?$AAI?$AAN?$AA?$AA@ 0000000180042d18     libucrtd:lcidtoname_downlevel.obj
 0002:00007d28       ??_C@_1M@NIDEAGPH@?$AAs?$AAa?$AA?9?$AAI?$AAN?$AA?$AA@ 0000000180042d28     libucrtd:lcidtoname_downlevel.obj
 0002:00007d38       ??_C@_1M@FHIHCBIO@?$AAm?$AAn?$AA?9?$AAM?$AAN?$AA?$AA@ 0000000180042d38     libucrtd:lcidtoname_downlevel.obj
 0002:00007d48       ??_C@_1M@JAIJPENP@?$AAc?$AAy?$AA?9?$AAG?$AAB?$AA?$AA@ 0000000180042d48     libucrtd:lcidtoname_downlevel.obj
 0002:00007d58       ??_C@_1M@PHGFBEPN@?$AAg?$AAl?$AA?9?$AAE?$AAS?$AA?$AA@ 0000000180042d58     libucrtd:lcidtoname_downlevel.obj
 0002:00007d68       ??_C@_1O@KPIPDNCP@?$AAk?$AAo?$AAk?$AA?9?$AAI?$AAN?$AA?$AA@ 0000000180042d68     libucrtd:lcidtoname_downlevel.obj
 0002:00007d78       ??_C@_1O@KNHJLDJA@?$AAs?$AAy?$AAr?$AA?9?$AAS?$AAY?$AA?$AA@ 0000000180042d78     libucrtd:lcidtoname_downlevel.obj
 0002:00007d88       ??_C@_1O@MKEKBLAH@?$AAd?$AAi?$AAv?$AA?9?$AAM?$AAV?$AA?$AA@ 0000000180042d88     libucrtd:lcidtoname_downlevel.obj
 0002:00007d98       ??_C@_1O@OHDCKDDF@?$AAq?$AAu?$AAz?$AA?9?$AAB?$AAO?$AA?$AA@ 0000000180042d98     libucrtd:lcidtoname_downlevel.obj
 0002:00007da8       ??_C@_1M@LEPJNLFD@?$AAn?$AAs?$AA?9?$AAZ?$AAA?$AA?$AA@ 0000000180042da8     libucrtd:lcidtoname_downlevel.obj
 0002:00007db8       ??_C@_1M@OMLEIIJB@?$AAm?$AAi?$AA?9?$AAN?$AAZ?$AA?$AA@ 0000000180042db8     libucrtd:lcidtoname_downlevel.obj
 0002:00007dc8       ??_C@_1M@PMPEAILG@?$AAa?$AAr?$AA?9?$AAI?$AAQ?$AA?$AA@ 0000000180042dc8     libucrtd:lcidtoname_downlevel.obj
 0002:00007dd8       ??_C@_1M@CNKPNOEE@?$AAd?$AAe?$AA?9?$AAC?$AAH?$AA?$AA@ 0000000180042dd8     libucrtd:lcidtoname_downlevel.obj
 0002:00007de8       ??_C@_1M@LKMGMLKO@?$AAe?$AAn?$AA?9?$AAG?$AAB?$AA?$AA@ 0000000180042de8     libucrtd:lcidtoname_downlevel.obj
 0002:00007df8       ??_C@_1M@PGKJFFGL@?$AAe?$AAs?$AA?9?$AAM?$AAX?$AA?$AA@ 0000000180042df8     libucrtd:lcidtoname_downlevel.obj
 0002:00007e08       ??_C@_1M@DNNANBDC@?$AAf?$AAr?$AA?9?$AAB?$AAE?$AA?$AA@ 0000000180042e08     libucrtd:lcidtoname_downlevel.obj
 0002:00007e18       ??_C@_1M@HLGMDFHM@?$AAi?$AAt?$AA?9?$AAC?$AAH?$AA?$AA@ 0000000180042e18     libucrtd:lcidtoname_downlevel.obj
 0002:00007e28       ??_C@_1M@CLLBGJH@?$AAn?$AAl?$AA?9?$AAB?$AAE?$AA?$AA@ 0000000180042e28     libucrtd:lcidtoname_downlevel.obj
 0002:00007e38       ??_C@_1M@BODBOGLF@?$AAn?$AAn?$AA?9?$AAN?$AAO?$AA?$AA@ 0000000180042e38     libucrtd:lcidtoname_downlevel.obj
 0002:00007e48       ??_C@_1M@HFFAHKAD@?$AAp?$AAt?$AA?9?$AAP?$AAT?$AA?$AA@ 0000000180042e48     libucrtd:lcidtoname_downlevel.obj
 0002:00007e58       ??_C@_1BG@LNOAKHIE@?$AAs?$AAr?$AA?9?$AAS?$AAP?$AA?9?$AAL?$AAa?$AAt?$AAn?$AA?$AA@ 0000000180042e58     libucrtd:lcidtoname_downlevel.obj
 0002:00007e70       ??_C@_1M@HBMHBGAK@?$AAs?$AAv?$AA?9?$AAF?$AAI?$AA?$AA@ 0000000180042e70     libucrtd:lcidtoname_downlevel.obj
 0002:00007e80       ??_C@_1BG@DGCJGJBE@?$AAa?$AAz?$AA?9?$AAA?$AAZ?$AA?9?$AAC?$AAy?$AAr?$AAl?$AA?$AA@ 0000000180042e80     libucrtd:lcidtoname_downlevel.obj
 0002:00007e98       ??_C@_1M@KEJDAAHB@?$AAs?$AAe?$AA?9?$AAS?$AAE?$AA?$AA@ 0000000180042e98     libucrtd:lcidtoname_downlevel.obj
 0002:00007ea8       ??_C@_1M@HEIBJJAD@?$AAm?$AAs?$AA?9?$AAB?$AAN?$AA?$AA@ 0000000180042ea8     libucrtd:lcidtoname_downlevel.obj
 0002:00007eb8       ??_C@_1BG@PBGJMCEM@?$AAu?$AAz?$AA?9?$AAU?$AAZ?$AA?9?$AAC?$AAy?$AAr?$AAl?$AA?$AA@ 0000000180042eb8     libucrtd:lcidtoname_downlevel.obj
 0002:00007ed0       ??_C@_1O@LAOBCMDF@?$AAq?$AAu?$AAz?$AA?9?$AAE?$AAC?$AA?$AA@ 0000000180042ed0     libucrtd:lcidtoname_downlevel.obj
 0002:00007ee0       ??_C@_1M@POEEMAIO@?$AAa?$AAr?$AA?9?$AAE?$AAG?$AA?$AA@ 0000000180042ee0     libucrtd:lcidtoname_downlevel.obj
 0002:00007ef0       ??_C@_1M@EFAKDEDL@?$AAz?$AAh?$AA?9?$AAH?$AAK?$AA?$AA@ 0000000180042ef0     libucrtd:lcidtoname_downlevel.obj
 0002:00007f00       ??_C@_1M@HKKIJHGI@?$AAd?$AAe?$AA?9?$AAA?$AAT?$AA?$AA@ 0000000180042f00     libucrtd:lcidtoname_downlevel.obj
 0002:00007f10       ??_C@_1M@KBFBEHJF@?$AAe?$AAn?$AA?9?$AAA?$AAU?$AA?$AA@ 0000000180042f10     libucrtd:lcidtoname_downlevel.obj
 0002:00007f20       ??_C@_1M@MNPLFAAH@?$AAe?$AAs?$AA?9?$AAE?$AAS?$AA?$AA@ 0000000180042f20     libucrtd:lcidtoname_downlevel.obj
 0002:00007f30       ??_C@_1M@HJOOJFMA@?$AAf?$AAr?$AA?9?$AAC?$AAA?$AA?$AA@ 0000000180042f30     libucrtd:lcidtoname_downlevel.obj
 0002:00007f40       ??_C@_1BG@JPOFPNAB@?$AAs?$AAr?$AA?9?$AAS?$AAP?$AA?9?$AAC?$AAy?$AAr?$AAl?$AA?$AA@ 0000000180042f40     libucrtd:lcidtoname_downlevel.obj
 0002:00007f58       ??_C@_1M@LNFOCMOB@?$AAs?$AAe?$AA?9?$AAF?$AAI?$AA?$AA@ 0000000180042f58     libucrtd:lcidtoname_downlevel.obj
 0002:00007f68       ??_C@_1O@MGJBOAMB@?$AAq?$AAu?$AAz?$AA?9?$AAP?$AAE?$AA?$AA@ 0000000180042f68     libucrtd:lcidtoname_downlevel.obj
 0002:00007f78       ??_C@_1M@GJINLBOK@?$AAa?$AAr?$AA?9?$AAL?$AAY?$AA?$AA@ 0000000180042f78     libucrtd:lcidtoname_downlevel.obj
 0002:00007f88       ??_C@_1M@GGMNHJNL@?$AAz?$AAh?$AA?9?$AAS?$AAG?$AA?$AA@ 0000000180042f88     libucrtd:lcidtoname_downlevel.obj
 0002:00007f98       ??_C@_1M@HOIKODND@?$AAd?$AAe?$AA?9?$AAL?$AAU?$AA?$AA@ 0000000180042f98     libucrtd:lcidtoname_downlevel.obj
 0002:00007fa8       ??_C@_1M@DDOCCGFG@?$AAe?$AAn?$AA?9?$AAC?$AAA?$AA?$AA@ 0000000180042fa8     libucrtd:lcidtoname_downlevel.obj
 0002:00007fb8       ??_C@_1M@BNOEMJLF@?$AAe?$AAs?$AA?9?$AAG?$AAT?$AA?$AA@ 0000000180042fb8     libucrtd:lcidtoname_downlevel.obj
 0002:00007fc8       ??_C@_1M@EOGNKEK@?$AAf?$AAr?$AA?9?$AAC?$AAH?$AA?$AA@ 0000000180042fc8     libucrtd:lcidtoname_downlevel.obj
 0002:00007fd8       ??_C@_1M@FLIDJFHL@?$AAh?$AAr?$AA?9?$AAB?$AAA?$AA?$AA@ 0000000180042fd8     libucrtd:lcidtoname_downlevel.obj
 0002:00007fe8       ??_C@_1O@FMCELNAJ@?$AAs?$AAm?$AAj?$AA?9?$AAN?$AAO?$AA?$AA@ 0000000180042fe8     libucrtd:lcidtoname_downlevel.obj
 0002:00007ff8       ??_C@_1M@JHGLJMGJ@?$AAa?$AAr?$AA?9?$AAD?$AAZ?$AA?$AA@ 0000000180042ff8     libucrtd:lcidtoname_downlevel.obj
 0002:00008008       ??_C@_1M@JKKFDCNP@?$AAz?$AAh?$AA?9?$AAM?$AAO?$AA?$AA@ 0000000180043008     libucrtd:lcidtoname_downlevel.obj
 0002:00008018       ??_C@_1M@GEEFALPE@?$AAd?$AAe?$AA?9?$AAL?$AAI?$AA?$AA@ 0000000180043018     libucrtd:lcidtoname_downlevel.obj
 0002:00008028       ??_C@_1M@IGEOFBG@?$AAe?$AAn?$AA?9?$AAN?$AAZ?$AA?$AA@ 0000000180043028     libucrtd:lcidtoname_downlevel.obj
 0002:00008038       ??_C@_1M@KDBONEHP@?$AAe?$AAs?$AA?9?$AAC?$AAR?$AA?$AA@ 0000000180043038     libucrtd:lcidtoname_downlevel.obj
 0002:00008048       ??_C@_1M@FHMDOHNN@?$AAf?$AAr?$AA?9?$AAL?$AAU?$AA?$AA@ 0000000180043048     libucrtd:lcidtoname_downlevel.obj
 0002:00008058       ??_C@_1BG@NFKKMAFG@?$AAb?$AAs?$AA?9?$AAB?$AAA?$AA?9?$AAL?$AAa?$AAt?$AAn?$AA?$AA@ 0000000180043058     libucrtd:lcidtoname_downlevel.obj
 0002:00008070       ??_C@_1O@IMNBEMCI@?$AAs?$AAm?$AAj?$AA?9?$AAS?$AAE?$AA?$AA@ 0000000180043070     libucrtd:lcidtoname_downlevel.obj
 0002:00008080       ??_C@_1M@DHHMBNDP@?$AAa?$AAr?$AA?9?$AAM?$AAA?$AA?$AA@ 0000000180043080     libucrtd:lcidtoname_downlevel.obj
 0002:00008090       ??_C@_1M@BNBLJCGH@?$AAe?$AAn?$AA?9?$AAI?$AAE?$AA?$AA@ 0000000180043090     libucrtd:lcidtoname_downlevel.obj
 0002:000080a0       ??_C@_1M@GEPAFMDL@?$AAe?$AAs?$AA?9?$AAP?$AAA?$AA?$AA@ 00000001800430a0     libucrtd:lcidtoname_downlevel.obj
 0002:000080b0       ??_C@_1M@OJONDMDL@?$AAf?$AAr?$AA?9?$AAM?$AAC?$AA?$AA@ 00000001800430b0     libucrtd:lcidtoname_downlevel.obj
 0002:000080c0       ??_C@_1BG@OBCNFJB@?$AAs?$AAr?$AA?9?$AAB?$AAA?$AA?9?$AAL?$AAa?$AAt?$AAn?$AA?$AA@ 00000001800430c0     libucrtd:lcidtoname_downlevel.obj
 0002:000080d8       ??_C@_1O@KEMEEGPO@?$AAs?$AAm?$AAa?$AA?9?$AAN?$AAO?$AA?$AA@ 00000001800430d8     libucrtd:lcidtoname_downlevel.obj
 0002:000080e8       ??_C@_1M@ELMGFODK@?$AAa?$AAr?$AA?9?$AAT?$AAN?$AA?$AA@ 00000001800430e8     libucrtd:lcidtoname_downlevel.obj
 0002:000080f8       ??_C@_1M@BHDLHFAF@?$AAe?$AAn?$AA?9?$AAZ?$AAA?$AA?$AA@ 00000001800430f8     libucrtd:lcidtoname_downlevel.obj
 0002:00008108       ??_C@_1M@BMGIGLIF@?$AAe?$AAs?$AA?9?$AAD?$AAO?$AA?$AA@ 0000000180043108     libucrtd:lcidtoname_downlevel.obj
 0002:00008118       ??_C@_1BG@CMBHIPBE@?$AAs?$AAr?$AA?9?$AAB?$AAA?$AA?9?$AAC?$AAy?$AAr?$AAl?$AA?$AA@ 0000000180043118     libucrtd:lcidtoname_downlevel.obj
 0002:00008130       ??_C@_1O@HEDBLHNP@?$AAs?$AAm?$AAa?$AA?9?$AAS?$AAE?$AA?$AA@ 0000000180043130     libucrtd:lcidtoname_downlevel.obj
 0002:00008140       ??_C@_1M@DAGCADIM@?$AAa?$AAr?$AA?9?$AAO?$AAM?$AA?$AA@ 0000000180043140     libucrtd:lcidtoname_downlevel.obj
 0002:00008150       ??_C@_1M@FODLMICG@?$AAe?$AAn?$AA?9?$AAJ?$AAM?$AA?$AA@ 0000000180043150     libucrtd:lcidtoname_downlevel.obj
 0002:00008160       ??_C@_1M@DNMLCIHB@?$AAe?$AAs?$AA?9?$AAV?$AAE?$AA?$AA@ 0000000180043160     libucrtd:lcidtoname_downlevel.obj
 0002:00008170       ??_C@_1O@EOKHMKJK@?$AAs?$AAm?$AAs?$AA?9?$AAF?$AAI?$AA?$AA@ 0000000180043170     libucrtd:lcidtoname_downlevel.obj
 0002:00008180       ??_C@_1M@CAFJMKOF@?$AAa?$AAr?$AA?9?$AAY?$AAE?$AA?$AA@ 0000000180043180     libucrtd:lcidtoname_downlevel.obj
 0002:00008190       ??_C@_1M@CBFHIJLI@?$AAe?$AAn?$AA?9?$AAC?$AAB?$AA?$AA@ 0000000180043190     libucrtd:lcidtoname_downlevel.obj
 0002:000081a0       ??_C@_1M@BGNFLDN@?$AAe?$AAs?$AA?9?$AAC?$AAO?$AA?$AA@ 00000001800431a0     libucrtd:lcidtoname_downlevel.obj
 0002:000081b0       ??_C@_1O@JMPHMAMC@?$AAs?$AAm?$AAn?$AA?9?$AAF?$AAI?$AA?$AA@ 00000001800431b0     libucrtd:lcidtoname_downlevel.obj
 0002:000081c0       ??_C@_1M@JLANABKE@?$AAa?$AAr?$AA?9?$AAS?$AAY?$AA?$AA@ 00000001800431c0     libucrtd:lcidtoname_downlevel.obj
 0002:000081d0       ??_C@_1M@HPKGCFGN@?$AAe?$AAn?$AA?9?$AAB?$AAZ?$AA?$AA@ 00000001800431d0     libucrtd:lcidtoname_downlevel.obj
 0002:000081e0       ??_C@_1M@OLJCMLGM@?$AAe?$AAs?$AA?9?$AAP?$AAE?$AA?$AA@ 00000001800431e0     libucrtd:lcidtoname_downlevel.obj
 0002:000081f0       ??_C@_1M@MKKGFKLE@?$AAa?$AAr?$AA?9?$AAJ?$AAO?$AA?$AA@ 00000001800431f0     libucrtd:lcidtoname_downlevel.obj
 0002:00008200       ??_C@_1M@EKPGLDNI@?$AAe?$AAn?$AA?9?$AAT?$AAT?$AA?$AA@ 0000000180043200     libucrtd:lcidtoname_downlevel.obj
 0002:00008210       ??_C@_1M@OONGHFHE@?$AAe?$AAs?$AA?9?$AAA?$AAR?$AA?$AA@ 0000000180043210     libucrtd:lcidtoname_downlevel.obj
 0002:00008220       ??_C@_1M@OOJFGBHE@?$AAa?$AAr?$AA?9?$AAL?$AAB?$AA?$AA@ 0000000180043220     libucrtd:lcidtoname_downlevel.obj
 0002:00008230       ??_C@_1M@GCEJHNEG@?$AAe?$AAn?$AA?9?$AAZ?$AAW?$AA?$AA@ 0000000180043230     libucrtd:lcidtoname_downlevel.obj
 0002:00008240       ??_C@_1M@JNOCAHJI@?$AAe?$AAs?$AA?9?$AAE?$AAC?$AA?$AA@ 0000000180043240     libucrtd:lcidtoname_downlevel.obj
 0002:00008250       ??_C@_1M@JEFHPGGB@?$AAa?$AAr?$AA?9?$AAK?$AAW?$AA?$AA@ 0000000180043250     libucrtd:lcidtoname_downlevel.obj
 0002:00008260       ??_C@_1M@MLKIBJOJ@?$AAe?$AAn?$AA?9?$AAP?$AAH?$AA?$AA@ 0000000180043260     libucrtd:lcidtoname_downlevel.obj
 0002:00008270       ??_C@_1M@BDNIPEND@?$AAe?$AAs?$AA?9?$AAC?$AAL?$AA?$AA@ 0000000180043270     libucrtd:lcidtoname_downlevel.obj
 0002:00008280       ??_C@_1M@MPNMEKBD@?$AAa?$AAr?$AA?9?$AAA?$AAE?$AA?$AA@ 0000000180043280     libucrtd:lcidtoname_downlevel.obj
 0002:00008290       ??_C@_1M@KBJALCPI@?$AAe?$AAs?$AA?9?$AAU?$AAY?$AA?$AA@ 0000000180043290     libucrtd:lcidtoname_downlevel.obj
 0002:000082a0       ??_C@_1M@LLCCOAGA@?$AAa?$AAr?$AA?9?$AAB?$AAH?$AA?$AA@ 00000001800432a0     libucrtd:lcidtoname_downlevel.obj
 0002:000082b0       ??_C@_1M@PBFNCDEL@?$AAe?$AAs?$AA?9?$AAP?$AAY?$AA?$AA@ 00000001800432b0     libucrtd:lcidtoname_downlevel.obj
 0002:000082c0       ??_C@_1M@EDGINPNP@?$AAa?$AAr?$AA?9?$AAQ?$AAA?$AA?$AA@ 00000001800432c0     libucrtd:lcidtoname_downlevel.obj
 0002:000082d0       ??_C@_1M@MKDBIIJI@?$AAe?$AAs?$AA?9?$AAB?$AAO?$AA?$AA@ 00000001800432d0     libucrtd:lcidtoname_downlevel.obj
 0002:000082e0       ??_C@_1M@CPKKEBLD@?$AAe?$AAs?$AA?9?$AAS?$AAV?$AA?$AA@ 00000001800432e0     libucrtd:lcidtoname_downlevel.obj
 0002:000082f0       ??_C@_1M@NDBGMMJL@?$AAe?$AAs?$AA?9?$AAH?$AAN?$AA?$AA@ 00000001800432f0     libucrtd:lcidtoname_downlevel.obj
 0002:00008300       ??_C@_1M@JIJIBHDP@?$AAe?$AAs?$AA?9?$AAN?$AAI?$AA?$AA@ 0000000180043300     libucrtd:lcidtoname_downlevel.obj
 0002:00008310       ??_C@_1M@CGFMKEEK@?$AAe?$AAs?$AA?9?$AAP?$AAR?$AA?$AA@ 0000000180043310     libucrtd:lcidtoname_downlevel.obj
 0002:00008320       ??_C@_1O@ICJHKIIK@?$AAz?$AAh?$AA?9?$AAC?$AAH?$AAT?$AA?$AA@ 0000000180043320     libucrtd:lcidtoname_downlevel.obj
 0002:00008330       ??_C@_15CLNEJCE@?$AAs?$AAr?$AA?$AA@ 0000000180043330     libucrtd:lcidtoname_downlevel.obj
 0002:00009180       ??_C@_1M@KAHEKEIG@?$AAa?$AAf?$AA?9?$AAz?$AAa?$AA?$AA@ 0000000180044180     libucrtd:lcidtoname_downlevel.obj
 0002:00009190       ??_C@_1M@GIECOABL@?$AAa?$AAr?$AA?9?$AAa?$AAe?$AA?$AA@ 0000000180044190     libucrtd:lcidtoname_downlevel.obj
 0002:000091a0       ??_C@_1M@BMLMEKGI@?$AAa?$AAr?$AA?9?$AAb?$AAh?$AA?$AA@ 00000001800441a0     libucrtd:lcidtoname_downlevel.obj
 0002:000091b0       ??_C@_1M@DAPFDGGB@?$AAa?$AAr?$AA?9?$AAd?$AAz?$AA?$AA@ 00000001800441b0     libucrtd:lcidtoname_downlevel.obj
 0002:000091c0       ??_C@_1M@FJNKGKIG@?$AAa?$AAr?$AA?9?$AAe?$AAg?$AA?$AA@ 00000001800441c0     libucrtd:lcidtoname_downlevel.obj
 0002:000091d0       ??_C@_1M@FLGKKCLO@?$AAa?$AAr?$AA?9?$AAi?$AAq?$AA?$AA@ 00000001800441d0     libucrtd:lcidtoname_downlevel.obj
 0002:000091e0       ??_C@_1M@GNDIPALM@?$AAa?$AAr?$AA?9?$AAj?$AAo?$AA?$AA@ 00000001800441e0     libucrtd:lcidtoname_downlevel.obj
 0002:000091f0       ??_C@_1M@DDMJFMGJ@?$AAa?$AAr?$AA?9?$AAk?$AAw?$AA?$AA@ 00000001800441f0     libucrtd:lcidtoname_downlevel.obj
 0002:00009200       ??_C@_1M@EJALMLHM@?$AAa?$AAr?$AA?9?$AAl?$AAb?$AA?$AA@ 0000000180044200     libucrtd:lcidtoname_downlevel.obj
 0002:00009210       ??_C@_1M@MOBDBLOC@?$AAa?$AAr?$AA?9?$AAl?$AAy?$AA?$AA@ 0000000180044210     libucrtd:lcidtoname_downlevel.obj
 0002:00009220       ??_C@_1M@JAOCLHDH@?$AAa?$AAr?$AA?9?$AAm?$AAa?$AA?$AA@ 0000000180044220     libucrtd:lcidtoname_downlevel.obj
 0002:00009230       ??_C@_1M@JHPMKJIE@?$AAa?$AAr?$AA?9?$AAo?$AAm?$AA?$AA@ 0000000180044230     libucrtd:lcidtoname_downlevel.obj
 0002:00009240       ??_C@_1M@OEPGHFNH@?$AAa?$AAr?$AA?9?$AAq?$AAa?$AA?$AA@ 0000000180044240     libucrtd:lcidtoname_downlevel.obj
 0002:00009250       ??_C@_1M@KJDONENM@?$AAa?$AAr?$AA?9?$AAs?$AAa?$AA?$AA@ 0000000180044250     libucrtd:lcidtoname_downlevel.obj
 0002:00009260       ??_C@_1M@DMJDKLKM@?$AAa?$AAr?$AA?9?$AAs?$AAy?$AA?$AA@ 0000000180044260     libucrtd:lcidtoname_downlevel.obj
 0002:00009270       ??_C@_1M@OMFIPEDC@?$AAa?$AAr?$AA?9?$AAt?$AAn?$AA?$AA@ 0000000180044270     libucrtd:lcidtoname_downlevel.obj
 0002:00009280       ??_C@_1M@IHMHGAON@?$AAa?$AAr?$AA?9?$AAy?$AAe?$AA?$AA@ 0000000180044280     libucrtd:lcidtoname_downlevel.obj
 0002:00009290       ??_C@_1BG@KDCPGJGB@?$AAa?$AAz?$AA?9?$AAa?$AAz?$AA?9?$AAc?$AAy?$AAr?$AAl?$AA?$AA@ 0000000180044290     libucrtd:lcidtoname_downlevel.obj
 0002:000092a8       ??_C@_1BG@IBCKDDOE@?$AAa?$AAz?$AA?9?$AAa?$AAz?$AA?9?$AAl?$AAa?$AAt?$AAn?$AA?$AA@ 00000001800442a8     libucrtd:lcidtoname_downlevel.obj
 0002:000092c0       ??_C@_1M@EGPFDCPD@?$AAb?$AAe?$AA?9?$AAb?$AAy?$AA?$AA@ 00000001800442c0     libucrtd:lcidtoname_downlevel.obj
 0002:000092d0       ??_C@_1M@PCMGMCGC@?$AAb?$AAg?$AA?9?$AAb?$AAg?$AA?$AA@ 00000001800442d0     libucrtd:lcidtoname_downlevel.obj
 0002:000092e0       ??_C@_1M@BJBMFGOB@?$AAb?$AAn?$AA?9?$AAi?$AAn?$AA?$AA@ 00000001800442e0     libucrtd:lcidtoname_downlevel.obj
 0002:000092f0       ??_C@_1BG@EAKMMACD@?$AAb?$AAs?$AA?9?$AAb?$AAa?$AA?9?$AAl?$AAa?$AAt?$AAn?$AA?$AA@ 00000001800442f0     libucrtd:lcidtoname_downlevel.obj
 0002:00009308       ??_C@_1M@KGADAODK@?$AAc?$AAa?$AA?9?$AAe?$AAs?$AA?$AA@ 0000000180044308     libucrtd:lcidtoname_downlevel.obj
 0002:00009318       ??_C@_1M@COAJPDHI@?$AAc?$AAs?$AA?9?$AAc?$AAz?$AA?$AA@ 0000000180044318     libucrtd:lcidtoname_downlevel.obj
 0002:00009328       ??_C@_1M@DHBHFONH@?$AAc?$AAy?$AA?9?$AAg?$AAb?$AA?$AA@ 0000000180044328     libucrtd:lcidtoname_downlevel.obj
 0002:00009338       ??_C@_1M@IMGKELGA@?$AAd?$AAa?$AA?9?$AAd?$AAk?$AA?$AA@ 0000000180044338     libucrtd:lcidtoname_downlevel.obj
 0002:00009348       ??_C@_1M@NNDGDNGA@?$AAd?$AAe?$AA?9?$AAa?$AAt?$AA?$AA@ 0000000180044348     libucrtd:lcidtoname_downlevel.obj
 0002:00009358       ??_C@_1M@IKDBHEEM@?$AAd?$AAe?$AA?9?$AAc?$AAh?$AA?$AA@ 0000000180044358     libucrtd:lcidtoname_downlevel.obj
 0002:00009368       ??_C@_1M@GFFOJMCJ@?$AAd?$AAe?$AA?9?$AAd?$AAe?$AA?$AA@ 0000000180044368     libucrtd:lcidtoname_downlevel.obj
 0002:00009378       ??_C@_1M@MDNLKBPM@?$AAd?$AAe?$AA?9?$AAl?$AAi?$AA?$AA@ 0000000180044378     libucrtd:lcidtoname_downlevel.obj
 0002:00009388       ??_C@_1M@NJBEEJNL@?$AAd?$AAe?$AA?9?$AAl?$AAu?$AA?$AA@ 0000000180044388     libucrtd:lcidtoname_downlevel.obj
 0002:00009398       ??_C@_1O@GNNELBAP@?$AAd?$AAi?$AAv?$AA?9?$AAm?$AAv?$AA?$AA@ 0000000180044398     libucrtd:lcidtoname_downlevel.obj
 0002:000093a8       ??_C@_1M@EJLEOGAE@?$AAe?$AAl?$AA?9?$AAg?$AAr?$AA?$AA@ 00000001800443a8     libucrtd:lcidtoname_downlevel.obj
 0002:000093b8       ??_C@_1M@GMPONJN@?$AAe?$AAn?$AA?9?$AAa?$AAu?$AA?$AA@ 00000001800443b8     libucrtd:lcidtoname_downlevel.obj
 0002:000093c8       ??_C@_1M@NIDIIPGF@?$AAe?$AAn?$AA?9?$AAb?$AAz?$AA?$AA@ 00000001800443c8     libucrtd:lcidtoname_downlevel.obj
 0002:000093d8       ??_C@_1M@JEHMIMFO@?$AAe?$AAn?$AA?9?$AAc?$AAa?$AA?$AA@ 00000001800443d8     libucrtd:lcidtoname_downlevel.obj
 0002:000093e8       ??_C@_1M@IGMJCDLA@?$AAe?$AAn?$AA?9?$AAc?$AAb?$AA?$AA@ 00000001800443e8     libucrtd:lcidtoname_downlevel.obj
 0002:000093f8       ??_C@_1M@BNFIGBKG@?$AAe?$AAn?$AA?9?$AAg?$AAb?$AA?$AA@ 00000001800443f8     libucrtd:lcidtoname_downlevel.obj
 0002:00009408       ??_C@_1M@LKIFDIGP@?$AAe?$AAn?$AA?9?$AAi?$AAe?$AA?$AA@ 0000000180044408     libucrtd:lcidtoname_downlevel.obj
 0002:00009418       ??_C@_1M@PJKFGCCO@?$AAe?$AAn?$AA?9?$AAj?$AAm?$AA?$AA@ 0000000180044418     libucrtd:lcidtoname_downlevel.obj
 0002:00009428       ??_C@_1M@KPPKEPBO@?$AAe?$AAn?$AA?9?$AAn?$AAz?$AA?$AA@ 0000000180044428     libucrtd:lcidtoname_downlevel.obj
 0002:00009438       ??_C@_1M@GMDGLDOB@?$AAe?$AAn?$AA?9?$AAp?$AAh?$AA?$AA@ 0000000180044438     libucrtd:lcidtoname_downlevel.obj
 0002:00009448       ??_C@_1M@ONGIBJNA@?$AAe?$AAn?$AA?9?$AAt?$AAt?$AA?$AA@ 0000000180044448     libucrtd:lcidtoname_downlevel.obj
 0002:00009458       ??_C@_1M@LLODPCMM@?$AAe?$AAn?$AA?9?$AAu?$AAs?$AA?$AA@ 0000000180044458     libucrtd:lcidtoname_downlevel.obj
 0002:00009468       ??_C@_1M@LAKFNPAN@?$AAe?$AAn?$AA?9?$AAz?$AAa?$AA?$AA@ 0000000180044468     libucrtd:lcidtoname_downlevel.obj
 0002:00009478       ??_C@_1M@MFNHNHEO@?$AAe?$AAn?$AA?9?$AAz?$AAw?$AA?$AA@ 0000000180044478     libucrtd:lcidtoname_downlevel.obj
 0002:00009488       ??_C@_1M@EJEINPHM@?$AAe?$AAs?$AA?9?$AAa?$AAr?$AA?$AA@ 0000000180044488     libucrtd:lcidtoname_downlevel.obj
 0002:00009498       ??_C@_1M@GNKPCCJA@?$AAe?$AAs?$AA?9?$AAb?$AAo?$AA?$AA@ 0000000180044498     libucrtd:lcidtoname_downlevel.obj
 0002:000094a8       ??_C@_1M@LEEGFONL@?$AAe?$AAs?$AA?9?$AAc?$AAl?$AA?$AA@ 00000001800444a8     libucrtd:lcidtoname_downlevel.obj
 0002:000094b8       ??_C@_1M@KGPDPBDF@?$AAe?$AAs?$AA?9?$AAc?$AAo?$AA?$AA@ 00000001800444b8     libucrtd:lcidtoname_downlevel.obj
 0002:000094c8       ??_C@_1M@EIAHOHH@?$AAe?$AAs?$AA?9?$AAc?$AAr?$AA?$AA@ 00000001800444c8     libucrtd:lcidtoname_downlevel.obj
 0002:000094d8       ??_C@_1M@LLPGMBIN@?$AAe?$AAs?$AA?9?$AAd?$AAo?$AA?$AA@ 00000001800444d8     libucrtd:lcidtoname_downlevel.obj
 0002:000094e8       ??_C@_1M@DKHMKNJA@?$AAe?$AAs?$AA?9?$AAe?$AAc?$AA?$AA@ 00000001800444e8     libucrtd:lcidtoname_downlevel.obj
 0002:000094f8       ??_C@_1M@GKGFPKAP@?$AAe?$AAs?$AA?9?$AAe?$AAs?$AA?$AA@ 00000001800444f8     libucrtd:lcidtoname_downlevel.obj
 0002:00009508       ??_C@_1M@LKHKGDLN@?$AAe?$AAs?$AA?9?$AAg?$AAt?$AA?$AA@ 0000000180044508     libucrtd:lcidtoname_downlevel.obj
 0002:00009518       ??_C@_1M@HEIIGGJD@?$AAe?$AAs?$AA?9?$AAh?$AAn?$AA?$AA@ 0000000180044518     libucrtd:lcidtoname_downlevel.obj
 0002:00009528       ??_C@_1M@FBDHPPGD@?$AAe?$AAs?$AA?9?$AAm?$AAx?$AA?$AA@ 0000000180044528     libucrtd:lcidtoname_downlevel.obj
 0002:00009538       ??_C@_1M@DPAGLNDH@?$AAe?$AAs?$AA?9?$AAn?$AAi?$AA?$AA@ 0000000180044538     libucrtd:lcidtoname_downlevel.obj
 0002:00009548       ??_C@_1M@MDGOPGDD@?$AAe?$AAs?$AA?9?$AAp?$AAa?$AA?$AA@ 0000000180044548     libucrtd:lcidtoname_downlevel.obj
 0002:00009558       ??_C@_1M@EMAMGBGE@?$AAe?$AAs?$AA?9?$AAp?$AAe?$AA?$AA@ 0000000180044558     libucrtd:lcidtoname_downlevel.obj
 0002:00009568       ??_C@_1M@IBMCAOEC@?$AAe?$AAs?$AA?9?$AAp?$AAr?$AA?$AA@ 0000000180044568     libucrtd:lcidtoname_downlevel.obj
 0002:00009578       ??_C@_1M@FGMDIJED@?$AAe?$AAs?$AA?9?$AAp?$AAy?$AA?$AA@ 0000000180044578     libucrtd:lcidtoname_downlevel.obj
 0002:00009588       ??_C@_1M@IIDEOLLL@?$AAe?$AAs?$AA?9?$AAs?$AAv?$AA?$AA@ 0000000180044588     libucrtd:lcidtoname_downlevel.obj
 0002:00009598       ??_C@_1M@GAOBIPA@?$AAe?$AAs?$AA?9?$AAu?$AAy?$AA?$AA@ 0000000180044598     libucrtd:lcidtoname_downlevel.obj
 0002:000095a8       ??_C@_1M@JKFFICHJ@?$AAe?$AAs?$AA?9?$AAv?$AAe?$AA?$AA@ 00000001800445a8     libucrtd:lcidtoname_downlevel.obj
 0002:000095b8       ??_C@_1M@PNMLOJDF@?$AAe?$AAt?$AA?9?$AAe?$AAe?$AA?$AA@ 00000001800445b8     libucrtd:lcidtoname_downlevel.obj
 0002:000095c8       ??_C@_1M@GHHLIKEI@?$AAe?$AAu?$AA?9?$AAe?$AAs?$AA?$AA@ 00000001800445c8     libucrtd:lcidtoname_downlevel.obj
 0002:000095d8       ??_C@_1M@PBNONODE@?$AAf?$AAa?$AA?9?$AAi?$AAr?$AA?$AA@ 00000001800445d8     libucrtd:lcidtoname_downlevel.obj
 0002:000095e8       ??_C@_1M@JEEHPMIL@?$AAf?$AAi?$AA?9?$AAf?$AAi?$AA?$AA@ 00000001800445e8     libucrtd:lcidtoname_downlevel.obj
 0002:000095f8       ??_C@_1M@LMDCNDBA@?$AAf?$AAo?$AA?9?$AAf?$AAo?$AA?$AA@ 00000001800445f8     libucrtd:lcidtoname_downlevel.obj
 0002:00009608       ??_C@_1M@JKEOHLDK@?$AAf?$AAr?$AA?9?$AAb?$AAe?$AA?$AA@ 0000000180044608     libucrtd:lcidtoname_downlevel.obj
 0002:00009618       ??_C@_1M@NOHADPMI@?$AAf?$AAr?$AA?9?$AAc?$AAa?$AA?$AA@ 0000000180044618     libucrtd:lcidtoname_downlevel.obj
 0002:00009628       ??_C@_1M@KDHIHAEC@?$AAf?$AAr?$AA?9?$AAc?$AAh?$AA?$AA@ 0000000180044628     libucrtd:lcidtoname_downlevel.obj
 0002:00009638       ??_C@_1M@MMBBFGAK@?$AAf?$AAr?$AA?9?$AAf?$AAr?$AA?$AA@ 0000000180044638     libucrtd:lcidtoname_downlevel.obj
 0002:00009648       ??_C@_1M@PAFNENNF@?$AAf?$AAr?$AA?9?$AAl?$AAu?$AA?$AA@ 0000000180044648     libucrtd:lcidtoname_downlevel.obj
 0002:00009658       ??_C@_1M@EOHDJGDD@?$AAf?$AAr?$AA?9?$AAm?$AAc?$AA?$AA@ 0000000180044658     libucrtd:lcidtoname_downlevel.obj
 0002:00009668       ??_C@_1M@FAPLLOPF@?$AAg?$AAl?$AA?9?$AAe?$AAs?$AA?$AA@ 0000000180044668     libucrtd:lcidtoname_downlevel.obj
 0002:00009678       ??_C@_1M@FOPBFLOO@?$AAg?$AAu?$AA?9?$AAi?$AAn?$AA?$AA@ 0000000180044678     libucrtd:lcidtoname_downlevel.obj
 0002:00009688       ??_C@_1M@KBMCINPM@?$AAh?$AAe?$AA?9?$AAi?$AAl?$AA?$AA@ 0000000180044688     libucrtd:lcidtoname_downlevel.obj
 0002:00009698       ??_C@_1M@BBPHKFPJ@?$AAh?$AAi?$AA?9?$AAi?$AAn?$AA?$AA@ 0000000180044698     libucrtd:lcidtoname_downlevel.obj
 0002:000096a8       ??_C@_1M@PMBNDPHD@?$AAh?$AAr?$AA?9?$AAb?$AAa?$AA?$AA@ 00000001800446a8     libucrtd:lcidtoname_downlevel.obj
 0002:000096b8       ??_C@_1M@BPCKOEGE@?$AAh?$AAr?$AA?9?$AAh?$AAr?$AA?$AA@ 00000001800446b8     libucrtd:lcidtoname_downlevel.obj
 0002:000096c8       ??_C@_1M@GACBMHKE@?$AAh?$AAu?$AA?9?$AAh?$AAu?$AA?$AA@ 00000001800446c8     libucrtd:lcidtoname_downlevel.obj
 0002:000096d8       ??_C@_1M@MILPAJJC@?$AAh?$AAy?$AA?9?$AAa?$AAm?$AA?$AA@ 00000001800446d8     libucrtd:lcidtoname_downlevel.obj
 0002:000096e8       ??_C@_1M@BABBICEC@?$AAi?$AAd?$AA?9?$AAi?$AAd?$AA?$AA@ 00000001800446e8     libucrtd:lcidtoname_downlevel.obj
 0002:000096f8       ??_C@_1M@BIKNHHPF@?$AAi?$AAs?$AA?9?$AAi?$AAs?$AA?$AA@ 00000001800446f8     libucrtd:lcidtoname_downlevel.obj
 0002:00009708       ??_C@_1M@NMPCJPHE@?$AAi?$AAt?$AA?9?$AAc?$AAh?$AA?$AA@ 0000000180044708     libucrtd:lcidtoname_downlevel.obj
 0002:00009718       ??_C@_1M@GHKGFEDF@?$AAi?$AAt?$AA?9?$AAi?$AAt?$AA?$AA@ 0000000180044718     libucrtd:lcidtoname_downlevel.obj
 0002:00009728       ??_C@_1M@NIEJCJJA@?$AAj?$AAa?$AA?9?$AAj?$AAp?$AA?$AA@ 0000000180044728     libucrtd:lcidtoname_downlevel.obj
 0002:00009738       ??_C@_1M@JILFNBIM@?$AAk?$AAa?$AA?9?$AAg?$AAe?$AA?$AA@ 0000000180044738     libucrtd:lcidtoname_downlevel.obj
 0002:00009748       ??_C@_1M@PACPMGPH@?$AAk?$AAk?$AA?9?$AAk?$AAz?$AA?$AA@ 0000000180044748     libucrtd:lcidtoname_downlevel.obj
 0002:00009758       ??_C@_1M@IELFGMHA@?$AAk?$AAn?$AA?9?$AAi?$AAn?$AA?$AA@ 0000000180044758     libucrtd:lcidtoname_downlevel.obj
 0002:00009768       ??_C@_1O@IBBJHCH@?$AAk?$AAo?$AAk?$AA?9?$AAi?$AAn?$AA?$AA@ 0000000180044768     libucrtd:lcidtoname_downlevel.obj
 0002:00009778       ??_C@_1M@DMHAEOGC@?$AAk?$AAo?$AA?9?$AAk?$AAr?$AA?$AA@ 0000000180044778     libucrtd:lcidtoname_downlevel.obj
 0002:00009788       ??_C@_1M@HBAHBIGA@?$AAk?$AAy?$AA?9?$AAk?$AAg?$AA?$AA@ 0000000180044788     libucrtd:lcidtoname_downlevel.obj
 0002:00009798       ??_C@_1M@KPMILCJG@?$AAl?$AAt?$AA?9?$AAl?$AAt?$AA?$AA@ 0000000180044798     libucrtd:lcidtoname_downlevel.obj
 0002:000097a8       ??_C@_1M@BDEKKCA@?$AAl?$AAv?$AA?9?$AAl?$AAv?$AA?$AA@ 00000001800447a8     libucrtd:lcidtoname_downlevel.obj
 0002:000097b8       ??_C@_1M@ELCKCCJJ@?$AAm?$AAi?$AA?9?$AAn?$AAz?$AA?$AA@ 00000001800447b8     libucrtd:lcidtoname_downlevel.obj
 0002:000097c8       ??_C@_1M@CBOOLAPA@?$AAm?$AAk?$AA?9?$AAm?$AAk?$AA?$AA@ 00000001800447c8     libucrtd:lcidtoname_downlevel.obj
 0002:000097d8       ??_C@_1M@GPHNBJKN@?$AAm?$AAl?$AA?9?$AAi?$AAn?$AA?$AA@ 00000001800447d8     libucrtd:lcidtoname_downlevel.obj
 0002:000097e8       ??_C@_1M@PABJILIG@?$AAm?$AAn?$AA?9?$AAm?$AAn?$AA?$AA@ 00000001800447e8     libucrtd:lcidtoname_downlevel.obj
 0002:000097f8       ??_C@_1M@FGBKKIPG@?$AAm?$AAr?$AA?9?$AAi?$AAn?$AA?$AA@ 00000001800447f8     libucrtd:lcidtoname_downlevel.obj
 0002:00009808       ??_C@_1M@NDBPDDAL@?$AAm?$AAs?$AA?9?$AAb?$AAn?$AA?$AA@ 0000000180044808     libucrtd:lcidtoname_downlevel.obj
 0002:00009818       ??_C@_1M@OPIHOOPI@?$AAm?$AAs?$AA?9?$AAm?$AAy?$AA?$AA@ 0000000180044818     libucrtd:lcidtoname_downlevel.obj
 0002:00009828       ??_C@_1M@PPDBCNFM@?$AAm?$AAt?$AA?9?$AAm?$AAt?$AA?$AA@ 0000000180044828     libucrtd:lcidtoname_downlevel.obj
 0002:00009838       ??_C@_1M@KDJDKMDD@?$AAn?$AAb?$AA?9?$AAn?$AAo?$AA?$AA@ 0000000180044838     libucrtd:lcidtoname_downlevel.obj
 0002:00009848       ??_C@_1M@KFCFLMJP@?$AAn?$AAl?$AA?9?$AAb?$AAe?$AA?$AA@ 0000000180044848     libucrtd:lcidtoname_downlevel.obj
 0002:00009858       ??_C@_1M@KPOPDDGO@?$AAn?$AAl?$AA?9?$AAn?$AAl?$AA?$AA@ 0000000180044858     libucrtd:lcidtoname_downlevel.obj
 0002:00009868       ??_C@_1M@LJKPEMLN@?$AAn?$AAn?$AA?9?$AAn?$AAo?$AA?$AA@ 0000000180044868     libucrtd:lcidtoname_downlevel.obj
 0002:00009878       ??_C@_1M@BDGHHBFL@?$AAn?$AAs?$AA?9?$AAz?$AAa?$AA?$AA@ 0000000180044878     libucrtd:lcidtoname_downlevel.obj
 0002:00009888       ??_C@_1M@IDEHOAP@?$AAp?$AAa?$AA?9?$AAi?$AAn?$AA?$AA@ 0000000180044888     libucrtd:lcidtoname_downlevel.obj
 0002:00009898       ??_C@_1M@HDBKGOGH@?$AAp?$AAl?$AA?9?$AAp?$AAl?$AA?$AA@ 0000000180044898     libucrtd:lcidtoname_downlevel.obj
 0002:000098a8       ??_C@_1M@LJLLCMEH@?$AAp?$AAt?$AA?9?$AAb?$AAr?$AA?$AA@ 00000001800448a8     libucrtd:lcidtoname_downlevel.obj
 0002:000098b8       ??_C@_1M@NCMONAAL@?$AAp?$AAt?$AA?9?$AAp?$AAt?$AA?$AA@ 00000001800448b8     libucrtd:lcidtoname_downlevel.obj
 0002:000098c8       ??_C@_1O@EAKMAJDN@?$AAq?$AAu?$AAz?$AA?9?$AAb?$AAo?$AA?$AA@ 00000001800448c8     libucrtd:lcidtoname_downlevel.obj
 0002:000098d8       ??_C@_1O@BHHPIGDN@?$AAq?$AAu?$AAz?$AA?9?$AAe?$AAc?$AA?$AA@ 00000001800448d8     libucrtd:lcidtoname_downlevel.obj
 0002:000098e8       ??_C@_1O@GBAPEKMJ@?$AAq?$AAu?$AAz?$AA?9?$AAp?$AAe?$AA?$AA@ 00000001800448e8     libucrtd:lcidtoname_downlevel.obj
 0002:000098f8       ??_C@_1M@CLGLEFBO@?$AAr?$AAo?$AA?9?$AAr?$AAo?$AA?$AA@ 00000001800448f8     libucrtd:lcidtoname_downlevel.obj
 0002:00009908       ??_C@_1M@CEEDODME@?$AAr?$AAu?$AA?9?$AAr?$AAu?$AA?$AA@ 0000000180044908     libucrtd:lcidtoname_downlevel.obj
 0002:00009918       ??_C@_1M@HPKKKMPP@?$AAs?$AAa?$AA?9?$AAi?$AAn?$AA?$AA@ 0000000180044918     libucrtd:lcidtoname_downlevel.obj
 0002:00009928       ??_C@_1M@BKMAIGOJ@?$AAs?$AAe?$AA?9?$AAf?$AAi?$AA?$AA@ 0000000180044928     libucrtd:lcidtoname_downlevel.obj
 0002:00009938       ??_C@_1M@NDPIFLFI@?$AAs?$AAe?$AA?9?$AAn?$AAo?$AA?$AA@ 0000000180044938     libucrtd:lcidtoname_downlevel.obj
 0002:00009948       ??_C@_1M@DANKKHJ@?$AAs?$AAe?$AA?9?$AAs?$AAe?$AA?$AA@ 0000000180044948     libucrtd:lcidtoname_downlevel.obj
 0002:00009958       ??_C@_1M@PNBLONPJ@?$AAs?$AAk?$AA?9?$AAs?$AAk?$AA?$AA@ 0000000180044958     libucrtd:lcidtoname_downlevel.obj
 0002:00009968       ??_C@_1M@LFMODOAL@?$AAs?$AAl?$AA?9?$AAs?$AAi?$AA?$AA@ 0000000180044968     libucrtd:lcidtoname_downlevel.obj
 0002:00009978       ??_C@_1O@DFKOMPG@?$AAs?$AAm?$AAa?$AA?9?$AAn?$AAo?$AA?$AA@ 0000000180044978     libucrtd:lcidtoname_downlevel.obj
 0002:00009988       ??_C@_1O@NDKPBNNH@?$AAs?$AAm?$AAa?$AA?9?$AAs?$AAe?$AA?$AA@ 0000000180044988     libucrtd:lcidtoname_downlevel.obj
 0002:00009998       ??_C@_1O@PLLKBHAB@?$AAs?$AAm?$AAj?$AA?9?$AAn?$AAo?$AA?$AA@ 0000000180044998     libucrtd:lcidtoname_downlevel.obj
 0002:000099a8       ??_C@_1O@CLEPOGCA@?$AAs?$AAm?$AAj?$AA?9?$AAs?$AAe?$AA?$AA@ 00000001800449a8     libucrtd:lcidtoname_downlevel.obj
 0002:000099b8       ??_C@_1O@DLGJGKMK@?$AAs?$AAm?$AAn?$AA?9?$AAf?$AAi?$AA?$AA@ 00000001800449b8     libucrtd:lcidtoname_downlevel.obj
 0002:000099c8       ??_C@_1O@OJDJGAJC@?$AAs?$AAm?$AAs?$AA?9?$AAf?$AAi?$AA?$AA@ 00000001800449c8     libucrtd:lcidtoname_downlevel.obj
 0002:000099d8       ??_C@_1M@BOFOGHPB@?$AAs?$AAq?$AA?9?$AAa?$AAl?$AA?$AA@ 00000001800449d8     libucrtd:lcidtoname_downlevel.obj
 0002:000099e8       ??_C@_1BG@LJBBIPGB@?$AAs?$AAr?$AA?9?$AAb?$AAa?$AA?9?$AAc?$AAy?$AAr?$AAl?$AA?$AA@ 00000001800449e8     libucrtd:lcidtoname_downlevel.obj
 0002:00009a00       ??_C@_1BG@JLBENFOE@?$AAs?$AAr?$AA?9?$AAb?$AAa?$AA?9?$AAl?$AAa?$AAt?$AAn?$AA?$AA@ 0000000180044a00     libucrtd:lcidtoname_downlevel.obj
 0002:00009a18       ??_C@_1BG@KODPNHE@?$AAs?$AAr?$AA?9?$AAs?$AAp?$AA?9?$AAc?$AAy?$AAr?$AAl?$AA?$AA@ 0000000180044a18     libucrtd:lcidtoname_downlevel.obj
 0002:00009a30       ??_C@_1BG@CIOGKHPB@?$AAs?$AAr?$AA?9?$AAs?$AAp?$AA?9?$AAl?$AAa?$AAt?$AAn?$AA?$AA@ 0000000180044a30     libucrtd:lcidtoname_downlevel.obj
 0002:00009a48       ??_C@_1M@NGFJLMAC@?$AAs?$AAv?$AA?9?$AAf?$AAi?$AA?$AA@ 0000000180044a48     libucrtd:lcidtoname_downlevel.obj
 0002:00009a58       ??_C@_1M@MPJEJAJC@?$AAs?$AAv?$AA?9?$AAs?$AAe?$AA?$AA@ 0000000180044a58     libucrtd:lcidtoname_downlevel.obj
 0002:00009a68       ??_C@_1M@MPNDHLFK@?$AAs?$AAw?$AA?9?$AAk?$AAe?$AA?$AA@ 0000000180044a68     libucrtd:lcidtoname_downlevel.obj
 0002:00009a78       ??_C@_1O@KOHBJJI@?$AAs?$AAy?$AAr?$AA?9?$AAs?$AAy?$AA?$AA@ 0000000180044a78     libucrtd:lcidtoname_downlevel.obj
 0002:00009a88       ??_C@_1M@LDCEFHA@?$AAt?$AAa?$AA?9?$AAi?$AAn?$AA?$AA@ 0000000180044a88     libucrtd:lcidtoname_downlevel.obj
 0002:00009a98       ??_C@_1M@CNJOFAK@?$AAt?$AAe?$AA?9?$AAi?$AAn?$AA?$AA@ 0000000180044a98     libucrtd:lcidtoname_downlevel.obj
 0002:00009aa8       ??_C@_1M@GNAECACD@?$AAt?$AAh?$AA?9?$AAt?$AAh?$AA?$AA@ 0000000180044aa8     libucrtd:lcidtoname_downlevel.obj
 0002:00009ab8       ??_C@_1M@CHBIHOJO@?$AAt?$AAn?$AA?9?$AAz?$AAa?$AA?$AA@ 0000000180044ab8     libucrtd:lcidtoname_downlevel.obj
 0002:00009ac8       ??_C@_1M@GCCMIGPJ@?$AAt?$AAr?$AA?9?$AAt?$AAr?$AA?$AA@ 0000000180044ac8     libucrtd:lcidtoname_downlevel.obj
 0002:00009ad8       ??_C@_1M@CELMCNBK@?$AAt?$AAt?$AA?9?$AAr?$AAu?$AA?$AA@ 0000000180044ad8     libucrtd:lcidtoname_downlevel.obj
 0002:00009ae8       ??_C@_1M@KLMCELGA@?$AAu?$AAk?$AA?9?$AAu?$AAa?$AA?$AA@ 0000000180044ae8     libucrtd:lcidtoname_downlevel.obj
 0002:00009af8       ??_C@_1M@EPAJJAJF@?$AAu?$AAr?$AA?9?$AAp?$AAk?$AA?$AA@ 0000000180044af8     libucrtd:lcidtoname_downlevel.obj
 0002:00009b08       ??_C@_1BG@GEGPMCDJ@?$AAu?$AAz?$AA?9?$AAu?$AAz?$AA?9?$AAc?$AAy?$AAr?$AAl?$AA?$AA@ 0000000180044b08     libucrtd:lcidtoname_downlevel.obj
 0002:00009b20       ??_C@_1BG@EGGKJILM@?$AAu?$AAz?$AA?9?$AAu?$AAz?$AA?9?$AAl?$AAa?$AAt?$AAn?$AA?$AA@ 0000000180044b20     libucrtd:lcidtoname_downlevel.obj
 0002:00009b38       ??_C@_1M@GFOCLFF@?$AAv?$AAi?$AA?9?$AAv?$AAn?$AA?$AA@ 0000000180044b38     libucrtd:lcidtoname_downlevel.obj
 0002:00009b48       ??_C@_1M@CPAMEDFI@?$AAx?$AAh?$AA?9?$AAz?$AAa?$AA?$AA@ 0000000180044b48     libucrtd:lcidtoname_downlevel.obj
 0002:00009b58       ??_C@_1O@EBKIFIGN@?$AAz?$AAh?$AA?9?$AAc?$AAh?$AAs?$AA?$AA@ 0000000180044b58     libucrtd:lcidtoname_downlevel.obj
 0002:00009b68       ??_C@_1O@NMHPGANE@?$AAz?$AAh?$AA?9?$AAc?$AAh?$AAt?$AA?$AA@ 0000000180044b68     libucrtd:lcidtoname_downlevel.obj
 0002:00009b78       ??_C@_1M@LPINJOMC@?$AAz?$AAh?$AA?9?$AAc?$AAn?$AA?$AA@ 0000000180044b78     libucrtd:lcidtoname_downlevel.obj
 0002:00009b88       ??_C@_1M@OCJEJODD@?$AAz?$AAh?$AA?9?$AAh?$AAk?$AA?$AA@ 0000000180044b88     libucrtd:lcidtoname_downlevel.obj
 0002:00009b98       ??_C@_1M@DNDLJINH@?$AAz?$AAh?$AA?9?$AAm?$AAo?$AA?$AA@ 0000000180044b98     libucrtd:lcidtoname_downlevel.obj
 0002:00009ba8       ??_C@_1M@MBFDNDND@?$AAz?$AAh?$AA?9?$AAs?$AAg?$AA?$AA@ 0000000180044ba8     libucrtd:lcidtoname_downlevel.obj
 0002:00009bb8       ??_C@_1M@IMEPLEPE@?$AAz?$AAh?$AA?9?$AAt?$AAw?$AA?$AA@ 0000000180044bb8     libucrtd:lcidtoname_downlevel.obj
 0002:00009bc8       ??_C@_1M@BBGHNHJP@?$AAz?$AAu?$AA?9?$AAz?$AAa?$AA?$AA@ 0000000180044bc8     libucrtd:lcidtoname_downlevel.obj
 0002:0000aa20       ??_C@_15EMKDOKLE@?$AAa?$AAr?$AA?$AA@ 0000000180045a20     libucrtd:lcidtoname_downlevel.obj
 0002:0000aa28       ??_C@_15KNPADPLH@?$AAb?$AAg?$AA?$AA@ 0000000180045a28     libucrtd:lcidtoname_downlevel.obj
 0002:0000aa30       ??_C@_15EDMHLDMO@?$AAc?$AAa?$AA?$AA@ 0000000180045a30     libucrtd:lcidtoname_downlevel.obj
 0002:0000aa38       ??_C@_1O@BPEAJADD@?$AAz?$AAh?$AA?9?$AAC?$AAH?$AAS?$AA?$AA@ 0000000180045a38     libucrtd:lcidtoname_downlevel.obj
 0002:0000aa48       ??_C@_15LJNHCMNK@?$AAc?$AAs?$AA?$AA@ 0000000180045a48     libucrtd:lcidtoname_downlevel.obj
 0002:0000aa50       ??_C@_15FOMCIDHG@?$AAd?$AAa?$AA?$AA@ 0000000180045a50     libucrtd:lcidtoname_downlevel.obj
 0002:0000aa58       ??_C@_15NBKABECB@?$AAd?$AAe?$AA?$AA@ 0000000180045a58     libucrtd:lcidtoname_downlevel.obj
 0002:0000aa60       ??_C@_15GHPEIIAO@?$AAe?$AAl?$AA?$AA@ 0000000180045a60     libucrtd:lcidtoname_downlevel.obj
 0002:0000aa68       ??_C@_15MNPNEAIF@?$AAe?$AAn?$AA?$AA@ 0000000180045a68     libucrtd:lcidtoname_downlevel.obj
 0002:0000aa70       ??_C@_15GPIOMPMH@?$AAe?$AAs?$AA?$AA@ 0000000180045a70     libucrtd:lcidtoname_downlevel.obj
 0002:0000aa78       ??_C@_15NGLOAKJC@?$AAf?$AAi?$AA?$AA@ 0000000180045a78     libucrtd:lcidtoname_downlevel.obj
 0002:0000aa80       ??_C@_15FBKGNKAM@?$AAf?$AAr?$AA?$AA@ 0000000180045a80     libucrtd:lcidtoname_downlevel.obj
 0002:0000aa88       ??_C@_15KGGCNEFK@?$AAh?$AAe?$AA?$AA@ 0000000180045a88     libucrtd:lcidtoname_downlevel.obj
 0002:0000aa90       ??_C@_15PGHLIDMF@?$AAh?$AAu?$AA?$AA@ 0000000180045a90     libucrtd:lcidtoname_downlevel.obj
 0002:0000aa98       ??_C@_15BIEMAPLM@?$AAi?$AAs?$AA?$AA@ 0000000180045a98     libucrtd:lcidtoname_downlevel.obj
 0002:0000aaa0       ??_C@_15IFJLDHAF@?$AAi?$AAt?$AA?$AA@ 0000000180045aa0     libucrtd:lcidtoname_downlevel.obj
 0002:0000aaa8       ??_C@_15GEMIOCAG@?$AAj?$AAa?$AA?$AA@ 0000000180045aa8     libucrtd:lcidtoname_downlevel.obj
 0002:0000aab0       ??_C@_15EPELEGJA@?$AAk?$AAo?$AA?$AA@ 0000000180045ab0     libucrtd:lcidtoname_downlevel.obj
 0002:0000aab8       ??_C@_15NDDHIMN@?$AAn?$AAl?$AA?$AA@ 0000000180045ab8     libucrtd:lcidtoname_downlevel.obj
 0002:0000aac0       ??_C@_15BPIGNHCD@?$AAn?$AAo?$AA?$AA@ 0000000180045ac0     libucrtd:lcidtoname_downlevel.obj
 0002:0000aac8       ??_C@_15DEOPBLCG@?$AAp?$AAl?$AA?$AA@ 0000000180045ac8     libucrtd:lcidtoname_downlevel.obj
 0002:0000aad0       ??_C@_15KBECGEFG@?$AAp?$AAt?$AA?$AA@ 0000000180045ad0     libucrtd:lcidtoname_downlevel.obj
 0002:0000aad8       ??_C@_15GLJCBFMD@?$AAr?$AAo?$AA?$AA@ 0000000180045ad8     libucrtd:lcidtoname_downlevel.obj
 0002:0000aae0       ??_C@_15FEDGKCDI@?$AAr?$AAu?$AA?$AA@ 0000000180045ae0     libucrtd:lcidtoname_downlevel.obj
 0002:0000aae8       ??_C@_15GLKMLLHM@?$AAh?$AAr?$AA?$AA@ 0000000180045ae8     libucrtd:lcidtoname_downlevel.obj
 0002:0000aaf0       ??_C@_15CPKMFBDB@?$AAs?$AAk?$AA?$AA@ 0000000180045af0     libucrtd:lcidtoname_downlevel.obj
 0002:0000aaf8       ??_C@_15BAAIOGMK@?$AAs?$AAq?$AA?$AA@ 0000000180045af8     libucrtd:lcidtoname_downlevel.obj
 0002:0000ab00       ??_C@_15INNPNOHD@?$AAs?$AAv?$AA?$AA@ 0000000180045b00     libucrtd:lcidtoname_downlevel.obj
 0002:0000ab08       ??_C@_15CABMMOGH@?$AAt?$AAh?$AA?$AA@ 0000000180045b08     libucrtd:lcidtoname_downlevel.obj
 0002:0000ab10       ??_C@_15BPLIHJJM@?$AAt?$AAr?$AA?$AA@ 0000000180045b10     libucrtd:lcidtoname_downlevel.obj
 0002:0000ab18       ??_C@_15NEOEKKDJ@?$AAu?$AAr?$AA?$AA@ 0000000180045b18     libucrtd:lcidtoname_downlevel.obj
 0002:0000ab20       ??_C@_15NFICGAJK@?$AAi?$AAd?$AA?$AA@ 0000000180045b20     libucrtd:lcidtoname_downlevel.obj
 0002:0000ab28       ??_C@_15PJPFLCCM@?$AAu?$AAk?$AA?$AA@ 0000000180045b28     libucrtd:lcidtoname_downlevel.obj
 0002:0000ab30       ??_C@_15HPJPHDM@?$AAb?$AAe?$AA?$AA@ 0000000180045b30     libucrtd:lcidtoname_downlevel.obj
 0002:0000ab38       ??_C@_15LCHLGJII@?$AAs?$AAl?$AA?$AA@ 0000000180045b38     libucrtd:lcidtoname_downlevel.obj
 0002:0000ab40       ??_C@_15PCFJPHHO@?$AAe?$AAt?$AA?$AA@ 0000000180045b40     libucrtd:lcidtoname_downlevel.obj
 0002:0000ab48       ??_C@_15HPFPGODN@?$AAl?$AAv?$AA?$AA@ 0000000180045b48     libucrtd:lcidtoname_downlevel.obj
 0002:0000ab50       ??_C@_15NFFGKGLG@?$AAl?$AAt?$AA?$AA@ 0000000180045b50     libucrtd:lcidtoname_downlevel.obj
 0002:0000ab58       ??_C@_15BDAKCCHN@?$AAf?$AAa?$AA?$AA@ 0000000180045b58     libucrtd:lcidtoname_downlevel.obj
 0002:0000ab60       ??_C@_15NFGIAIAJ@?$AAv?$AAi?$AA?$AA@ 0000000180045b60     libucrtd:lcidtoname_downlevel.obj
 0002:0000ab68       ??_C@_15LMKNDMHN@?$AAh?$AAy?$AA?$AA@ 0000000180045b68     libucrtd:lcidtoname_downlevel.obj
 0002:0000ab70       ??_C@_15IJBHMCFL@?$AAa?$AAz?$AA?$AA@ 0000000180045b70     libucrtd:lcidtoname_downlevel.obj
 0002:0000ab78       ??_C@_15EKOFJABL@?$AAe?$AAu?$AA?$AA@ 0000000180045b78     libucrtd:lcidtoname_downlevel.obj
 0002:0000ab80       ??_C@_15BGHADCNK@?$AAm?$AAk?$AA?$AA@ 0000000180045b80     libucrtd:lcidtoname_downlevel.obj
 0002:0000ab88       ??_C@_15JDNICKHM@?$AAa?$AAf?$AA?$AA@ 0000000180045b88     libucrtd:lcidtoname_downlevel.obj
 0002:0000ab90       ??_C@_15KPJEDBKD@?$AAk?$AAa?$AA?$AA@ 0000000180045b90     libucrtd:lcidtoname_downlevel.obj
 0002:0000ab98       ??_C@_15PDNFFFEO@?$AAf?$AAo?$AA?$AA@ 0000000180045b98     libucrtd:lcidtoname_downlevel.obj
 0002:0000aba0       ??_C@_15OMLEGLOC@?$AAh?$AAi?$AA?$AA@ 0000000180045ba0     libucrtd:lcidtoname_downlevel.obj
 0002:0000aba8       ??_C@_15IDNNENKK@?$AAm?$AAs?$AA?$AA@ 0000000180045ba8     libucrtd:lcidtoname_downlevel.obj
 0002:0000abb0       ??_C@_15MACJNBMH@?$AAk?$AAk?$AA?$AA@ 0000000180045bb0     libucrtd:lcidtoname_downlevel.obj
 0002:0000abb8       ??_C@_15DKDJEOND@?$AAk?$AAy?$AA?$AA@ 0000000180045bb8     libucrtd:lcidtoname_downlevel.obj
 0002:0000abc0       ??_C@_15DFGDLJBG@?$AAs?$AAw?$AA?$AA@ 0000000180045bc0     libucrtd:lcidtoname_downlevel.obj
 0002:0000abc8       ??_C@_15BBFAICNG@?$AAu?$AAz?$AA?$AA@ 0000000180045bc8     libucrtd:lcidtoname_downlevel.obj
 0002:0000abd0       ??_C@_15DKNDCGEA@?$AAt?$AAt?$AA?$AA@ 0000000180045bd0     libucrtd:lcidtoname_downlevel.obj
 0002:0000abd8       ??_C@_15MGIFMDPL@?$AAp?$AAa?$AA?$AA@ 0000000180045bd8     libucrtd:lcidtoname_downlevel.obj
 0002:0000abe0       ??_C@_15HCNDBBA@?$AAg?$AAu?$AA?$AA@ 0000000180045be0     libucrtd:lcidtoname_downlevel.obj
 0002:0000abe8       ??_C@_15FNBEIBON@?$AAt?$AAa?$AA?$AA@ 0000000180045be8     libucrtd:lcidtoname_downlevel.obj
 0002:0000abf0       ??_C@_15NCHGBGLK@?$AAt?$AAe?$AA?$AA@ 0000000180045bf0     libucrtd:lcidtoname_downlevel.obj
 0002:0000abf8       ??_C@_15PHPHCBPF@?$AAk?$AAn?$AA?$AA@ 0000000180045bf8     libucrtd:lcidtoname_downlevel.obj
 0002:0000ac00       ??_C@_15DLGBCKMP@?$AAm?$AAr?$AA?$AA@ 0000000180045c00     libucrtd:lcidtoname_downlevel.obj
 0002:0000ac08       ??_C@_15EABBLBFF@?$AAs?$AAa?$AA?$AA@ 0000000180045c08     libucrtd:lcidtoname_downlevel.obj
 0002:0000ac10       ??_C@_15CBKOMCOI@?$AAm?$AAn?$AA?$AA@ 0000000180045c10     libucrtd:lcidtoname_downlevel.obj
 0002:0000ac18       ??_C@_15CKDMCJAF@?$AAg?$AAl?$AA?$AA@ 0000000180045c18     libucrtd:lcidtoname_downlevel.obj
 0002:0000ac20       ??_C@_17CNJFBPG@?$AAk?$AAo?$AAk?$AA?$AA@ 0000000180045c20     libucrtd:lcidtoname_downlevel.obj
 0002:0000ac28       ??_C@_17FFBJICPL@?$AAs?$AAy?$AAr?$AA?$AA@ 0000000180045c28     libucrtd:lcidtoname_downlevel.obj
 0002:0000ac30       ??_C@_17KPNDCPAF@?$AAd?$AAi?$AAv?$AA?$AA@ 0000000180045c30     libucrtd:lcidtoname_downlevel.obj
 0002:0000ac38       ??_C@_1M@OKAHONE@?$AAa?$AAr?$AA?9?$AAS?$AAA?$AA?$AA@ 0000000180045c38     libucrtd:lcidtoname_downlevel.obj
 0002:0000ac48       ??_C@_1M@FFFIGIGK@?$AAb?$AAg?$AA?9?$AAB?$AAG?$AA?$AA@ 0000000180045c48     libucrtd:lcidtoname_downlevel.obj
 0002:0000ac58       ??_C@_1M@BJNKEDC@?$AAc?$AAa?$AA?9?$AAE?$AAS?$AA?$AA@ 0000000180045c58     libucrtd:lcidtoname_downlevel.obj
 0002:0000ac68       ??_C@_1M@IJJHFJHA@?$AAc?$AAs?$AA?9?$AAC?$AAZ?$AA?$AA@ 0000000180045c68     libucrtd:lcidtoname_downlevel.obj
 0002:0000ac78       ??_C@_1M@CLPEOBGI@?$AAd?$AAa?$AA?9?$AAD?$AAK?$AA?$AA@ 0000000180045c78     libucrtd:lcidtoname_downlevel.obj
 0002:0000ac88       ??_C@_1M@MCMADGCB@?$AAd?$AAe?$AA?9?$AAD?$AAE?$AA?$AA@ 0000000180045c88     libucrtd:lcidtoname_downlevel.obj
 0002:0000ac98       ??_C@_1M@OOCKEMAM@?$AAe?$AAl?$AA?9?$AAG?$AAR?$AA?$AA@ 0000000180045c98     libucrtd:lcidtoname_downlevel.obj
 0002:0000aca8       ??_C@_1M@DDNJFGID@?$AAf?$AAi?$AA?9?$AAF?$AAI?$AA?$AA@ 0000000180045ca8     libucrtd:lcidtoname_downlevel.obj
 0002:0000acb8       ??_C@_1M@GLIPPMAC@?$AAf?$AAr?$AA?9?$AAF?$AAR?$AA?$AA@ 0000000180045cb8     libucrtd:lcidtoname_downlevel.obj
 0002:0000acc8       ??_C@_1M@GFMCHPE@?$AAh?$AAe?$AA?9?$AAI?$AAL?$AA?$AA@ 0000000180045cc8     libucrtd:lcidtoname_downlevel.obj
 0002:0000acd8       ??_C@_1M@MHLPGNKM@?$AAh?$AAu?$AA?9?$AAH?$AAU?$AA?$AA@ 0000000180045cd8     libucrtd:lcidtoname_downlevel.obj
 0002:0000ace8       ??_C@_1M@LPDDNNPN@?$AAi?$AAs?$AA?9?$AAI?$AAS?$AA?$AA@ 0000000180045ce8     libucrtd:lcidtoname_downlevel.obj
 0002:0000acf8       ??_C@_1M@MADIPODN@?$AAi?$AAt?$AA?9?$AAI?$AAT?$AA?$AA@ 0000000180045cf8     libucrtd:lcidtoname_downlevel.obj
 0002:0000ad08       ??_C@_1M@IHBJJGG@?$AAn?$AAl?$AA?9?$AAN?$AAL?$AA?$AA@ 0000000180045d08     libucrtd:lcidtoname_downlevel.obj
 0002:0000ad18       ??_C@_1M@EANAGDL@?$AAn?$AAb?$AA?9?$AAN?$AAO?$AA?$AA@ 0000000180045d18     libucrtd:lcidtoname_downlevel.obj
 0002:0000ad28       ??_C@_1M@NEIEMEGP@?$AAp?$AAl?$AA?9?$AAP?$AAL?$AA?$AA@ 0000000180045d28     libucrtd:lcidtoname_downlevel.obj
 0002:0000ad38       ??_C@_1M@BOCFIGEP@?$AAp?$AAt?$AA?9?$AAB?$AAR?$AA?$AA@ 0000000180045d38     libucrtd:lcidtoname_downlevel.obj
 0002:0000ad48       ??_C@_1M@IMPFOPBG@?$AAr?$AAo?$AA?9?$AAR?$AAO?$AA?$AA@ 0000000180045d48     libucrtd:lcidtoname_downlevel.obj
 0002:0000ad58       ??_C@_1M@IDNNEJMM@?$AAr?$AAu?$AA?9?$AAR?$AAU?$AA?$AA@ 0000000180045d58     libucrtd:lcidtoname_downlevel.obj
 0002:0000ad68       ??_C@_1M@LILEEOGM@?$AAh?$AAr?$AA?9?$AAH?$AAR?$AA?$AA@ 0000000180045d68     libucrtd:lcidtoname_downlevel.obj
 0002:0000ad78       ??_C@_1M@FKIFEHPB@?$AAs?$AAk?$AA?9?$AAS?$AAK?$AA?$AA@ 0000000180045d78     libucrtd:lcidtoname_downlevel.obj
 0002:0000ad88       ??_C@_1M@LJMAMNPJ@?$AAs?$AAq?$AA?9?$AAA?$AAL?$AA?$AA@ 0000000180045d88     libucrtd:lcidtoname_downlevel.obj
 0002:0000ad98       ??_C@_1M@GIAKDKJK@?$AAs?$AAv?$AA?9?$AAS?$AAE?$AA?$AA@ 0000000180045d98     libucrtd:lcidtoname_downlevel.obj
 0002:0000ada8       ??_C@_1M@MKJKIKCL@?$AAt?$AAh?$AA?9?$AAT?$AAH?$AA?$AA@ 0000000180045da8     libucrtd:lcidtoname_downlevel.obj
 0002:0000adb8       ??_C@_1M@MFLCCMPB@?$AAt?$AAr?$AA?9?$AAT?$AAR?$AA?$AA@ 0000000180045db8     libucrtd:lcidtoname_downlevel.obj
 0002:0000adc8       ??_C@_1M@OIJHDKJN@?$AAu?$AAr?$AA?9?$AAP?$AAK?$AA?$AA@ 0000000180045dc8     libucrtd:lcidtoname_downlevel.obj
 0002:0000add8       ??_C@_1M@LHIPCIEK@?$AAi?$AAd?$AA?9?$AAI?$AAD?$AA?$AA@ 0000000180045dd8     libucrtd:lcidtoname_downlevel.obj
 0002:0000ade8       ??_C@_1M@MFMOBGI@?$AAu?$AAk?$AA?9?$AAU?$AAA?$AA?$AA@ 0000000180045de8     libucrtd:lcidtoname_downlevel.obj
 0002:0000adf8       ??_C@_1M@OBGLJIPL@?$AAb?$AAe?$AA?9?$AAB?$AAY?$AA?$AA@ 0000000180045df8     libucrtd:lcidtoname_downlevel.obj
 0002:0000ae08       ??_C@_1M@BCFAJEAD@?$AAs?$AAl?$AA?9?$AAS?$AAI?$AA?$AA@ 0000000180045e08     libucrtd:lcidtoname_downlevel.obj
 0002:0000ae18       ??_C@_1M@FKFFEDDN@?$AAe?$AAt?$AA?9?$AAE?$AAE?$AA?$AA@ 0000000180045e18     libucrtd:lcidtoname_downlevel.obj
 0002:0000ae28       ??_C@_1M@KGKKAACI@?$AAl?$AAv?$AA?9?$AAL?$AAV?$AA?$AA@ 0000000180045e28     libucrtd:lcidtoname_downlevel.obj
 0002:0000ae38       ??_C@_1M@IFGBIJO@?$AAl?$AAt?$AA?9?$AAL?$AAT?$AA?$AA@ 0000000180045e38     libucrtd:lcidtoname_downlevel.obj
 0002:0000ae48       ??_C@_1M@FGEAHEDM@?$AAf?$AAa?$AA?9?$AAI?$AAR?$AA?$AA@ 0000000180045e48     libucrtd:lcidtoname_downlevel.obj
 0002:0000ae58       ??_C@_1M@KBMAIBFN@?$AAv?$AAi?$AA?9?$AAV?$AAN?$AA?$AA@ 0000000180045e58     libucrtd:lcidtoname_downlevel.obj
 0002:0000ae68       ??_C@_1M@GPCBKDJK@?$AAh?$AAy?$AA?9?$AAA?$AAM?$AA?$AA@ 0000000180045e68     libucrtd:lcidtoname_downlevel.obj
 0002:0000ae78       ??_C@_1BG@BECMDDJB@?$AAa?$AAz?$AA?9?$AAA?$AAZ?$AA?9?$AAL?$AAa?$AAt?$AAn?$AA?$AA@ 0000000180045e78     libucrtd:lcidtoname_downlevel.obj
 0002:0000ae90       ??_C@_1M@MAOFCAEA@?$AAe?$AAu?$AA?9?$AAE?$AAS?$AA?$AA@ 0000000180045e90     libucrtd:lcidtoname_downlevel.obj
 0002:0000aea0       ??_C@_1M@IGHABKPI@?$AAm?$AAk?$AA?9?$AAM?$AAK?$AA?$AA@ 0000000180045ea0     libucrtd:lcidtoname_downlevel.obj
 0002:0000aeb0       ??_C@_1M@IAIGNEJG@?$AAt?$AAn?$AA?9?$AAZ?$AAA?$AA?$AA@ 0000000180045eb0     libucrtd:lcidtoname_downlevel.obj
 0002:0000aec0       ??_C@_1M@IIJCOJFA@?$AAx?$AAh?$AA?9?$AAZ?$AAA?$AA?$AA@ 0000000180045ec0     libucrtd:lcidtoname_downlevel.obj
 0002:0000aed0       ??_C@_1M@LGPJHNJH@?$AAz?$AAu?$AA?9?$AAZ?$AAA?$AA?$AA@ 0000000180045ed0     libucrtd:lcidtoname_downlevel.obj
 0002:0000aee0       ??_C@_1M@HOKAOIO@?$AAa?$AAf?$AA?9?$AAZ?$AAA?$AA?$AA@ 0000000180045ee0     libucrtd:lcidtoname_downlevel.obj
 0002:0000aef0       ??_C@_1M@DPCLHLIE@?$AAk?$AAa?$AA?9?$AAG?$AAE?$AA?$AA@ 0000000180045ef0     libucrtd:lcidtoname_downlevel.obj
 0002:0000af00       ??_C@_1M@BLKMHJBI@?$AAf?$AAo?$AA?9?$AAF?$AAO?$AA?$AA@ 0000000180045f00     libucrtd:lcidtoname_downlevel.obj
 0002:0000af10       ??_C@_1M@LGGJAPPB@?$AAh?$AAi?$AA?9?$AAI?$AAN?$AA?$AA@ 0000000180045f10     libucrtd:lcidtoname_downlevel.obj
 0002:0000af20       ??_C@_1M@FIKPIHFE@?$AAm?$AAt?$AA?9?$AAM?$AAT?$AA?$AA@ 0000000180045f20     libucrtd:lcidtoname_downlevel.obj
 0002:0000af30       ??_C@_1M@HEGGPBFA@?$AAs?$AAe?$AA?9?$AAN?$AAO?$AA?$AA@ 0000000180045f30     libucrtd:lcidtoname_downlevel.obj
 0002:0000af40       ??_C@_1M@EIBJEEPA@?$AAm?$AAs?$AA?9?$AAM?$AAY?$AA?$AA@ 0000000180045f40     libucrtd:lcidtoname_downlevel.obj
 0002:0000af50       ??_C@_1M@FHLBGMPP@?$AAk?$AAk?$AA?9?$AAK?$AAZ?$AA?$AA@ 0000000180045f50     libucrtd:lcidtoname_downlevel.obj
 0002:0000af60       ??_C@_1M@NGJJLCGI@?$AAk?$AAy?$AA?9?$AAK?$AAG?$AA?$AA@ 0000000180045f60     libucrtd:lcidtoname_downlevel.obj
 0002:0000af70       ??_C@_1M@GIENNBFC@?$AAs?$AAw?$AA?9?$AAK?$AAE?$AA?$AA@ 0000000180045f70     libucrtd:lcidtoname_downlevel.obj
 0002:0000af80       ??_C@_1FE@KNPCCODH@?$AA?$CI?$AA?$CC?$AAC?$AAo?$AAr?$AAr?$AAu?$AAp?$AAt?$AAe?$AAd?$AA?5?$AAp?$AAo?$AAi?$AAn?$AAt?$AAe?$AAr?$AA?5?$AAp?$AAa?$AAs?$AAs?$AAe?$AAd?$AA?5?$AAt?$AAo?$AA?5?$AA_?$AAf@ 0000000180045f80     libucrtd:getstringtypea.obj
 0002:0000afe0       ??_C@_1HG@NGPLHMCI@?$AAm?$AAi?$AAn?$AAk?$AAe?$AAr?$AAn?$AAe?$AAl?$AA?2?$AAc?$AAr?$AAt?$AAs?$AA?2?$AAu?$AAc?$AAr?$AAt?$AA?2?$AAd?$AAe?$AAv?$AAd?$AAi?$AAv?$AA?2?$AAv?$AAc?$AAr?$AAu?$AAn@ 0000000180045fe0     libucrtd:getstringtypea.obj
 0002:0000b058       ??_C@_0DJ@HCPJODDK@minkernel?2crts?2ucrt?2src?2appcrt?2l@ 0000000180046058     libucrtd:getstringtypea.obj
 0002:0000b098       ??_C@_0DH@IKPCBLP@minkernel?2crts?2ucrt?2src?2appcrt?2l@ 0000000180046098     libucrtd:lcmapstringa.obj
 0002:0000b0d0       ??_C@_0DB@JFFPGLDM@minkernel?2crts?2ucrt?2src?2appcrt?2l@ 00000001800460d0     libucrtd:osfinfo.obj
 0002:0000b110       ??_C@_1EM@BPODPNEJ@?$AAs?$AAt?$AAa?$AAt?$AAi?$AAc?$AA_?$AAc?$AAa?$AAs?$AAt?$AA?$DM?$AAu?$AAn?$AAs?$AAi?$AAg?$AAn?$AAe?$AAd?$AA?$DO?$AA?$CI?$AAf?$AAh?$AA?$CJ?$AA?5?$AA?$DM?$AA?5?$AA_?$AAN?$AAH?$AAA@ 0000000180046110     libucrtd:osfinfo.obj
 0002:0000b160       ??_C@_1GC@LDGKBAFM@?$AAm?$AAi?$AAn?$AAk?$AAe?$AAr?$AAn?$AAe?$AAl?$AA?2?$AAc?$AAr?$AAt?$AAs?$AA?2?$AAu?$AAc?$AAr?$AAt?$AA?2?$AAs?$AAr?$AAc?$AA?2?$AAa?$AAp?$AAp?$AAc?$AAr?$AAt?$AA?2?$AAl@ 0000000180046160     libucrtd:osfinfo.obj
 0002:0000b1c8       ??_C@_1DM@JELNOMLN@?$AA_?$AA_?$AAa?$AAc?$AAr?$AAt?$AA_?$AAl?$AAo?$AAw?$AAi?$AAo?$AA_?$AAe?$AAn?$AAs?$AAu?$AAr?$AAe?$AA_?$AAf?$AAh?$AA_?$AAe?$AAx?$AAi?$AAs?$AAt?$AAs?$AA?$AA@ 00000001800461c8     libucrtd:osfinfo.obj
 0002:0000b210       ??_C@_1FK@MGHFJLAL@?$AAf?$AAh?$AA?5?$AA?$DO?$AA?$DN?$AA?5?$AA0?$AA?5?$AA?$CG?$AA?$CG?$AA?5?$AA?$CI?$AAu?$AAn?$AAs?$AAi?$AAg?$AAn?$AAe?$AAd?$AA?$CJ?$AAf?$AAh?$AA?5?$AA?$DM?$AA?5?$AA?$CI?$AAu?$AAn?$AAs?$AAi?$AAg@ 0000000180046210     libucrtd:osfinfo.obj
 0002:0000b270       ??_C@_1BO@EMBOBGKE@?$AA_?$AAg?$AAe?$AAt?$AA_?$AAo?$AAs?$AAf?$AAh?$AAa?$AAn?$AAd?$AAl?$AAe?$AA?$AA@ 0000000180046270     libucrtd:osfinfo.obj
 0002:0000b290       ??_C@_1CI@ILOIOBLM@?$AA_?$AAo?$AAs?$AAf?$AAi?$AAl?$AAe?$AA?$CI?$AAf?$AAh?$AA?$CJ?$AA?5?$AA?$CG?$AA?5?$AAF?$AAO?$AAP?$AAE?$AAN?$AA?$AA@ 0000000180046290     libucrtd:osfinfo.obj
 0002:0000b2c0       __newctype                 00000001800462c0     libucrtd:ctype.obj
 0002:0000b5c0       __newclmap                 00000001800465c0     libucrtd:ctype.obj
 0002:0000b740       __newcumap                 0000000180046740     libucrtd:ctype.obj
 0002:0000b8c0       _wctype                    00000001800468c0     libucrtd:ctype.obj
 0002:0000bad0       ??_C@_1FO@LPCLHKGE@?$AA?$CI?$AAf?$AAh?$AA?5?$AA?$DO?$AA?$DN?$AA?5?$AA0?$AA?5?$AA?$CG?$AA?$CG?$AA?5?$AA?$CI?$AAu?$AAn?$AAs?$AAi?$AAg?$AAn?$AAe?$AAd?$AA?$CJ?$AAf?$AAh?$AA?5?$AA?$DM?$AA?5?$AA?$CI?$AAu?$AAn?$AAs?$AAi@ 0000000180046ad0     libucrtd:isatty.obj
 0002:0000bb30       ??_C@_1GA@DEPMKPD@?$AAm?$AAi?$AAn?$AAk?$AAe?$AAr?$AAn?$AAe?$AAl?$AA?2?$AAc?$AAr?$AAt?$AAs?$AA?2?$AAu?$AAc?$AAr?$AAt?$AA?2?$AAs?$AAr?$AAc?$AA?2?$AAa?$AAp?$AAp?$AAc?$AAr?$AAt?$AA?2?$AAl@ 0000000180046b30     libucrtd:isatty.obj
 0002:0000bb90       ??_C@_1BA@LEBDGIHM@?$AA_?$AAi?$AAs?$AAa?$AAt?$AAt?$AAy?$AA?$AA@ 0000000180046b90     libucrtd:isatty.obj
 0002:0000bba0       ??_C@_1CA@EOJJMFA@?$AAc?$AAo?$AAm?$AAm?$AAo?$AAn?$AA_?$AAt?$AAc?$AAs?$AAc?$AAa?$AAt?$AA_?$AAs?$AA?$AA@ 0000000180046ba0     libucrtd:wcscat_s.obj
 0002:0000bbc0       ??_C@_1DM@FHLMIEG@?$AAS?$AAt?$AAr?$AAi?$AAn?$AAg?$AA?5?$AAi?$AAs?$AA?5?$AAn?$AAo?$AAt?$AA?5?$AAn?$AAu?$AAl?$AAl?$AA?5?$AAt?$AAe?$AAr?$AAm?$AAi?$AAn?$AAa?$AAt?$AAe?$AAd?$AA?$AA@ 0000000180046bc0     libucrtd:wcscat_s.obj
 0002:0000bc00       ??_C@_1FA@MJKDNFFB@?$AA?$CI?$AAL?$AA?$CC?$AAS?$AAt?$AAr?$AAi?$AAn?$AAg?$AA?5?$AAi?$AAs?$AA?5?$AAn?$AAo?$AAt?$AA?5?$AAn?$AAu?$AAl?$AAl?$AA?5?$AAt?$AAe?$AAr?$AAm?$AAi?$AAn?$AAa?$AAt?$AAe?$AAd@ 0000000180046c00     libucrtd:wcscat_s.obj
 0002:0000bc50       ??_C@_1CC@CHNFGJIC@?$AAc?$AAo?$AAm?$AAm?$AAo?$AAn?$AA_?$AAt?$AAc?$AAs?$AAn?$AAc?$AAp?$AAy?$AA_?$AAs?$AA?$AA@ 0000000180046c50     libucrtd:wcsncpy_s.obj
 0002:0000bc78       ??_C@_1CE@MCCHPLBM@?$AAb?$AAu?$AAf?$AAf?$AAe?$AAr?$AA?5?$AA?$CB?$AA?$DN?$AA?5?$AAn?$AAu?$AAl?$AAl?$AAp?$AAt?$AAr?$AA?$AA@ 0000000180046c78     libucrtd:xtoa.obj
 0002:0000bca0       ??_C@_1GA@HBEFGMHK@?$AAm?$AAi?$AAn?$AAk?$AAe?$AAr?$AAn?$AAe?$AAl?$AA?2?$AAc?$AAr?$AAt?$AAs?$AA?2?$AAu?$AAc?$AAr?$AAt?$AA?2?$AAs?$AAr?$AAc?$AA?2?$AAa?$AAp?$AAp?$AAc?$AAr?$AAt?$AA?2?$AAc@ 0000000180046ca0     libucrtd:xtoa.obj
 0002:0000bd00       ??_C@_1BM@HMPEMLNP@?$AAc?$AAo?$AAm?$AAm?$AAo?$AAn?$AA_?$AAx?$AAt?$AAo?$AAx?$AA_?$AAs?$AA?$AA@ 0000000180046d00     libucrtd:xtoa.obj
 0002:0000bd20       ??_C@_1CC@ONIJBMJF@?$AAb?$AAu?$AAf?$AAf?$AAe?$AAr?$AA_?$AAc?$AAo?$AAu?$AAn?$AAt?$AA?5?$AA?$DO?$AA?5?$AA0?$AA?$AA@ 0000000180046d20     libucrtd:xtoa.obj
 0002:0000bd50       ??_C@_1HA@JFIOFNKD@?$AAb?$AAu?$AAf?$AAf?$AAe?$AAr?$AA_?$AAc?$AAo?$AAu?$AAn?$AAt?$AA?5?$AA?$DO?$AA?5?$AAs?$AAt?$AAa?$AAt?$AAi?$AAc?$AA_?$AAc?$AAa?$AAs?$AAt?$AA?$DM?$AAs?$AAi?$AAz?$AAe?$AA_@ 0000000180046d50     libucrtd:xtoa.obj
 0002:0000bdc0       ??_C@_1DE@PCJGDBBD@?$AA2?$AA?5?$AA?$DM?$AA?$DN?$AA?5?$AAr?$AAa?$AAd?$AAi?$AAx?$AA?5?$AA?$CG?$AA?$CG?$AA?5?$AAr?$AAa?$AAd?$AAi?$AAx?$AA?5?$AA?$DM?$AA?$DN?$AA?5?$AA3?$AA6?$AA?$AA@ 0000000180046dc0     libucrtd:xtoa.obj
 0002:0000bdf8       ??_C@_1CM@LONILNIJ@?$AAl?$AAe?$AAn?$AAg?$AAt?$AAh?$AA?5?$AA?$DM?$AA?5?$AAb?$AAu?$AAf?$AAf?$AAe?$AAr?$AA_?$AAc?$AAo?$AAu?$AAn?$AAt?$AA?$AA@ 0000000180046df8     libucrtd:xtoa.obj
 0002:0000be28       ??_C@_1BI@OLPLFKOE@?$AAc?$AAo?$AAm?$AAm?$AAo?$AAn?$AA_?$AAx?$AAt?$AAo?$AAx?$AA?$AA@ 0000000180046e28     libucrtd:xtoa.obj
 0002:0000be40       ??_C@_1BK@FPAMLIDG@?$AAs?$AA?5?$AA?$CB?$AA?$DN?$AA?5?$AAn?$AAu?$AAl?$AAl?$AAp?$AAt?$AAr?$AA?$AA@ 0000000180046e40     libucrtd:mbstowcs.obj
 0002:0000be60       ??_C@_1GI@KABMHNPH@?$AAm?$AAi?$AAn?$AAk?$AAe?$AAr?$AAn?$AAe?$AAl?$AA?2?$AAc?$AAr?$AAt?$AAs?$AA?2?$AAu?$AAc?$AAr?$AAt?$AA?2?$AAs?$AAr?$AAc?$AA?2?$AAa?$AAp?$AAp?$AAc?$AAr?$AAt?$AA?2?$AAc@ 0000000180046e60     libucrtd:mbstowcs.obj
 0002:0000bec8       ??_C@_1CG@JEHFHLNG@?$AA_?$AAm?$AAb?$AAs?$AAt?$AAo?$AAw?$AAc?$AAs?$AA_?$AAl?$AA_?$AAh?$AAe?$AAl?$AAp?$AAe?$AAr?$AA?$AA@ 0000000180046ec8     libucrtd:mbstowcs.obj
 0002:0000bef0       ??_C@_1JM@MEKBACIG@?$AA?$CI?$AAp?$AAw?$AAc?$AAs?$AA?5?$AA?$DN?$AA?$DN?$AA?5?$AAn?$AAu?$AAl?$AAl?$AAp?$AAt?$AAr?$AA?5?$AA?$CG?$AA?$CG?$AA?5?$AAs?$AAi?$AAz?$AAe?$AAI?$AAn?$AAW?$AAo?$AAr?$AAd?$AAs?$AA?5@ 0000000180046ef0     libucrtd:mbstowcs.obj
 0002:0000bf90       ??_C@_1BM@PHENIGHD@?$AA_?$AAm?$AAb?$AAs?$AAt?$AAo?$AAw?$AAc?$AAs?$AA_?$AAs?$AA_?$AAl?$AA?$AA@ 0000000180046f90     libucrtd:mbstowcs.obj
 0002:0000bfb0       ??_C@_1CM@LLECFMFH@?$AAb?$AAu?$AAf?$AAf?$AAe?$AAr?$AAS?$AAi?$AAz?$AAe?$AA?5?$AA?$DM?$AA?$DN?$AA?5?$AAI?$AAN?$AAT?$AA_?$AAM?$AAA?$AAX?$AA?$AA@ 0000000180046fb0     libucrtd:mbstowcs.obj
 0002:0000bfe0       ??_C@_1CO@JNPEPJAL@?$AAr?$AAe?$AAt?$AAs?$AAi?$AAz?$AAe?$AA?5?$AA?$DM?$AA?$DN?$AA?5?$AAs?$AAi?$AAz?$AAe?$AAI?$AAn?$AAW?$AAo?$AAr?$AAd?$AAs?$AA?$AA@ 0000000180046fe0     libucrtd:mbstowcs.obj
 0002:0000c038       ??_C@_1CA@NOKNKDIG@?$AAp?$AAw?$AAc?$AAs?$AA?5?$AA?$CB?$AA?$DN?$AA?5?$AAn?$AAu?$AAl?$AAl?$AAp?$AAt?$AAr?$AA?$AA@ 0000000180047038     libucrtd:wcstombs.obj
 0002:0000c060       ??_C@_1GI@EEJDEALP@?$AAm?$AAi?$AAn?$AAk?$AAe?$AAr?$AAn?$AAe?$AAl?$AA?2?$AAc?$AAr?$AAt?$AAs?$AA?2?$AAu?$AAc?$AAr?$AAt?$AA?2?$AAs?$AAr?$AAc?$AA?2?$AAa?$AAp?$AAp?$AAc?$AAr?$AAt?$AA?2?$AAc@ 0000000180047060     libucrtd:wcstombs.obj
 0002:0000c0c8       ??_C@_1CG@LLJCAOHF@?$AA_?$AAw?$AAc?$AAs?$AAt?$AAo?$AAm?$AAb?$AAs?$AA_?$AAl?$AA_?$AAh?$AAe?$AAl?$AAp?$AAe?$AAr?$AA?$AA@ 00000001800470c8     libucrtd:wcstombs.obj
 0002:0000c0f0       ??_C@_1JI@DFNKFCLG@?$AA?$CI?$AAd?$AAs?$AAt?$AA?5?$AA?$CB?$AA?$DN?$AA?5?$AAn?$AAu?$AAl?$AAl?$AAp?$AAt?$AAr?$AA?5?$AA?$CG?$AA?$CG?$AA?5?$AAs?$AAi?$AAz?$AAe?$AAI?$AAn?$AAB?$AAy?$AAt?$AAe?$AAs?$AA?5?$AA?$DO@ 00000001800470f0     libucrtd:wcstombs.obj
 0002:0000c188       ??_C@_1BM@BDMCLLDL@?$AA_?$AAw?$AAc?$AAs?$AAt?$AAo?$AAm?$AAb?$AAs?$AA_?$AAs?$AA_?$AAl?$AA?$AA@ 0000000180047188     libucrtd:wcstombs.obj
 0002:0000c1a8       ??_C@_1CM@KEOGBFLI@?$AAs?$AAi?$AAz?$AAe?$AAI?$AAn?$AAB?$AAy?$AAt?$AAe?$AAs?$AA?5?$AA?$DO?$AA?5?$AAr?$AAe?$AAt?$AAs?$AAi?$AAz?$AAe?$AA?$AA@ 00000001800471a8     libucrtd:wcstombs.obj
 0002:0000c1d8       ??_C@_1DE@BCNCAIK@?$AA?$CI?$AA?$CC?$AAI?$AAn?$AAv?$AAa?$AAl?$AAi?$AAd?$AA?5?$AAe?$AAr?$AAr?$AAo?$AAr?$AA_?$AAm?$AAo?$AAd?$AAe?$AA?$CC?$AA?0?$AA?5?$AA0?$AA?$CJ?$AA?$AA@ 00000001800471d8     libucrtd:set_error_mode.obj
 0002:0000c210       ??_C@_1GO@EBFPMMIJ@?$AAm?$AAi?$AAn?$AAk?$AAe?$AAr?$AAn?$AAe?$AAl?$AA?2?$AAc?$AAr?$AAt?$AAs?$AA?2?$AAu?$AAc?$AAr?$AAt?$AA?2?$AAs?$AAr?$AAc?$AA?2?$AAa?$AAp?$AAp?$AAc?$AAr?$AAt?$AA?2?$AAm@ 0000000180047210     libucrtd:set_error_mode.obj
 0002:0000c280       ??_C@_1CA@LFDHAMEM@?$AA_?$AAs?$AAe?$AAt?$AA_?$AAe?$AAr?$AAr?$AAo?$AAr?$AA_?$AAm?$AAo?$AAd?$AAe?$AA?$AA@ 0000000180047280     libucrtd:set_error_mode.obj
 0002:0000c2a0       ??_C@_1GI@IMEEHIAK@?$AAm?$AAi?$AAn?$AAk?$AAe?$AAr?$AAn?$AAe?$AAl?$AA?2?$AAc?$AAr?$AAt?$AAs?$AA?2?$AAu?$AAc?$AAr?$AAt?$AA?2?$AAs?$AAr?$AAc?$AA?2?$AAa?$AAp?$AAp?$AAc?$AAr?$AAt?$AA?2?$AAc@ 00000001800472a0     libucrtd:_fptostr.obj
 0002:0000c308       ??_C@_1DG@NMGBKPMI@?$AA_?$AA_?$AAa?$AAc?$AAr?$AAt?$AA_?$AAf?$AAp?$AA_?$AAs?$AAt?$AAr?$AAf?$AAl?$AAt?$AA_?$AAt?$AAo?$AA_?$AAs?$AAt?$AAr?$AAi?$AAn?$AAg?$AA?$AA@ 0000000180047308     libucrtd:_fptostr.obj
 0002:0000c340       ??_C@_1IE@EAOKIIFP@?$AAb?$AAu?$AAf?$AAf?$AAe?$AAr?$AA_?$AAc?$AAo?$AAu?$AAn?$AAt?$AA?5?$AA?$DO?$AA?5?$AAs?$AAt?$AAa?$AAt?$AAi?$AAc?$AA_?$AAc?$AAa?$AAs?$AAt?$AA?$DM?$AAs?$AAi?$AAz?$AAe?$AA_@ 0000000180047340     libucrtd:_fptostr.obj
 0002:0000c3c8       ??_C@_1CA@EDEEBMBB@?$AAp?$AAf?$AAl?$AAt?$AA?5?$AA?$CB?$AA?$DN?$AA?5?$AAn?$AAu?$AAl?$AAl?$AAp?$AAt?$AAr?$AA?$AA@ 00000001800473c8     libucrtd:_fptostr.obj
 0002:0000c3f0       ?large_power_data@?1??multiply_by_power_of_ten@__crt_strtox@@YA_NAEAUbig_integer@2@I@Z@4QBIB 00000001800473f0     libucrtd:cfout.obj
 0002:0000cd00       ?large_power_indices@?1??multiply_by_power_of_ten@__crt_strtox@@YA_NAEAUbig_integer@2@I@Z@4QBUunpack_index@?1??12@YA_N0I@Z@B 0000000180047d00     libucrtd:cfout.obj
 0002:0000cd98       ?small_powers_of_ten@?6??multiply_by_power_of_ten@__crt_strtox@@YA_NAEAUbig_integer@2@I@Z@4QBIB 0000000180047d98     libucrtd:cfout.obj
 0002:0000cdc0       ??_C@_1DI@GICAMMFM@?$AA?$CI?$AA?$CC?$AAD?$AAi?$AAv?$AAi?$AAs?$AAi?$AAo?$AAn?$AA?5?$AAb?$AAy?$AA?5?$AAz?$AAe?$AAr?$AAo?$AA?$CC?$AA?0?$AA?5?$AAf?$AAa?$AAl?$AAs?$AAe?$AA?$CJ?$AA?$AA@ 0000000180047dc0     libucrtd:cfout.obj
 0002:0000ce00       ??_C@_1GO@BFGDDONN@?$AAm?$AAi?$AAn?$AAk?$AAe?$AAr?$AAn?$AAe?$AAl?$AA?2?$AAc?$AAr?$AAt?$AAs?$AA?2?$AAu?$AAc?$AAr?$AAt?$AA?2?$AAi?$AAn?$AAc?$AA?2?$AAc?$AAo?$AAr?$AAe?$AAc?$AAr?$AAt?$AA_@ 0000000180047e00     libucrtd:cfout.obj
 0002:0000ce70       ??_C@_1GC@DDAKNBNC@?$AAm?$AAi?$AAn?$AAk?$AAe?$AAr?$AAn?$AAe?$AAl?$AA?2?$AAc?$AAr?$AAt?$AAs?$AA?2?$AAu?$AAc?$AAr?$AAt?$AA?2?$AAs?$AAr?$AAc?$AA?2?$AAa?$AAp?$AAp?$AAc?$AAr?$AAt?$AA?2?$AAc@ 0000000180047e70     libucrtd:cfout.obj
 0002:0000ced8       ??_C@_1BM@FAAOAKKO@?$AA_?$AA_?$AAa?$AAc?$AAr?$AAt?$AA_?$AAf?$AAl?$AAt?$AAo?$AAu?$AAt?$AA?$AA@ 0000000180047ed8     libucrtd:cfout.obj
 0002:0000cf00       ??_C@_1EI@OACEJKEP@?$AAs?$AAt?$AAr?$AAc?$AAp?$AAy?$AA_?$AAs?$AA?$CI?$AAr?$AAe?$AAs?$AAu?$AAl?$AAt?$AA?0?$AA?5?$AAr?$AAe?$AAs?$AAu?$AAl?$AAt?$AA_?$AAc?$AAo?$AAu?$AAn?$AAt?$AA?0?$AA?5?$AA?$CC@ 0000000180047f00     libucrtd:cfout.obj
 0002:0000cf48       ??_C@_01GBGANLPD@0?$AA@    0000000180047f48     libucrtd:cfout.obj
 0002:0000cf50       ??_C@_1FC@KIECGFMP@?$AAs?$AAt?$AAr?$AAc?$AAp?$AAy?$AA_?$AAs?$AA?$CI?$AAr?$AAe?$AAs?$AAu?$AAl?$AAt?$AA?0?$AA?5?$AAr?$AAe?$AAs?$AAu?$AAl?$AAt?$AA_?$AAc?$AAo?$AAu?$AAn?$AAt?$AA?0?$AA?5?$AA?$CC@ 0000000180047f50     libucrtd:cfout.obj
 0002:0000cfa4       ??_C@_05DNEBIAHO@1?$CDINF?$AA@ 0000000180047fa4     libucrtd:cfout.obj
 0002:0000cfb0       ??_C@_1FC@NFPJEIBD@?$AAs?$AAt?$AAr?$AAc?$AAp?$AAy?$AA_?$AAs?$AA?$CI?$AAr?$AAe?$AAs?$AAu?$AAl?$AAt?$AA?0?$AA?5?$AAr?$AAe?$AAs?$AAu?$AAl?$AAt?$AA_?$AAc?$AAo?$AAu?$AAn?$AAt?$AA?0?$AA?5?$AA?$CC@ 0000000180047fb0     libucrtd:cfout.obj
 0002:0000d004       ??_C@_06IMKFLFPG@1?$CDQNAN?$AA@ 0000000180048004     libucrtd:cfout.obj
 0002:0000d010       ??_C@_1FC@DEJHIMLO@?$AAs?$AAt?$AAr?$AAc?$AAp?$AAy?$AA_?$AAs?$AA?$CI?$AAr?$AAe?$AAs?$AAu?$AAl?$AAt?$AA?0?$AA?5?$AAr?$AAe?$AAs?$AAu?$AAl?$AAt?$AA_?$AAc?$AAo?$AAu?$AAn?$AAt?$AA?0?$AA?5?$AA?$CC@ 0000000180048010     libucrtd:cfout.obj
 0002:0000d064       ??_C@_06PGGFOGJG@1?$CDSNAN?$AA@ 0000000180048064     libucrtd:cfout.obj
 0002:0000d070       ??_C@_1FC@KMLHLFPC@?$AAs?$AAt?$AAr?$AAc?$AAp?$AAy?$AA_?$AAs?$AA?$CI?$AAr?$AAe?$AAs?$AAu?$AAl?$AAt?$AA?0?$AA?5?$AAr?$AAe?$AAs?$AAu?$AAl?$AAt?$AA_?$AAc?$AAo?$AAu?$AAn?$AAt?$AA?0?$AA?5?$AA?$CC@ 0000000180048070     libucrtd:cfout.obj
 0002:0000d0c4       ??_C@_05PHHOCPM@1?$CDIND?$AA@ 00000001800480c4     libucrtd:cfout.obj
 0002:0000d0d0       ??_C@_1DE@KHKADFOO@?$AAm?$AAa?$AAn?$AAt?$AAi?$AAs?$AAs?$AAa?$AA_?$AAb?$AAu?$AAf?$AAf?$AAe?$AAr?$AA_?$AAc?$AAo?$AAu?$AAn?$AAt?$AA?5?$AA?$DO?$AA?5?$AA0?$AA?$AA@ 00000001800480d0     libucrtd:cfout.obj
 0002:0000d110       ??_C@_1FI@LFKLOPAC@?$AA?$CI?$AA?$CC?$AAu?$AAn?$AAe?$AAx?$AAp?$AAe?$AAc?$AAt?$AAe?$AAd?$AA?5?$AAi?$AAn?$AAp?$AAu?$AAt?$AA?5?$AAv?$AAa?$AAl?$AAu?$AAe?$AA?$DL?$AA?5?$AAl?$AAo?$AAg?$AA1?$AA0?$AA?5@ 0000000180048110     libucrtd:cfout.obj
 0002:0000d170       ??_C@_1FG@MLHBDPBG@?$AAq?$AAu?$AAo?$AAt?$AAi?$AAe?$AAn?$AAt?$AA?5?$AA?$DM?$AA?5?$AAd?$AAi?$AAg?$AAi?$AAt?$AAs?$AA_?$AAp?$AAe?$AAr?$AA_?$AAi?$AAt?$AAe?$AAr?$AAa?$AAt?$AAi?$AAo?$AAn?$AA_@ 0000000180048170     libucrtd:cfout.obj
 0002:0000d1d0       ??_C@_1GE@GPOPIOIG@?$AAm?$AAi?$AAn?$AAk?$AAe?$AAr?$AAn?$AAe?$AAl?$AA?2?$AAc?$AAr?$AAt?$AAs?$AA?2?$AAu?$AAc?$AAr?$AAt?$AA?2?$AAs?$AAr?$AAc?$AA?2?$AAa?$AAp?$AAp?$AAc?$AAr?$AAt?$AA?2?$AAs@ 00000001800481d0     libucrtd:_freebuf.obj
 0002:0000d240       ??_C@_1EK@PDBKILLM@?$AA?$CI?$AAm?$AAa?$AAs?$AAk?$AA?$CG?$AA?$HO?$AA?$CI?$AA_?$AAM?$AAC?$AAW?$AA_?$AAD?$AAN?$AA?$HM?$AA_?$AAM?$AAC?$AAW?$AA_?$AAE?$AAM?$AA?$HM?$AA_?$AAM?$AAC?$AAW?$AA_?$AAR?$AAC?$AA?$CJ@ 0000000180048240     libucrtd:ieee.obj
 0002:0000d290       ??_C@_1GC@IEFABLII@?$AAm?$AAi?$AAn?$AAk?$AAe?$AAr?$AAn?$AAe?$AAl?$AA?2?$AAc?$AAr?$AAt?$AAs?$AA?2?$AAu?$AAc?$AAr?$AAt?$AA?2?$AAs?$AAr?$AAc?$AA?2?$AAa?$AAp?$AAp?$AAc?$AAr?$AAt?$AA?2?$AAt@ 0000000180048290     libucrtd:ieee.obj
 0002:0000d310       ??_C@_1GA@MPOOLHCO@?$AAm?$AAi?$AAn?$AAk?$AAe?$AAr?$AAn?$AAe?$AAl?$AA?2?$AAc?$AAr?$AAt?$AAs?$AA?2?$AAu?$AAc?$AAr?$AAt?$AA?2?$AAs?$AAr?$AAc?$AA?2?$AAa?$AAp?$AAp?$AAc?$AAr?$AAt?$AA?2?$AAl@ 0000000180048310     libucrtd:commit.obj
 0002:0000d370       ??_C@_1BA@FLNMBBIM@?$AA_?$AAc?$AAo?$AAm?$AAm?$AAi?$AAt?$AA?$AA@ 0000000180048370     libucrtd:commit.obj
 0002:0000d380       ??_C@_1CM@OKGMMMDH@?$AA?$CI?$AA_?$AAo?$AAs?$AAf?$AAi?$AAl?$AAe?$AA?$CI?$AAf?$AAh?$AA?$CJ?$AA?5?$AA?$CG?$AA?5?$AAF?$AAO?$AAP?$AAE?$AAN?$AA?$CJ?$AA?$AA@ 0000000180048380     libucrtd:commit.obj
 0002:0000d3b0       ??_C@_1JE@ECKHFIFP@?$AA?$CI?$AA?$CC?$AAI?$AAn?$AAv?$AAa?$AAl?$AAi?$AAd?$AA?5?$AAf?$AAi?$AAl?$AAe?$AA?5?$AAd?$AAe?$AAs?$AAc?$AAr?$AAi?$AAp?$AAt?$AAo?$AAr?$AA?4?$AA?5?$AAF?$AAi?$AAl?$AAe?$AA?5@ 00000001800483b0     libucrtd:commit.obj
 0002:0000d450       ??_C@_1FO@CAMPMGCN@?$AAm?$AAi?$AAn?$AAk?$AAe?$AAr?$AAn?$AAe?$AAl?$AA?2?$AAc?$AAr?$AAt?$AAs?$AA?2?$AAu?$AAc?$AAr?$AAt?$AA?2?$AAs?$AAr?$AAc?$AA?2?$AAa?$AAp?$AAp?$AAc?$AAr?$AAt?$AA?2?$AAl@ 0000000180048450     libucrtd:write.obj
 0002:0000d4b0       ??_C@_1O@KOFKDHPL@?$AA_?$AAw?$AAr?$AAi?$AAt?$AAe?$AA?$AA@ 00000001800484b0     libucrtd:write.obj
 0002:0000d4c0       ??_C@_1DI@CNMHHHLG@?$AAi?$AAs?$AAl?$AAe?$AAa?$AAd?$AAb?$AAy?$AAt?$AAe?$AA?$CI?$AA_?$AAd?$AAb?$AAc?$AAs?$AAB?$AAu?$AAf?$AAf?$AAe?$AAr?$AA?$CI?$AAf?$AAh?$AA?$CJ?$AA?$CJ?$AA?$AA@ 00000001800484c0     libucrtd:write.obj
 0002:0000d4f8       ??_C@_1BM@NCANHCIP@?$AA_?$AAw?$AAr?$AAi?$AAt?$AAe?$AA_?$AAn?$AAo?$AAl?$AAo?$AAc?$AAk?$AA?$AA@ 00000001800484f8     libucrtd:write.obj
 0002:0000d518       ??_C@_1CK@CPEAGIIP@?$AAb?$AAu?$AAf?$AAf?$AAe?$AAr?$AA_?$AAs?$AAi?$AAz?$AAe?$AA?5?$AA?$CF?$AA?5?$AA2?$AA?5?$AA?$DN?$AA?$DN?$AA?5?$AA0?$AA?$AA@ 0000000180048518     libucrtd:write.obj
 0002:0000d7a0       __real@3ff0000000000000    00000001800487a0     libucrtd:ceil.obj
 0002:0000d7b0       ??_C@_1FO@KIIHJNFN@?$AAm?$AAi?$AAn?$AAk?$AAe?$AAr?$AAn?$AAe?$AAl?$AA?2?$AAc?$AAr?$AAt?$AAs?$AA?2?$AAu?$AAc?$AAr?$AAt?$AA?2?$AAs?$AAr?$AAc?$AA?2?$AAa?$AAp?$AAp?$AAc?$AAr?$AAt?$AA?2?$AAl@ 00000001800487b0     libucrtd:lseek.obj
 0002:0000d810       ??_C@_1DM@LMLOLGJ@?$AA?$CI?$AA?$CC?$AAI?$AAn?$AAv?$AAa?$AAl?$AAi?$AAd?$AA?5?$AAf?$AAi?$AAl?$AAe?$AA?5?$AAd?$AAe?$AAs?$AAc?$AAr?$AAi?$AAp?$AAt?$AAo?$AAr?$AA?$CC?$AA?0?$AA0?$AA?$CJ?$AA?$AA@ 0000000180048810     libucrtd:lseek.obj
 0002:0000d850       ??_C@_1GA@DKNOMDCL@?$AAm?$AAi?$AAn?$AAk?$AAe?$AAr?$AAn?$AAe?$AAl?$AA?2?$AAc?$AAr?$AAt?$AAs?$AA?2?$AAu?$AAc?$AAr?$AAt?$AA?2?$AAs?$AAr?$AAc?$AA?2?$AAa?$AAp?$AAp?$AAc?$AAr?$AAt?$AA?2?$AAs@ 0000000180048850     libucrtd:fclose.obj
 0002:0000d8b0       ??_C@_1O@EGMJNCOI@?$AAf?$AAc?$AAl?$AAo?$AAs?$AAe?$AA?$AA@ 00000001800488b0     libucrtd:fclose.obj
 0002:0000d8c0       ??_C@_1BO@JINCABEC@?$AA_?$AAf?$AAc?$AAl?$AAo?$AAs?$AAe?$AA_?$AAn?$AAo?$AAl?$AAo?$AAc?$AAk?$AA?$AA@ 00000001800488c0     libucrtd:fclose.obj
 0002:0000d8e0       __log10_256_lead           00000001800488e0     libucrtd:log10_256_lead_tail_table.obj
 0002:0000e0f0       __log10_256_tail           00000001800490f0     libucrtd:log10_256_lead_tail_table.obj
 0002:0000e900       __log_F_inv_qword          0000000180049900     libucrtd:log_f_inv_qword_table.obj
 0002:0000f110       ??_C@_1FO@IPDGALOE@?$AAm?$AAi?$AAn?$AAk?$AAe?$AAr?$AAn?$AAe?$AAl?$AA?2?$AAc?$AAr?$AAt?$AAs?$AA?2?$AAu?$AAc?$AAr?$AAt?$AA?2?$AAs?$AAr?$AAc?$AA?2?$AAa?$AAp?$AAp?$AAc?$AAr?$AAt?$AA?2?$AAl@ 000000018004a110     libucrtd:close.obj
 0002:0000f170       ??_C@_1O@EDEJGJBM@?$AA_?$AAc?$AAl?$AAo?$AAs?$AAe?$AA?$AA@ 000000018004a170     libucrtd:close.obj
 0002:0000f180       ??_C@_1BA@BALFACEM@?$AAC?$AAO?$AAN?$AAO?$AAU?$AAT?$AA$?$AA?$AA@ 000000018004a180     libucrtd:initcon.obj
 0002:0000f198       ??_7type_info@@6B@         000000018004a198     LIBCMTD:std_type_info_static.obj
 0002:0000f238       _pDestructExceptionObject  000000018004a238     libvcruntimed:frame.obj
 0002:0000f248       ??_7exception@std@@6B@     000000018004a248     libvcruntimed:frame.obj
 0002:0000f258       ??_C@_0BC@EOODALEL@Unknown?5exception?$AA@ 000000018004a258     libvcruntimed:frame.obj
 0002:0000f278       ??_7bad_exception@std@@6B@ 000000018004a278     libvcruntimed:frame.obj
 0002:0000f288       ??_C@_0O@DPKOEFFH@bad?5exception?$AA@ 000000018004a288     libvcruntimed:frame.obj
 0002:0000f2a0       ??_C@_1FK@OACNEHHA@?$AAt?$AAo?$AA?9?$AA?$DO?$AA_?$AAW?$AAh?$AAa?$AAt?$AA?5?$AA?$DN?$AA?$DN?$AA?5?$AAn?$AAu?$AAl?$AAl?$AAp?$AAt?$AAr?$AA?5?$AA?$CG?$AA?$CG?$AA?5?$AAt?$AAo?$AA?9?$AA?$DO?$AA_?$AAD?$AAo?$AAF@ 000000018004a2a0     libvcruntimed:std_exception.obj
 0002:0000f300       ??_C@_1GK@GJEBHBCE@?$AAf?$AA?3?$AA?2?$AAd?$AAd?$AA?2?$AAv?$AAc?$AAt?$AAo?$AAo?$AAl?$AAs?$AA?2?$AAc?$AAr?$AAt?$AA?2?$AAv?$AAc?$AAr?$AAu?$AAn?$AAt?$AAi?$AAm?$AAe?$AA?2?$AAs?$AAr?$AAc?$AA?2@ 000000018004a300     libvcruntimed:std_exception.obj
 0002:0000f410       _load_config_used          000000018004a410     LIBCMTD:loadcfg.obj
 0002:0000f4a8       ??_R4type_info@@6B@        000000018004a4a8     LIBCMTD:std_type_info_static.obj
 0002:0000f4d0       ??_R3type_info@@8          000000018004a4d0     LIBCMTD:std_type_info_static.obj
 0002:0000f4e8       ??_R2type_info@@8          000000018004a4e8     LIBCMTD:std_type_info_static.obj
 0002:0000f4f8       ??_R1A@?0A@EA@type_info@@8 000000018004a4f8     LIBCMTD:std_type_info_static.obj
 0002:0000f520       ??_R4exception@std@@6B@    000000018004a520     libvcruntimed:frame.obj
 0002:0000f548       ??_R3exception@std@@8      000000018004a548     libvcruntimed:frame.obj
 0002:0000f560       ??_R2exception@std@@8      000000018004a560     libvcruntimed:frame.obj
 0002:0000f570       ??_R1A@?0A@EA@exception@std@@8 000000018004a570     libvcruntimed:frame.obj
 0002:0000f598       ??_R4bad_exception@std@@6B@ 000000018004a598     libvcruntimed:frame.obj
 0002:0000f5c0       ??_R3bad_exception@std@@8  000000018004a5c0     libvcruntimed:frame.obj
 0002:0000f5d8       ??_R2bad_exception@std@@8  000000018004a5d8     libvcruntimed:frame.obj
 0002:0000f5f0       ??_R1A@?0A@EA@bad_exception@std@@8 000000018004a5f0     libvcruntimed:frame.obj
 0002:0000f618       ?_TraceLoggingMetadata@?1??_TlgWrite@__vcrt_trace_logging_provider@@YAJPEBU_TlgProvider_t@2@PEFBXPEBU_GUID@@2IPEAU_EVENT_DATA_DESCRIPTOR@@@Z@4U_TraceLoggingMetadata_t@2@B 000000018004a618     libvcruntimed:telemetry.obj
 0002:0000f6cb       ?_TraceLoggingMetadataEnd@?1??_TlgWrite@__vcrt_trace_logging_provider@@YAJPEBU_TlgProvider_t@2@PEFBXPEBU_GUID@@2IPEAU_EVENT_DATA_DESCRIPTOR@@@Z@4EB 000000018004a6cb     libvcruntimed:telemetry.obj
 0002:0000fa28       __rtc_iaa                  000000018004aa28     LIBCMTD:_initsect_.obj
 0002:0000fa30       __rtc_izz                  000000018004aa30     LIBCMTD:_initsect_.obj
 0002:0000fa38       __rtc_taa                  000000018004aa38     LIBCMTD:_initsect_.obj
 0002:0000fa40       __rtc_tzz                  000000018004aa40     LIBCMTD:_initsect_.obj
 0002:00010c50       _TI2?AVbad_exception@std@@ 000000018004bc50     libvcruntimed:frame.obj
 0002:00010c70       _CTA2?AVbad_exception@std@@ 000000018004bc70     libvcruntimed:frame.obj
 0002:00010c88       _CT??_R0?AVbad_exception@std@@@8??0bad_exception@std@@QEAA@AEBV01@@Z24 000000018004bc88     libvcruntimed:frame.obj
 0002:00010cb0       _CT??_R0?AVexception@std@@@8??0exception@std@@QEAA@AEBV01@@Z24 000000018004bcb0     libvcruntimed:frame.obj
 0002:00010d34       __IMPORT_DESCRIPTOR_KERNEL32 000000018004bd34     kernel32:KERNEL32.dll
 0002:00010d48       __IMPORT_DESCRIPTOR_ADVAPI32 000000018004bd48     advapi32:ADVAPI32.dll
 0002:00010d5c       __NULL_IMPORT_DESCRIPTOR   000000018004bd5c     kernel32:KERNEL32.dll
 0003:00000000       __security_cookie          000000018004d000     LIBCMTD:gs_cookie.obj
 0003:00000008       __security_cookie_complement 000000018004d008     LIBCMTD:gs_cookie.obj
 0003:00000010       _fltused                   000000018004d010     LIBCMTD:fltused.obj
 0003:00000014       __scrt_native_dllmain_reason 000000018004d014     LIBCMTD:utility.obj
 0003:00000018       __isa_available            000000018004d018     LIBCMTD:_cpu_disp_.obj
 0003:0000001c       __isa_enabled              000000018004d01c     LIBCMTD:_cpu_disp_.obj
 0003:00000020       __memcpy_nt_iters          000000018004d020     LIBCMTD:_cpu_disp_.obj
 0003:00000094       _crtDbgFlag                000000018004d094     libucrtd:debug_heap.obj
 0003:00000098       _crtBreakAlloc             000000018004d098     libucrtd:debug_heap.obj
 0003:000000a0       __abort_behavior           000000018004d0a0     libucrtd:abort.obj
 0003:000000b0       __acrt_initial_multibyte_data 000000018004d0b0     libucrtd:mbctype.obj
 0003:000002d8       __acrt_current_multibyte_data 000000018004d2d8     libucrtd:mbctype.obj
 0003:000003e0       _mbctype                   000000018004d3e0     libucrtd:mbctype.obj
 0003:000004f0       _mbcasemap                 000000018004d4f0     libucrtd:mbctype.obj
 0003:000005f0       __acrt_initial_locale_data 000000018004d5f0     libucrtd:nlsdata.obj
 0003:00000748       __acrt_initial_locale_pointers 000000018004d748     libucrtd:nlsdata.obj
 0003:00000758       __acrt_wide_c_locale_string 000000018004d758     libucrtd:nlsdata.obj
 0003:00000768       _pfnAllocHook              000000018004d768     libucrtd:debug_heap_hook.obj
 0003:00000778       _crtAssertBusy             000000018004d778     libucrtd:dbgrptt.obj
 0003:00000780       _CrtDbgMode                000000018004d780     libucrtd:dbgrptt.obj
 0003:00000790       _CrtDbgFile                000000018004d790     libucrtd:dbgrptt.obj
 0003:000007b0       _iob                       000000018004d7b0     libucrtd:_file.obj
 0003:000008bc       __globallocalestatus       000000018004d8bc     libucrtd:glstatus.obj
 0003:000008c0       __acrt_lconv_c             000000018004d8c0     libucrtd:localeconv.obj
 0003:00000958       __acrt_lconv_static_decimal 000000018004d958     libucrtd:localeconv.obj
 0003:0000095c       __acrt_lconv_static_W_decimal 000000018004d95c     libucrtd:localeconv.obj
 0003:00000960       _pwctype                   000000018004d960     libucrtd:ctype.obj
 0003:00000970       __dcrt_lowio_console_output_handle 000000018004d970     libucrtd:initcon.obj
 0003:00000980       ??_R0?AVtype_info@@@8      000000018004d980     LIBCMTD:std_type_info_static.obj
 0003:000009a0       ??_R0?AVbad_exception@std@@@8 000000018004d9a0     libvcruntimed:frame.obj
 0003:000009c8       ??_R0?AVexception@std@@@8  000000018004d9c8     libvcruntimed:frame.obj
 0003:00000fa0       __scrt_current_native_startup_state 000000018004dfa0     LIBCMTD:utility.obj
 0003:00000fa8       __scrt_native_startup_lock 000000018004dfa8     LIBCMTD:utility.obj
 0003:00000fc0       ?__type_info_root_node@@3U__type_info_node@@A 000000018004dfc0     LIBCMTD:tncleanup.obj
 0003:00000fd0       ?_OptionsStorage@?1??__local_stdio_printf_options@@9@4_KA 000000018004dfd0     LIBCMTD:default_local_stdio_options.obj
 0003:00000fd8       ?_OptionsStorage@?1??__local_stdio_scanf_options@@9@4_KA 000000018004dfd8     LIBCMTD:default_local_stdio_options.obj
 0003:00000fe0       __scrt_debugger_hook_flag  000000018004dfe0     LIBCMTD:utility_desktop.obj
 0003:00000fe4       __favor                    000000018004dfe4     LIBCMTD:_cpu_disp_.obj
 0003:00001108       __pPurecall                000000018004e108     libvcruntimed:purevirt_data.obj
 0003:00001110       ?pArgList@UnDecorator@@0PEAVReplicator@@EA 000000018004e110     libvcruntimed:undname.obj
 0003:00001118       ?pZNameList@UnDecorator@@0PEAVReplicator@@EA 000000018004e118     libvcruntimed:undname.obj
 0003:00001120       ?pTemplateArgList@UnDecorator@@0PEAVReplicator@@EA 000000018004e120     libvcruntimed:undname.obj
 0003:00001128       ?gName@UnDecorator@@0PEBDEB 000000018004e128     libvcruntimed:undname.obj
 0003:00001130       ?name@UnDecorator@@0PEBDEB 000000018004e130     libvcruntimed:undname.obj
 0003:00001138       ?outputString@UnDecorator@@0PEADEA 000000018004e138     libvcruntimed:undname.obj
 0003:00001140       ?maxStringLength@UnDecorator@@0HA 000000018004e140     libvcruntimed:undname.obj
 0003:00001144       ?disableFlags@UnDecorator@@0KA 000000018004e144     libvcruntimed:undname.obj
 0003:00001148       ?fExplicitTemplateParams@UnDecorator@@0_NA 000000018004e148     libvcruntimed:undname.obj
 0003:00001149       ?fGetTemplateArgumentList@UnDecorator@@0_NA 000000018004e149     libvcruntimed:undname.obj
 0003:00001150       ?m_pGetParameter@UnDecorator@@0P6APEADJ@ZEA 000000018004e150     libvcruntimed:undname.obj
 0003:00001198       _environ_table             000000018004e198     libucrtd:environment_initialization.obj
 0003:000011a0       _wenviron_table            000000018004e1a0     libucrtd:environment_initialization.obj
 0003:000011a8       __dcrt_initial_wide_environment 000000018004e1a8     libucrtd:environment_initialization.obj
 0003:000011b0       __dcrt_initial_narrow_environment 000000018004e1b0     libucrtd:environment_initialization.obj
 0003:000011b8       __acrt_atexit_table        000000018004e1b8     libucrtd:onexit.obj
 0003:000011d0       __acrt_at_quick_exit_table 000000018004e1d0     libucrtd:onexit.obj
 0003:00001220       _pfnDumpClient             000000018004e220     libucrtd:debug_heap.obj
 0003:000015f0       __mbcodepage               000000018004e5f0     libucrtd:mbctype.obj
 0003:000015f4       __ismbcodepage             000000018004e5f4     libucrtd:mbctype.obj
 0003:000015f8       __mbulinfo                 000000018004e5f8     libucrtd:mbctype.obj
 0003:00001608       __mblocalename             000000018004e608     libucrtd:mbctype.obj
 0003:00001618       __acrt_heap                000000018004e618     libucrtd:heap_handle.obj
 0003:00001620       __pioinfo                  000000018004e620     libucrtd:ioinit.obj
 0003:00001a20       _nhandle                   000000018004ea20     libucrtd:ioinit.obj
 0003:00001a28       __argv                     000000018004ea28     libucrtd:argv_data.obj
 0003:00001a30       __wargv                    000000018004ea30     libucrtd:argv_data.obj
 0003:00001a38       _acmdln                    000000018004ea38     libucrtd:argv_data.obj
 0003:00001a40       _wcmdln                    000000018004ea40     libucrtd:argv_data.obj
 0003:00001a78       __acrt_current_locale_data 000000018004ea78     libucrtd:nlsdata.obj
 0003:00001a80       __acrt_stdout_buffer       000000018004ea80     libucrtd:_sftbuf.obj
 0003:00001a88       __acrt_stderr_buffer       000000018004ea88     libucrtd:_sftbuf.obj
 0003:00001a94       __acrt_locale_changed_data 000000018004ea94     libucrtd:wsetlocale.obj
 0003:00001a98       _pfnReportHook             000000018004ea98     libucrtd:dbgrptt.obj
 0003:00001aa0       _pReportHookList           000000018004eaa0     libucrtd:dbgrptt.obj
 0003:00001aa8       _pReportHookListW          000000018004eaa8     libucrtd:dbgrptt.obj
 0003:000020e8       _nstream                   000000018004f0e8     libucrtd:_file.obj
 0003:000020f0       __piob                     000000018004f0f0     libucrtd:_file.obj
 0003:00002100       __acrt_lconv_static_null   000000018004f100     libucrtd:localeconv.obj
 0003:00002104       __acrt_lconv_static_W_null 000000018004f104     libucrtd:localeconv.obj
 0003:0000210c       __fma3_is_available        000000018004f10c     libucrtd:fma3_available.obj
 0003:00002110       __use_fma3_lib             000000018004f110     libucrtd:fma3_available.obj
 0003:00002118       ?g_OutOfMemoryExceptionCallback@@3P6APEAXXZEA 000000018004f118     libvcruntimed:frame.obj
 0003:00002120       __scrt_ucrt_dll_is_in_use  000000018004f120     <common>
 0003:00002128       __dyn_tls_init_callback    000000018004f128     <common>

 entry point at        0001:0000a410

 Static symbols

 0000:fffac000       .debug$S                   0000000180000000     kernel32:KERNEL32.dll
 0000:fffac000       .debug$S                   0000000180000000     gamecode.exp
 0000:fffac000       .debug$S                   0000000180000000     kernel32:KERNEL32.dll
 0000:fffac000       .debug$S                   0000000180000000     kernel32:KERNEL32.dll
 0000:fffac000       .debug$S                   0000000180000000     kernel32:KERNEL32.dll
 0000:fffac000       .debug$S                   0000000180000000     kernel32:KERNEL32.dll
 0000:fffac000       .debug$S                   0000000180000000     kernel32:KERNEL32.dll
 0000:fffac000       .debug$S                   0000000180000000     kernel32:KERNEL32.dll
 0000:fffac000       .debug$S                   0000000180000000     kernel32:KERNEL32.dll
 0000:fffac000       .debug$S                   0000000180000000     kernel32:KERNEL32.dll
 0000:fffac000       .debug$S                   0000000180000000     kernel32:KERNEL32.dll
 0000:fffac000       .debug$S                   0000000180000000     kernel32:KERNEL32.dll
 0000:fffac000       .debug$S                   0000000180000000     kernel32:KERNEL32.dll
 0000:fffac000       .debug$S                   0000000180000000     kernel32:KERNEL32.dll
 0000:fffac000       .debug$S                   0000000180000000     kernel32:KERNEL32.dll
 0000:fffac000       .debug$S                   0000000180000000     kernel32:KERNEL32.dll
 0000:fffac000       .debug$S                   0000000180000000     kernel32:KERNEL32.dll
 0000:fffac000       .debug$S                   0000000180000000     kernel32:KERNEL32.dll
 0000:fffac000       .debug$S                   0000000180000000     kernel32:KERNEL32.dll
 0000:fffac000       .debug$S                   0000000180000000     kernel32:KERNEL32.dll
 0000:fffac000       .debug$S                   0000000180000000     kernel32:KERNEL32.dll
 0000:fffac000       .debug$S                   0000000180000000     kernel32:KERNEL32.dll
 0000:fffac000       .debug$S                   0000000180000000     kernel32:KERNEL32.dll
 0000:fffac000       .debug$S                   0000000180000000     kernel32:KERNEL32.dll
 0000:fffac000       .debug$S                   0000000180000000     kernel32:KERNEL32.dll
 0000:fffac000       .debug$S                   0000000180000000     kernel32:KERNEL32.dll
 0000:fffac000       .debug$S                   0000000180000000     kernel32:KERNEL32.dll
 0000:fffac000       .debug$S                   0000000180000000     kernel32:KERNEL32.dll
 0000:fffac000       .debug$S                   0000000180000000     kernel32:KERNEL32.dll
 0000:fffac000       .debug$S                   0000000180000000     kernel32:KERNEL32.dll
 0000:fffac000       .debug$S                   0000000180000000     kernel32:KERNEL32.dll
 0000:fffac000       .debug$S                   0000000180000000     kernel32:KERNEL32.dll
 0000:fffac000       .debug$S                   0000000180000000     kernel32:KERNEL32.dll
 0000:fffac000       .debug$S                   0000000180000000     kernel32:KERNEL32.dll
 0000:fffac000       .debug$S                   0000000180000000     kernel32:KERNEL32.dll
 0000:fffac000       .debug$S                   0000000180000000     kernel32:KERNEL32.dll
 0000:fffac000       .debug$S                   0000000180000000     kernel32:KERNEL32.dll
 0000:fffac000       .debug$S                   0000000180000000     kernel32:KERNEL32.dll
 0000:fffac000       .debug$S                   0000000180000000     kernel32:KERNEL32.dll
 0000:fffac000       .debug$S                   0000000180000000     kernel32:KERNEL32.dll
 0000:fffac000       .debug$S                   0000000180000000     kernel32:KERNEL32.dll
 0000:fffac000       .debug$S                   0000000180000000     kernel32:KERNEL32.dll
 0000:fffac000       .debug$S                   0000000180000000     kernel32:KERNEL32.dll
 0000:fffac000       .debug$S                   0000000180000000     kernel32:KERNEL32.dll
 0000:fffac000       .debug$S                   0000000180000000     kernel32:KERNEL32.dll
 0000:fffac000       .debug$S                   0000000180000000     kernel32:KERNEL32.dll
 0000:fffac000       .debug$S                   0000000180000000     kernel32:KERNEL32.dll
 0000:fffac000       .debug$S                   0000000180000000     kernel32:KERNEL32.dll
 0000:fffac000       .debug$S                   0000000180000000     kernel32:KERNEL32.dll
 0000:fffac000       .debug$S                   0000000180000000     kernel32:KERNEL32.dll
 0000:fffac000       .debug$S                   0000000180000000     kernel32:KERNEL32.dll
 0000:fffac000       .debug$S                   0000000180000000     kernel32:KERNEL32.dll
 0000:fffac000       .debug$S                   0000000180000000     kernel32:KERNEL32.dll
 0000:fffac000       .debug$S                   0000000180000000     kernel32:KERNEL32.dll
 0000:fffac000       .debug$S                   0000000180000000     kernel32:KERNEL32.dll
 0000:fffac000       .debug$S                   0000000180000000     kernel32:KERNEL32.dll
 0000:fffac000       .debug$S                   0000000180000000     kernel32:KERNEL32.dll
 0000:fffac000       .debug$S                   0000000180000000     kernel32:KERNEL32.dll
 0000:fffac000       .debug$S                   0000000180000000     kernel32:KERNEL32.dll
 0000:fffac000       .debug$S                   0000000180000000     kernel32:KERNEL32.dll
 0000:fffac000       .debug$S                   0000000180000000     kernel32:KERNEL32.dll
 0000:fffac000       .debug$S                   0000000180000000     kernel32:KERNEL32.dll
 0000:fffac000       .debug$S                   0000000180000000     kernel32:KERNEL32.dll
 0000:fffac000       .debug$S                   0000000180000000     kernel32:KERNEL32.dll
 0000:fffac000       .debug$S                   0000000180000000     kernel32:KERNEL32.dll
 0000:fffac000       .debug$S                   0000000180000000     kernel32:KERNEL32.dll
 0000:fffac000       .debug$S                   0000000180000000     kernel32:KERNEL32.dll
 0000:fffac000       .debug$S                   0000000180000000     kernel32:KERNEL32.dll
 0000:fffac000       .debug$S                   0000000180000000     kernel32:KERNEL32.dll
 0000:fffac000       .debug$S                   0000000180000000     kernel32:KERNEL32.dll
 0000:fffac000       .debug$S                   0000000180000000     kernel32:KERNEL32.dll
 0000:fffac000       .debug$S                   0000000180000000     kernel32:KERNEL32.dll
 0000:fffac000       .debug$S                   0000000180000000     kernel32:KERNEL32.dll
 0000:fffac000       .debug$S                   0000000180000000     kernel32:KERNEL32.dll
 0000:fffac000       .debug$S                   0000000180000000     kernel32:KERNEL32.dll
 0000:fffac000       .debug$S                   0000000180000000     kernel32:KERNEL32.dll
 0000:fffac000       .debug$S                   0000000180000000     kernel32:KERNEL32.dll
 0000:fffac000       .debug$S                   0000000180000000     kernel32:KERNEL32.dll
 0000:fffac000       .debug$S                   0000000180000000     kernel32:KERNEL32.dll
 0000:fffac000       .debug$S                   0000000180000000     kernel32:KERNEL32.dll
 0000:fffac000       .debug$S                   0000000180000000     kernel32:KERNEL32.dll
 0000:fffac000       .debug$S                   0000000180000000     kernel32:KERNEL32.dll
 0000:fffac000       .debug$S                   0000000180000000     kernel32:KERNEL32.dll
 0000:fffac000       .debug$S                   0000000180000000     advapi32:ADVAPI32.dll
 0000:fffac000       .debug$S                   0000000180000000     kernel32:KERNEL32.dll
 0000:fffac000       .debug$S                   0000000180000000     kernel32:KERNEL32.dll
 0000:fffac000       .debug$S                   0000000180000000     kernel32:KERNEL32.dll
 0001:00005450       ?c2MakeProxy@@YAXPEBXW4C2_TYPE@@PEAUc2Proxy@@@Z 0000000180006450 f   gamecode.obj
 0001:000055f0       ?c2Support@@YAHPEBUc2v@@HU1@@Z 00000001800065f0 f   gamecode.obj
 0001:000056a0       ?c2L@@YA?AUc2v@@PEAUc2Simplex@@@Z 00000001800066a0 f   gamecode.obj
 0001:00005860       ?c2Witness@@YAXPEAUc2Simplex@@PEAUc2v@@1@Z 0000000180006860 f   gamecode.obj
 0001:00005bf0       ?c2D@@YA?AUc2v@@PEAUc2Simplex@@@Z 0000000180006bf0 f   gamecode.obj
 0001:00005ce0       ?c22@@YAXPEAUc2Simplex@@@Z 0000000180006ce0 f   gamecode.obj
 0001:00005ea0       ?c23@@YAXPEAUc2Simplex@@@Z 0000000180006ea0 f   gamecode.obj
 0001:00006520       ?c2Clip@@YAHPEAUc2v@@Uc2h@@@Z 0000000180007520 f   gamecode.obj
 0001:00006700       ?c2SidePlanes@@YAHPEAUc2v@@Uc2x@@PEBUc2Poly@@HPEAUc2h@@@Z 0000000180007700 f   gamecode.obj
 0001:00006990       ?c2KeepDeep@@YAXPEAUc2v@@Uc2h@@PEAUc2Manifold@@@Z 0000000180007990 f   gamecode.obj
 0001:00006a90       ?c2CapsuleSupport@@YA?AUc2v@@Uc2Capsule@@U1@@Z 0000000180007a90 f   gamecode.obj
 0001:00006b60       ?c2AntinormalFace@@YAXUc2Capsule@@PEBUc2Poly@@Uc2x@@PEAHPEAUc2v@@@Z 0000000180007b60 f   gamecode.obj
 0001:00006da0       ?c2CheckFaces@@YAMPEBUc2Poly@@Uc2x@@01PEAH@Z 0000000180007da0 f   gamecode.obj
 0001:00007080       ?c2Incident@@YAXPEAUc2v@@PEBUc2Poly@@Uc2x@@12H@Z 0000000180008080 f   gamecode.obj
 0001:00007250       ?MinkowskiSum@@YA?AUminkowskirect@@PEAUentity@@0@Z 0000000180008250 f   gamecode.obj
 0001:00007310       ?CheckCollision@@YAHPEAUentity@@0@Z 0000000180008310 f   gamecode.obj
 0001:00007580       ?DrawPixel@@YAXPEAUgame_offscreen_buffer@@MMMMMM@Z 0000000180008580 f   gamecode.obj
 0001:000076f0       ?DrawRectangle@@YAXUrectangle2i@@Tv2@@1PEAUgame_offscreen_buffer@@MMMM@Z 00000001800086f0 f   gamecode.obj
 0001:00007a70       ?CreateEntity@@YAPEAUentity@@PEAUgame_state@@W4entity_flag@@@Z 0000000180008a70 f   gamecode.obj
 0001:00007b10       ?InitializeWall@@YAXPEAUentity@@MMMM@Z 0000000180008b10 f   gamecode.obj
 0001:00007be0       ?RenderEntity@@YAXPEAUentity@@Urectangle2i@@PEAUgame_offscreen_buffer@@@Z 0000000180008be0 f   gamecode.obj
 0001:00007d90       ?MoveEntity@@YA?ATv2@@PEAUentity@@PEAUgame_input@@@Z 0000000180008d90 f   gamecode.obj
 0001:00009fd0       $$000000                   000000018000afd0     LIBCMTD:_amdsecgs_.obj
 0001:0000a010       ?dllmain_crt_dispatch@@YAHQEAUHINSTANCE__@@KQEAX@Z 000000018000b010 f   LIBCMTD:dll_dllmain.obj
 0001:0000a0a0       ?dllmain_crt_process_attach@@YAHQEAUHINSTANCE__@@QEAX@Z 000000018000b0a0 f   LIBCMTD:dll_dllmain.obj
 0001:0000a1f0       ?dllmain_crt_process_detach@@YAH_N@Z 000000018000b1f0 f   LIBCMTD:dll_dllmain.obj
 0001:0000a270       ?dllmain_dispatch@@YAHQEAUHINSTANCE__@@KQEAX@Z 000000018000b270 f   LIBCMTD:dll_dllmain.obj
 0001:0000a3c0       ?dllmain_raw@@YAHQEAUHINSTANCE__@@KQEAX@Z 000000018000b3c0 f   LIBCMTD:dll_dllmain.obj
 0001:0000a630       capture_previous_context   000000018000b630 f   LIBCMTD:gs_report.obj
 0001:0000a750       ?find_pe_section@@YAPEAU_IMAGE_SECTION_HEADER@@QEAE_K@Z 000000018000b750 f   LIBCMTD:utility.obj
 0001:0000a820       ?is_potentially_valid_image_base@@YA_NQEAX@Z 000000018000b820 f   LIBCMTD:utility.obj
 0001:0000b5f0       _TlgDefineProvider_annotation__Tlg_Microsoft_CRTProviderProv 000000018000c5f0 f   libvcruntimed:telemetry.obj
 0001:0000b600       ?__telemetry_getfilename@@YAXPEAUHINSTANCE__@@PEA_WK@Z 000000018000c600 f   libvcruntimed:telemetry.obj
 0001:0000c000       ?invalid_function_sentinel@@YAPEAXXZ 000000018000d000 f   libucrtd:winapi_thunks.obj
 0001:0000c000       ?invalid_function_sentinel@@YAPEAXXZ 000000018000d000 f   libvcruntimed:winapi_downlevel.obj
 0001:0000c010       ?try_get_EventRegister@@YAP6AKPEBU_GUID@@P6AX0KE_K1PEAU_EVENT_FILTER_DESCRIPTOR@@PEAX@Z3PEA_K@ZXZ 000000018000d010 f   libvcruntimed:winapi_downlevel.obj
 0001:0000c040       ?try_get_EventSetInformation@@YAP6AK_KW4_EVENT_INFO_CLASS@@PEAXK@ZXZ 000000018000d040 f   libvcruntimed:winapi_downlevel.obj
 0001:0000c070       ?try_get_EventUnregister@@YAP6AK_K@ZXZ 000000018000d070 f   libvcruntimed:winapi_downlevel.obj
 0001:0000c0a0       ?try_get_EventWriteTransfer@@YAP6AK_KPEBU_EVENT_DESCRIPTOR@@PEBU_GUID@@2KPEAU_EVENT_DATA_DESCRIPTOR@@@ZXZ 000000018000d0a0 f   libvcruntimed:winapi_downlevel.obj
 0001:0000c0d0       ?try_get_FlsAlloc@@YAP6AKP6AXPEAX@Z@ZXZ 000000018000d0d0 f   libvcruntimed:winapi_downlevel.obj
 0001:0000c100       ?try_get_FlsFree@@YAP6AHK@ZXZ 000000018000d100 f   libvcruntimed:winapi_downlevel.obj
 0001:0000c130       ?try_get_FlsGetValue@@YAP6APEAXK@ZXZ 000000018000d130 f   libvcruntimed:winapi_downlevel.obj
 0001:0000c160       ?try_get_FlsSetValue@@YAP6AHKPEAX@ZXZ 000000018000d160 f   libvcruntimed:winapi_downlevel.obj
 0001:0000c190       ?try_get_InitializeCriticalSectionEx@@YAP6AHPEAU_RTL_CRITICAL_SECTION@@KK@ZXZ 000000018000d190 f   libvcruntimed:winapi_downlevel.obj
 0001:0000c1c0       ?try_get_first_available_module@@YAPEAUHINSTANCE__@@QEBW4module_id@?A0xece66f1d@@0@Z 000000018000d1c0 f   libvcruntimed:winapi_downlevel.obj
 0001:0000c220       ?try_get_function@@YAPEAXW4function_id@?A0xece66f1d@@QEBDQEBW4module_id@2@2@Z 000000018000d220 f   libvcruntimed:winapi_downlevel.obj
 0001:0000c3c0       ?try_get_module@@YAPEAUHINSTANCE__@@W4module_id@?A0xece66f1d@@@Z 000000018000d3c0 f   libvcruntimed:winapi_downlevel.obj
 0001:0000c520       ?try_get_proc_address_from_first_available_module@@YAPEAXQEBDQEBW4module_id@?A0xece66f1d@@1@Z 000000018000d520 f   libvcruntimed:winapi_downlevel.obj
 0001:0000c570       ?try_load_library_from_system_directory@@YAPEAUHINSTANCE__@@QEB_W@Z 000000018000d570 f   libucrtd:winapi_thunks.obj
 0001:0000c570       ?try_load_library_from_system_directory@@YAPEAUHINSTANCE__@@QEB_W@Z 000000018000d570 f   libvcruntimed:winapi_downlevel.obj
 0001:0000ca40       $$000000                   000000018000da40     libvcruntimed:_jmpuwind_.obj
 0001:0000cbd0       ?store_and_initialize_ptd@@YA_NQEAU__vcrt_ptd@@@Z 000000018000dbd0 f   libvcruntimed:per_thread_data.obj
 0001:0000d300       ?xcptlookup@@YAPEAU__crt_signal_action_t@@KQEAU1@@Z 000000018000e300 f   libucrtd:exception_filter.obj
 0001:0000d628       $LN25                      000000018000e628     libucrtd:exception_filter.obj
 0001:0000d6e0       ?atexit_exception_filter@@YAHK@Z 000000018000e6e0 f   libucrtd:exit.obj
 0001:0000d780       ?common_exit@@YAXHW4_crt_exit_cleanup_mode@@W4_crt_exit_return_mode@@@Z 000000018000e780 f   libucrtd:exit.obj
 0001:0000d8d0       ?exit_or_terminate_process@@YAXI@Z 000000018000e8d0 f   libucrtd:exit.obj
 0001:0000d920       ?is_managed_app@@YA_NXZ    000000018000e920 f   libucrtd:exit.obj
 0001:0000d9d0       ?should_call_terminate_process@@YA_NXZ 000000018000e9d0 f   libucrtd:exit.obj
 0001:0000da30       ?try_cor_exit_process@@YAXI@Z 000000018000ea30 f   libucrtd:exit.obj
 0001:0000db58       ??$common_initialize_environment_nolock@D@@YAHXZ 000000018000eb58 f   libucrtd:environment_initialization.obj
 0001:0000dbd0       ??$create_environment@D@@YAQEAPEADQEAD@Z 000000018000ebd0 f   libucrtd:environment_initialization.obj
 0001:0000dd20       ??$free_environment@D@@YAXQEAPEAD@Z 000000018000ed20 f   libucrtd:environment_initialization.obj
 0001:0000dd20       ??$free_environment@_W@@YAXQEAPEA_W@Z 000000018000ed20 f   libucrtd:environment_initialization.obj
 0001:0000dd68       ??$uninitialize_environment_internal@D@@YAXAEAPEAPEAD@Z 000000018000ed68 f   libucrtd:environment_initialization.obj
 0001:0000dd84       ??$uninitialize_environment_internal@_W@@YAXAEAPEAPEA_W@Z 000000018000ed84 f   libucrtd:environment_initialization.obj
 0001:0000dfc0       ??R<lambda_942beefa13ab35ff55f86422493ffd6a>@@QEBAHXZ 000000018000efc0 f   libucrtd:onexit.obj
 0001:0000e2d0       ??R<lambda_e971338317bfa523bb8920b43d823727>@@QEBAHXZ 000000018000f2d0 f   libucrtd:onexit.obj
 0001:0000e600       initialize_global_variables 000000018000f600 f   libucrtd:initialization.obj
 0001:0000e620       initialize_c               000000018000f620 f   libucrtd:initialization.obj
 0001:0000e650       initialize_environment     000000018000f650 f   libucrtd:initialization.obj
 0001:0000e650       initialize_global_state_isolation 000000018000f650 f   libucrtd:initialization.obj
 0001:0000e660       uninitialize_environment   000000018000f660 f   libucrtd:initialization.obj
 0001:0000e690       uninitialize_global_state_isolation 000000018000f690 f   libucrtd:initialization.obj
 0001:0000e690       uninitialize_c             000000018000f690 f   libucrtd:initialization.obj
 0001:0000e6a0       initialize_pointers        000000018000f6a0 f   libucrtd:initialization.obj
 0001:0000e700       uninitialize_vcruntime     000000018000f700 f   libucrtd:initialization.obj
 0001:0000e720       uninitialize_allocated_memory 000000018000f720 f   libucrtd:initialization.obj
 0001:0000e7f0       report_memory_leaks        000000018000f7f0 f   libucrtd:initialization.obj
 0001:0000e960       $$000000                   000000018000f960     libucrtd:strlen.obj
 0001:0000eb90       ?block_from_header@@YAPEAEQEAU_CrtMemBlockHeader@@@Z 000000018000fb90 f   libucrtd:debug_heap.obj
 0001:0000eba0       ?check_block@@YA_NQEAU_CrtMemBlockHeader@@@Z 000000018000fba0 f   libucrtd:debug_heap.obj
 0001:0000ef60       ?check_bytes@@YA_NQEBEE_K@Z 000000018000ff60 f   libucrtd:debug_heap.obj
 0001:0000efd0       ?dump_all_object_since_nolock@@YAXQEBU_CrtMemState@@@Z 000000018000ffd0 f   libucrtd:debug_heap.obj
 0001:0000f3a0       ?free_dbg_nolock@@YAXQEAXH@Z 00000001800103a0 f   libucrtd:debug_heap.obj
 0001:0000fa00       ?header_from_block@@YAPEAU_CrtMemBlockHeader@@QEBX@Z 0000000180010a00 f   libucrtd:debug_heap.obj
 0001:0000fa10       ?heap_alloc_dbg@@YAPEAX_KHQEBDH@Z 0000000180010a10 f   libucrtd:debug_heap.obj
 0001:0000fab0       ?heap_alloc_dbg_internal@@YAPEAX_KHQEBDH@Z 0000000180010ab0 f   libucrtd:debug_heap.obj
 0001:0000fef0       ?is_bad_read_pointer@@YA_NQEBX_K@Z 0000000180010ef0 f   libucrtd:debug_heap.obj
 0001:00010000       ?is_block_an_aligned_allocation@@YA_NQEBX@Z 0000000180011000 f   libucrtd:debug_heap.obj
 0001:00010040       ?is_block_type_valid@@YA_NH@Z 0000000180011040 f   libucrtd:debug_heap.obj
 0001:00010090       ?print_block_data@@YAXQEAU__crt_locale_pointers@@QEAU_CrtMemBlockHeader@@@Z 0000000180011090 f   libucrtd:debug_heap.obj
 0001:000102b0       ?realloc_dbg_nolock@@YAPEAXQEAXQEA_KHQEBDH_N@Z 00000001800112b0 f   libucrtd:debug_heap.obj
 0001:00010ad0       ?validate_heap_if_required_nolock@@YAXXZ 0000000180011ad0 f   libucrtd:debug_heap.obj
 0001:00011850       ??$common_tcscpy_s@D@@YAHQEAD_KQEBD@Z 0000000180012850 f   libucrtd:strcpy_s.obj
 0001:00011d50       $$000000                   0000000180012d50     libucrtd:strcmp.obj
 0001:00011dd0       init_memcpy_functions      0000000180012dd0 f i libvcruntimed:initialization.obj
 0001:00011de0       ??$common_message_window@D@@YAHHQEAXQEBD111@Z 0000000180012de0 f   libucrtd:dbgrpt.obj
 0001:00012490       ??$common_message_window@_W@@YAHHQEAXQEB_W111@Z 0000000180013490 f   libucrtd:dbgrpt.obj
 0001:00012cd0       ?get_output_message_format@@YAPEB_WD@Z 0000000180013cd0 f   libucrtd:dbgrpt.obj
 0001:00012ce0       ?get_output_message_format@@YAPEB_W_W@Z 0000000180013ce0 f   libucrtd:dbgrpt.obj
 0001:00012cf0       ?get_program_name_unknown_text@@YAPEBDD@Z 0000000180013cf0 f   libucrtd:dbgrpt.obj
 0001:00012d00       ?get_program_name_unknown_text@@YAPEB_W_W@Z 0000000180013d00 f   libucrtd:dbgrpt.obj
 0001:000131a0       ??$common_vsnprintf_s@D@@YAH_KQEAD00QEBDQEAU__crt_locale_pointers@@1@Z 00000001800141a0 f   libucrtd:output.obj
 0001:00013760       ??$common_vsnprintf_s@_W@@YAH_KQEA_W00QEB_WQEAU__crt_locale_pointers@@QEAD@Z 0000000180014760 f   libucrtd:output.obj
 0001:00013d30       ??$common_vsprintf@Vformat_validation_base@__crt_stdio_output@@D@@YAH_KQEAD0QEBDQEAU__crt_locale_pointers@@1@Z 0000000180014d30 f   libucrtd:output.obj
 0001:00014210       ??$common_vsprintf@Vformat_validation_base@__crt_stdio_output@@_W@@YAH_KQEA_W0QEB_WQEAU__crt_locale_pointers@@QEAD@Z 0000000180015210 f   libucrtd:output.obj
 0001:000146e0       ??$common_vsprintf_s@D@@YAH_KQEAD0QEBDQEAU__crt_locale_pointers@@1@Z 00000001800156e0 f   libucrtd:output.obj
 0001:0001678c       $LN30                      000000018001778c     libucrtd:output.obj
 0001:00016aec       $LN30                      0000000180017aec     libucrtd:output.obj
 0001:000175c8       $LN37                      00000001800185c8     libucrtd:output.obj
 0001:000175f0       $LN36                      00000001800185f0     libucrtd:output.obj
 0001:00017a48       $LN37                      0000000180018a48     libucrtd:output.obj
 0001:00017a70       $LN36                      0000000180018a70     libucrtd:output.obj
 0001:00017ed4       $LN38                      0000000180018ed4     libucrtd:output.obj
 0001:00017f04       $LN37                      0000000180018f04     libucrtd:output.obj
 0001:0001839c       $LN38                      000000018001939c     libucrtd:output.obj
 0001:000183cc       $LN37                      00000001800193cc     libucrtd:output.obj
 0001:000185d0       $LN17                      00000001800195d0     libucrtd:output.obj
 0001:0001c600       _call_matherr              000000018001d600 f   libucrtd:libm_error.obj
 0001:0001c690       _exception_enabled         000000018001d690 f   libucrtd:libm_error.obj
 0001:0001ce40       ??0<lambda_dfb8eca1e75fef3034a8fb18dd509707>@@QEAA@AEBW4__acrt_lock_id@@@Z 000000018001de40 f   libucrtd:per_thread_data.obj
 0001:0001ce40       ??0<lambda_341c25c0346d94847f1f3c463c57e077>@@QEAA@AEBW4__acrt_lock_id@@@Z 000000018001de40 f   libucrtd:per_thread_data.obj
 0001:0001ce40       ??0<lambda_b0b8599c9027f5b14541fbbd6863d1f1>@@QEAA@AEBW4__acrt_lock_id@@@Z 000000018001de40 f   libucrtd:onexit.obj
 0001:0001ce40       ??0<lambda_8773731b9ba2edf4362dda13ebc82854>@@QEAA@AEBW4__acrt_lock_id@@@Z 000000018001de40 f   libucrtd:per_thread_data.obj
 0001:0001ce40       ??0<lambda_4f1f1a84956f0d44b74de224c960ff76>@@QEAA@AEBH@Z 000000018001de40 f   libucrtd:close.obj
 0001:0001ce40       ??0<lambda_7adb6fc9c0d6a5bd4e2d9c212ec7cdcc>@@QEAA@AEBW4__acrt_lock_id@@@Z 000000018001de40 f   libucrtd:onexit.obj
 0001:0001ce40       ??0<lambda_dc9d2797ccde5d239b4a0efae8ebd7db>@@QEAA@AEBW4__acrt_lock_id@@@Z 000000018001de40 f   libucrtd:signal.obj
 0001:0001ce40       ??0<lambda_1d10a5a8ccb596b49763520e59d5af47>@@QEAA@AEBW4__acrt_lock_id@@@Z 000000018001de40 f   libucrtd:mbctype.obj
 0001:0001ce40       ??0<lambda_c36588078e9f5dfd39652860aa6b3aaf>@@QEAA@AEBW4__acrt_lock_id@@@Z 000000018001de40 f   libucrtd:signal.obj
 0001:0001ce40       ??0<lambda_b0d8f1f77f5878de4f648f281b223c15>@@QEAA@AEBW4__acrt_lock_id@@@Z 000000018001de40 f   libucrtd:onexit.obj
 0001:0001ce40       ??0<lambda_2ce24b26f23dade10250ef086380d911>@@QEAA@AEBH@Z 000000018001de40 f   libucrtd:commit.obj
 0001:0001ce40       ??0<lambda_72d1df2b273a38828b1ce30cbf4cdab5>@@QEAA@AEBW4__acrt_lock_id@@@Z 000000018001de40 f   libucrtd:per_thread_data.obj
 0001:0001ce40       ??0<lambda_6262c464c96e4c69799ed44814c7c457>@@QEAA@AEBH@Z 000000018001de40 f   libucrtd:commit.obj
 0001:0001ce40       ??0<lambda_441f2315ac0f593d45428a8fceb6abe6>@@QEAA@AEBW4__acrt_lock_id@@@Z 000000018001de40 f   libucrtd:mbctype.obj
 0001:0001ce40       ??0<lambda_5e887d1dcbef67a5eb4283622ba103bf>@@QEAA@AEBW4__acrt_lock_id@@@Z 000000018001de40 f   libucrtd:per_thread_data.obj
 0001:0001ce40       ??0<lambda_2c95662d60720604e97e3009a1ee1859>@@QEAA@AEBW4__acrt_lock_id@@@Z 000000018001de40 f   libucrtd:per_thread_data.obj
 0001:0001ce40       ??0<lambda_fb3a7dec4e47f37f22dae91bb15c9095>@@QEAA@AEBW4__acrt_lock_id@@@Z 000000018001de40 f   libucrtd:per_thread_data.obj
 0001:0001ce40       ??0<lambda_d22e02de4d14401f49897516b29a2b7c>@@QEAA@AEBW4__acrt_lock_id@@@Z 000000018001de40 f   libucrtd:onexit.obj
 0001:0001ce40       ??0<lambda_41932305e351933ebe8f8be3ed8bb5dc>@@QEAA@AEBW4__acrt_lock_id@@@Z 000000018001de40 f   libucrtd:per_thread_data.obj
 0001:0001ce40       ??0<lambda_f6ca65dda28655a1cf758c1c4e38e52a>@@QEAA@AEBH@Z 000000018001de40 f   libucrtd:close.obj
 0001:0001ce60       ??0<lambda_4466841279450cc726390878d4a41900>@@QEAA@AEBQEAU__acrt_ptd@@AEBQEAPEAU__crt_locale_data@@@Z 000000018001de60 f   libucrtd:per_thread_data.obj
 0001:0001ce60       ??0<lambda_942beefa13ab35ff55f86422493ffd6a>@@QEAA@AEBQEAU_onexit_table_t@@AEBQ6AHXZ@Z 000000018001de60 f   libucrtd:onexit.obj
 0001:0001ce90       ??0<lambda_6ac21da2756cd333d25ba1adc9a0001e>@@QEAA@AEBQEAU__acrt_ptd@@@Z 000000018001de90 f   libucrtd:per_thread_data.obj
 0001:0001ce90       ??0<lambda_e9ab68cc08dfd839979545c079379e6e>@@QEAA@AEBH@Z 000000018001de90 f   libucrtd:commit.obj
 0001:0001ce90       ??0<lambda_698284760c8add0bfb0756c19673e34b>@@QEAA@AEBQEAU__acrt_ptd@@@Z 000000018001de90 f   libucrtd:per_thread_data.obj
 0001:0001ce90       ??0<lambda_e971338317bfa523bb8920b43d823727>@@QEAA@AEBQEAU_onexit_table_t@@@Z 000000018001de90 f   libucrtd:onexit.obj
 0001:0001ce90       ??0<lambda_2f900415df1f7f624cdaaefe86d0b1c0>@@QEAA@AEBQEAU__acrt_ptd@@@Z 000000018001de90 f   libucrtd:mbctype.obj
 0001:0001ce90       ??0<lambda_a8f98972ebaa5f7148d35bffe53bd70d>@@QEAA@AEBH@Z 000000018001de90 f   libucrtd:close.obj
 0001:0001ce90       ??0<lambda_876a65b173b8412d3a47c70a915b0cf4>@@QEAA@AEBQEAU__acrt_ptd@@@Z 000000018001de90 f   libucrtd:per_thread_data.obj
 0001:0001cf10       ??R<lambda_4466841279450cc726390878d4a41900>@@QEBAXXZ 000000018001df10 f   libucrtd:per_thread_data.obj
 0001:0001cf40       ??R<lambda_698284760c8add0bfb0756c19673e34b>@@QEBAXXZ 000000018001df40 f   libucrtd:per_thread_data.obj
 0001:0001cf60       ??R<lambda_6ac21da2756cd333d25ba1adc9a0001e>@@QEBAXXZ 000000018001df60 f   libucrtd:per_thread_data.obj
 0001:0001cfd0       ??R<lambda_876a65b173b8412d3a47c70a915b0cf4>@@QEBAXXZ 000000018001dfd0 f   libucrtd:per_thread_data.obj
 0001:0001cff0       ?construct_ptd@@YAXQEAU__acrt_ptd@@QEAPEAU__crt_locale_data@@@Z 000000018001dff0 f   libucrtd:per_thread_data.obj
 0001:0001d0d0       ?construct_ptd_array@@YAXQEAU__acrt_ptd@@@Z 000000018001e0d0 f   libucrtd:per_thread_data.obj
 0001:0001d150       ?destroy_fls@@YAXPEAX@Z    000000018001e150 f   libucrtd:per_thread_data.obj
 0001:0001d190       ?destroy_ptd@@YAXQEAU__acrt_ptd@@@Z 000000018001e190 f   libucrtd:per_thread_data.obj
 0001:0001d2b0       ?destroy_ptd_array@@YAXQEAU__acrt_ptd@@@Z 000000018001e2b0 f   libucrtd:per_thread_data.obj
 0001:0001d300       ?get_ptd_head@@YAPEAU__acrt_ptd@@XZ 000000018001e300 f   libucrtd:per_thread_data.obj
 0001:0001d3f0       ?internal_getptd_noexit@@YAPEAU__acrt_ptd@@XZ 000000018001e3f0 f   libucrtd:per_thread_data.obj
 0001:0001d4a0       ?replace_current_thread_locale_nolock@@YAXQEAU__acrt_ptd@@QEAU__crt_locale_data@@@Z 000000018001e4a0 f   libucrtd:per_thread_data.obj
 0001:0001d560       ?try_get_ptd_head@@YAPEAU__acrt_ptd@@XZ 000000018001e560 f   libucrtd:per_thread_data.obj
 0001:0001d7e0       ?try_get_FlsAlloc@@YAP6AKP6AXPEAX@Z@ZXZ 000000018001e7e0 f   libucrtd:winapi_thunks.obj
 0001:0001d810       ?try_get_FlsFree@@YAP6AHK@ZXZ 000000018001e810 f   libucrtd:winapi_thunks.obj
 0001:0001d840       ?try_get_FlsGetValue@@YAP6APEAXK@ZXZ 000000018001e840 f   libucrtd:winapi_thunks.obj
 0001:0001d870       ?try_get_FlsSetValue@@YAP6AHKPEAX@ZXZ 000000018001e870 f   libucrtd:winapi_thunks.obj
 0001:0001d8a0       ?try_get_GetActiveWindow@@YAP6APEAUHWND__@@XZXZ 000000018001e8a0 f   libucrtd:winapi_thunks.obj
 0001:0001d8d0       ?try_get_GetCurrentPackageId@@YAP6AJPEAIPEAE@ZXZ 000000018001e8d0 f   libucrtd:winapi_thunks.obj
 0001:0001d900       ?try_get_GetLastActivePopup@@YAP6APEAUHWND__@@PEAU1@@ZXZ 000000018001e900 f   libucrtd:winapi_thunks.obj
 0001:0001d930       ?try_get_GetProcessWindowStation@@YAP6APEAUHWINSTA__@@XZXZ 000000018001e930 f   libucrtd:winapi_thunks.obj
 0001:0001d960       ?try_get_GetUserObjectInformationW@@YAP6AHPEAXH0KPEAK@ZXZ 000000018001e960 f   libucrtd:winapi_thunks.obj
 0001:0001d990       ?try_get_InitializeCriticalSectionEx@@YAP6AHPEAU_RTL_CRITICAL_SECTION@@KK@ZXZ 000000018001e990 f   libucrtd:winapi_thunks.obj
 0001:0001d9c0       ?try_get_LCMapStringEx@@YAP6AHPEB_WK0HPEA_WHPEAU_nlsversioninfo@@PEAX_J@ZXZ 000000018001e9c0 f   libucrtd:winapi_thunks.obj
 0001:0001d9f0       ?try_get_LocaleNameToLCID@@YAP6AKPEB_WK@ZXZ 000000018001e9f0 f   libucrtd:winapi_thunks.obj
 0001:0001da20       ?try_get_MessageBoxA@@YAP6AHPEAUHWND__@@PEBD1I@ZXZ 000000018001ea20 f   libucrtd:winapi_thunks.obj
 0001:0001da50       ?try_get_MessageBoxW@@YAP6AHPEAUHWND__@@PEB_W1I@ZXZ 000000018001ea50 f   libucrtd:winapi_thunks.obj
 0001:0001da80       ?try_get_first_available_module@@YAPEAUHINSTANCE__@@QEBW4module_id@?A0x1dd686d3@@0@Z 000000018001ea80 f   libucrtd:winapi_thunks.obj
 0001:0001dae0       ?try_get_function@@YAPEAXW4function_id@?A0x1dd686d3@@QEBDQEBW4module_id@2@2@Z 000000018001eae0 f   libucrtd:winapi_thunks.obj
 0001:0001dc80       ?try_get_module@@YAPEAUHINSTANCE__@@W4module_id@?A0x1dd686d3@@@Z 000000018001ec80 f   libucrtd:winapi_thunks.obj
 0001:0001dde0       ?try_get_proc_address_from_first_available_module@@YAPEAXQEBDQEBW4module_id@?A0x1dd686d3@@1@Z 000000018001ede0 f   libucrtd:winapi_thunks.obj
 0001:0001e5c0       capture_current_context    000000018001f5c0 f   LIBCMTD:gs_report.obj
 0001:0001e5c0       ?capture_current_context@@YAXQEAU_CONTEXT@@@Z 000000018001f5c0 f   libucrtd:invalid_parameter.obj
 0001:0001e950       ??$common_tcscpy_s@_W@@YAHQEA_W_KQEB_W@Z 000000018001f950 f   libucrtd:wcscpy_s.obj
 0001:0001ef10       ??R<lambda_7adb6fc9c0d6a5bd4e2d9c212ec7cdcc>@@QEBAXXZ 000000018001ff10 f   libucrtd:onexit.obj
 0001:0001ef10       ??R<lambda_41932305e351933ebe8f8be3ed8bb5dc>@@QEBAXXZ 000000018001ff10 f   libucrtd:per_thread_data.obj
 0001:0001ef10       ??R<lambda_dfb8eca1e75fef3034a8fb18dd509707>@@QEBAXXZ 000000018001ff10 f   libucrtd:per_thread_data.obj
 0001:0001ef10       ??R<lambda_341c25c0346d94847f1f3c463c57e077>@@QEBAXXZ 000000018001ff10 f   libucrtd:per_thread_data.obj
 0001:0001ef10       ??R<lambda_1d10a5a8ccb596b49763520e59d5af47>@@QEBAXXZ 000000018001ff10 f   libucrtd:mbctype.obj
 0001:0001ef10       ??R<lambda_dc9d2797ccde5d239b4a0efae8ebd7db>@@QEBAXXZ 000000018001ff10 f   libucrtd:signal.obj
 0001:0001ef10       ??R<lambda_2c95662d60720604e97e3009a1ee1859>@@QEBAXXZ 000000018001ff10 f   libucrtd:per_thread_data.obj
 0001:0001ef10       ??R<lambda_b0b8599c9027f5b14541fbbd6863d1f1>@@QEBAXXZ 000000018001ff10 f   libucrtd:onexit.obj
 0001:0001ef30       ??R<lambda_2f900415df1f7f624cdaaefe86d0b1c0>@@QEBAXXZ 000000018001ff30 f   libucrtd:mbctype.obj
 0001:0001f090       ??R<lambda_fb3a7dec4e47f37f22dae91bb15c9095>@@QEBAXXZ 0000000180020090 f   libucrtd:per_thread_data.obj
 0001:0001f090       ??R<lambda_b0d8f1f77f5878de4f648f281b223c15>@@QEBAXXZ 0000000180020090 f   libucrtd:onexit.obj
 0001:0001f090       ??R<lambda_c36588078e9f5dfd39652860aa6b3aaf>@@QEBAXXZ 0000000180020090 f   libucrtd:signal.obj
 0001:0001f090       ??R<lambda_441f2315ac0f593d45428a8fceb6abe6>@@QEBAXXZ 0000000180020090 f   libucrtd:mbctype.obj
 0001:0001f090       ??R<lambda_8773731b9ba2edf4362dda13ebc82854>@@QEBAXXZ 0000000180020090 f   libucrtd:per_thread_data.obj
 0001:0001f090       ??R<lambda_72d1df2b273a38828b1ce30cbf4cdab5>@@QEBAXXZ 0000000180020090 f   libucrtd:per_thread_data.obj
 0001:0001f090       ??R<lambda_d22e02de4d14401f49897516b29a2b7c>@@QEBAXXZ 0000000180020090 f   libucrtd:onexit.obj
 0001:0001f090       ??R<lambda_5e887d1dcbef67a5eb4283622ba103bf>@@QEBAXXZ 0000000180020090 f   libucrtd:per_thread_data.obj
 0001:0001f0b0       ?CPtoLocaleName@@YAPEB_WH@Z 00000001800200b0 f   libucrtd:mbctype.obj
 0001:0001f150       ?getSystemCP@@YAHH@Z       0000000180020150 f   libucrtd:mbctype.obj
 0001:0001f260       ?setSBCS@@YAXPEAU__crt_multibyte_data@@@Z 0000000180020260 f   libucrtd:mbctype.obj
 0001:0001f360       ?setSBUpLow@@YAXPEAU__crt_multibyte_data@@@Z 0000000180020360 f   libucrtd:mbctype.obj
 0001:0001f740       ?setmbcp_internal@@YAHH_N@Z 0000000180020740 f   libucrtd:mbctype.obj
 0001:00020070       ?get_std_handle_id@@YAKH@Z 0000000180021070 f   libucrtd:ioinit.obj
 0001:000200c0       ?initialize_inherited_file_handles_nolock@@YAXXZ 00000001800210c0 f   libucrtd:ioinit.obj
 0001:00020270       ?initialize_stdio_handles_nolock@@YAXXZ 0000000180021270 f   libucrtd:ioinit.obj
 0001:00020830       ??R<lambda_ec61778202f4f5fc7e7711acc23c3bca>@@QEBAP6AXH@ZXZ 0000000180021830 f   libucrtd:signal.obj
 0001:00020860       ?get_global_action_nolock@@YAPEAP6AXH@ZH@Z 0000000180021860 f   libucrtd:signal.obj
 0001:000208f0       ?siglookup@@YAPEAU__crt_signal_action_t@@HQEAU1@@Z 00000001800218f0 f   libucrtd:signal.obj
 0001:00020ea8       $LN48                      0000000180021ea8     libucrtd:signal.obj
 0001:00020eb4       $LN47                      0000000180021eb4     libucrtd:signal.obj
 0001:00021210       ?select_heap@@YAPEAXQEAX@Z 0000000180022210 f   libucrtd:free_base.obj
 0001:000216c0       ?is_lfh_enabled@@YA_NXZ    00000001800226c0 f   libucrtd:expand.obj
 0001:00023190       ??$common_show_message_box@_W@@YAHQEB_W0I@Z 0000000180024190 f   libucrtd:crtmbox.obj
 0001:000233d0       ??$message_box_wait_thread@_W@@YAKQEAX@Z 00000001800243d0 f   libucrtd:crtmbox.obj
 0001:00023580       ?issue_debug_notification@@YA_NQEB_W@Z 0000000180024580 f   libucrtd:report_runtime_error.obj
 0001:000235e0       ?should_write_error_to_console@@YA_NXZ 00000001800245e0 f   libucrtd:report_runtime_error.obj
 0001:00023620       ?write_string_to_console@@YAXQEB_W@Z 0000000180024620 f   libucrtd:report_runtime_error.obj
 0001:000239e0       ?fast_check@@YAHHH@Z       00000001800249e0 f   libucrtd:_ctype.obj
 0001:00023a90       ??$common_tox_l@$1?internal_isupper_l@@YA_NHQEAU__crt_locale_pointers@@@Z$1?internal_map_lower@@YAHH0@Z@@YAHHKQEAU__crt_locale_pointers@@@Z 0000000180024a90 f   libucrtd:tolower_toupper.obj
 0001:00023db0       ?internal_isupper_l@@YA_NHQEAU__crt_locale_pointers@@@Z 0000000180024db0 f   libucrtd:tolower_toupper.obj
 0001:00023df0       ?internal_map_lower@@YAHHQEAU__crt_locale_pointers@@@Z 0000000180024df0 f   libucrtd:tolower_toupper.obj
 0001:00024840       ??$common_strnlen@E@@YA_KQEBE_K@Z 0000000180025840 f   libucrtd:strnlen.obj
 0001:000248a0       ??$common_strnlen@G@@YA_KQEBG_K@Z 00000001800258a0 f   libucrtd:strnlen.obj
 0001:00024900       ??$common_strnlen_c@E@@YA_KQEBE_K@Z 0000000180025900 f   libucrtd:strnlen.obj
 0001:00024970       ??$common_strnlen_c@G@@YA_KQEBG_K@Z 0000000180025970 f   libucrtd:strnlen.obj
 0001:000249e0       ??$common_strnlen_simd@$00E@@YA_KQEBE_K@Z 00000001800259e0 f   libucrtd:strnlen.obj
 0001:00024c50       ??$common_strnlen_simd@$00G@@YA_KQEBG_K@Z 0000000180025c50 f   libucrtd:strnlen.obj
 0001:00024ee0       ??$common_strnlen_simd@$0A@E@@YA_KQEBE_K@Z 0000000180025ee0 f   libucrtd:strnlen.obj
 0001:000251a0       ??$common_strnlen_simd@$0A@G@@YA_KQEBG_K@Z 00000001800261a0 f   libucrtd:strnlen.obj
 0001:000257c0       ?fp_format_a@@YAHQEBNPEAD_KQEAD2H_NIQEAU__crt_locale_pointers@@@Z 00000001800267c0 f   libucrtd:cvt.obj
 0001:00026060       ?fp_format_e@@YAHQEBNQEAD_K12H_NIQEAU__crt_locale_pointers@@@Z 0000000180027060 f   libucrtd:cvt.obj
 0001:00026210       ?fp_format_e_internal@@YAHQEAD_KH_NIQEAU_strflt@@2QEAU__crt_locale_pointers@@@Z 0000000180027210 f   libucrtd:cvt.obj
 0001:00026640       ?fp_format_f@@YAHQEBNQEAD_K12HQEAU__crt_locale_pointers@@@Z 0000000180027640 f   libucrtd:cvt.obj
 0001:00026790       ?fp_format_f_internal@@YAHQEAD_KHQEAU_strflt@@_NQEAU__crt_locale_pointers@@@Z 0000000180027790 f   libucrtd:cvt.obj
 0001:000269e0       ?fp_format_g@@YAHQEBNQEAD_K12H_NIQEAU__crt_locale_pointers@@@Z 00000001800279e0 f   libucrtd:cvt.obj
 0001:00026c20       ?fp_format_nan_or_infinity@@YAHW4__acrt_fp_class@@_NPEAD_K1@Z 0000000180027c20 f   libucrtd:cvt.obj
 0001:00026ea0       ?shift_bytes@@YAXQEAD_K0H@Z 0000000180027ea0 f   libucrtd:cvt.obj
 0001:0002749c       $LN34                      000000018002849c     libucrtd:cvt.obj
 0001:000274b0       $LN33                      00000001800284b0     libucrtd:cvt.obj
 0001:000279b0       __get_machine_status       00000001800289b0 f   libucrtd:_fenvutils.obj
 0001:00028c40       ?GetTableIndexFromLocaleName@@YAHPEB_W@Z 0000000180029c40 f   libucrtd:lcidtoname_downlevel.obj
 0001:00028cf0       ?__wcsnicmp_ascii@@YAHPEB_W0_K@Z 0000000180029cf0 f   libucrtd:lcidtoname_downlevel.obj
 0001:00028e60       ?initialize_multibyte@@YAHXZ 0000000180029e60 f   libucrtd:multibyte_initializer.obj
 0001:00029220       ?__acrt_LCMapStringA_stat@@YAHPEAU__crt_locale_pointers@@PEB_WKPEBDHPEADHHH@Z 000000018002a220 f   libucrtd:lcmapstringa.obj
 0001:0002a410       common_flush_all           000000018002b410 f   libucrtd:fflush.obj
 0001:0002a9c0       ??$free_crt_array@_W$01@@YAXAEAY01PEA_W@Z 000000018002b9c0 f   libucrtd:inittime.obj
 0001:0002a9c0       ??$free_crt_array@D$01@@YAXAEAY01PEAD@Z 000000018002b9c0 f   libucrtd:inittime.obj
 0001:0002a9e0       ??$free_crt_array@D$06@@YAXAEAY06PEAD@Z 000000018002b9e0 f   libucrtd:inittime.obj
 0001:0002a9e0       ??$free_crt_array@_W$06@@YAXAEAY06PEA_W@Z 000000018002b9e0 f   libucrtd:inittime.obj
 0001:0002aa00       ??$free_crt_array@_W$0M@@@YAXAEAY0M@PEA_W@Z 000000018002ba00 f   libucrtd:inittime.obj
 0001:0002aa00       ??$free_crt_array@D$0M@@@YAXAEAY0M@PEAD@Z 000000018002ba00 f   libucrtd:inittime.obj
 0001:0002aa20       ?free_crt_array_internal@@YAXQEAPEBX_K@Z 000000018002ba20 f   libucrtd:inittime.obj
 0001:0002abf0       ??$common_tcscat_s@_W@@YAHQEA_W_KQEB_W@Z 000000018002bbf0 f   libucrtd:wcscat_s.obj
 0001:0002b2a0       ??$common_tcsncpy_s@_W@@YAHQEA_W_KQEB_W1@Z 000000018002c2a0 f   libucrtd:wcsncpy_s.obj
 0001:0002b970       ??$common_xtox@KD@@YAHKQEAD_KI_N@Z 000000018002c970 f   libucrtd:xtoa.obj
 0001:0002bbb0       ??$common_xtox@K_W@@YAHKQEA_W_KI_N@Z 000000018002cbb0 f   libucrtd:xtoa.obj
 0001:0002be00       ??$common_xtox_s@KD@@YAHKQEAD_KI_N@Z 000000018002ce00 f   libucrtd:xtoa.obj
 0001:0002c1b0       ??$common_xtox_s@K_W@@YAHKQEA_W_KI_N@Z 000000018002d1b0 f   libucrtd:xtoa.obj
 0001:0002c620       ?_mbstowcs_l_helper@@YA_KPEA_WPEBD_KPEAU__crt_locale_pointers@@@Z 000000018002d620 f   libucrtd:mbstowcs.obj
 0001:0002d1b0       ?_wcstombs_l_helper@@YA_KPEADPEB_W_KPEAU__crt_locale_pointers@@@Z 000000018002e1b0 f   libucrtd:wcstombs.obj
 0001:0002d9f0       ?wcsncnt@@YA_KPEB_W_K@Z    000000018002e9f0 f   libucrtd:wcstombs.obj
 0001:0002e010       ??$common_tcscat_s@D@@YAHQEAD_KQEBD@Z 000000018002f010 f   libucrtd:strcat_s.obj
 0001:0002ec00       ??$convert_to_fos_high_precision@N@@YAXNIQEAHQEAD_K@Z 000000018002fc00 f   libucrtd:cfout.obj
 0001:00030e20       memcpy_s                   0000000180031e20 f   libucrtd:mbctype.obj
 0001:00030e20       memcpy_s                   0000000180031e20 f   libucrtd:cfout.obj
 0001:00031170       _abstract_cw               0000000180032170 f   libucrtd:ieee.obj
 0001:000312c0       _abstract_sw               00000001800322c0 f   libucrtd:ieee.obj
 0001:000313b0       _hw_cw                     00000001800323b0 f   libucrtd:ieee.obj
 0001:00031520       common_control87           0000000180032520 f   libucrtd:ieee.obj
 0001:00031640       $$000000                   0000000180032640     libucrtd:fpsr.obj
 0001:000317c0       ??R<lambda_6262c464c96e4c69799ed44814c7c457>@@QEBAXXZ 00000001800327c0 f   libucrtd:commit.obj
 0001:000317c0       ??R<lambda_f6ca65dda28655a1cf758c1c4e38e52a>@@QEBAXXZ 00000001800327c0 f   libucrtd:close.obj
 0001:000317e0       ??R<lambda_e9ab68cc08dfd839979545c079379e6e>@@QEBAHXZ 00000001800327e0 f   libucrtd:commit.obj
 0001:00031a80       ?write_binary_nolock@@YA?AUwrite_result@?A0x4392dfaa@@HQEBDI@Z 0000000180032a80 f   libucrtd:write.obj
 0001:00031b60       ?write_double_translated_ansi_nolock@@YA?AUwrite_result@?A0x4392dfaa@@HQEBDI@Z 0000000180032b60 f   libucrtd:write.obj
 0001:00032160       ?write_double_translated_unicode_nolock@@YA?AUwrite_result@?A0x4392dfaa@@QEBDI@Z 0000000180033160 f   libucrtd:write.obj
 0001:000322c0       ?write_requires_double_translation_nolock@@YA_NH@Z 00000001800332c0 f   libucrtd:write.obj
 0001:000323e0       ?write_text_ansi_nolock@@YA?AUwrite_result@?A0x4392dfaa@@HQEBDI@Z 00000001800333e0 f   libucrtd:write.obj
 0001:00032610       ?write_text_utf16le_nolock@@YA?AUwrite_result@?A0x4392dfaa@@HQEBDI@Z 0000000180033610 f   libucrtd:write.obj
 0001:00032850       ?write_text_utf8_nolock@@YA?AUwrite_result@?A0x4392dfaa@@HQEBDI@Z 0000000180033850 f   libucrtd:write.obj
 0001:000333c0       $$000000                   00000001800343c0     libucrtd:log10.obj
 0001:00033c50       ??$common_lseek_nolock@_J@@YA_JH_JH@Z 0000000180034c50 f   libucrtd:lseek.obj
 0001:00033d60       ?common_lseek_do_seek_nolock@@YA_JQEAX_JH@Z 0000000180034d60 f   libucrtd:lseek.obj
 0001:00034210       _log_special_common        0000000180035210 f   libucrtd:log_special.obj
 0001:000343f0       ??R<lambda_4f1f1a84956f0d44b74de224c960ff76>@@QEBAXXZ 00000001800353f0 f   libucrtd:close.obj
 0001:000343f0       ??R<lambda_2ce24b26f23dade10250ef086380d911>@@QEBAXXZ 00000001800353f0 f   libucrtd:commit.obj
 0001:00034410       ??R<lambda_a8f98972ebaa5f7148d35bffe53bd70d>@@QEBAHXZ 0000000180035410 f   libucrtd:close.obj
 0001:000344c0       ?close_os_handle_nolock@@YAKH@Z 00000001800354c0 f   libucrtd:close.obj
 0001:00034b40       $$000000                   0000000180035b40     LIBCMTD:_chkstk_.obj
 0001:00034d70       $$000000                   0000000180035d70     libvcruntimed:memcpy.obj
 0001:00034e17       MoveSmall                  0000000180035e17     libvcruntimed:memcpy.obj
 0001:000351c0       $$000000                   00000001800361c0     libvcruntimed:memset.obj
 0001:000352ac       MsetTab                    00000001800362ac     libvcruntimed:memset.obj
 0001:00035370       $$000000                   0000000180036370     libvcruntimed:memcmp.obj
 0001:00035870       ?_CatchTryBlock@@YAPEBU_s_TryBlockMapEntry@@PEBU_s_FuncInfo@@H@Z 0000000180036870 f   libvcruntimed:trnsctrl.obj
 0001:00036810       ?CatchIt@@YAXPEAUEHExceptionRecord@@PEA_KPEAU_CONTEXT@@PEAU_xDISPATCHER_CONTEXT@@PEBU_s_FuncInfo@@PEBU_s_HandlerType@@PEBU_s_CatchableType@@PEBU_s_TryBlockMapEntry@@H1EE@Z 0000000180037810 f   libvcruntimed:frame.obj
 0001:000368f0       ?ExFilterRethrow@@YAHPEAU_EXCEPTION_POINTERS@@PEAUEHExceptionRecord@@PEAH@Z 00000001800378f0 f   libvcruntimed:frame.obj
 0001:000369f0       ?FindHandler@@YAXPEAUEHExceptionRecord@@PEA_KPEAU_CONTEXT@@PEAU_xDISPATCHER_CONTEXT@@PEBU_s_FuncInfo@@EH1@Z 00000001800379f0 f   libvcruntimed:frame.obj
 0001:00037210       ?FindHandlerForForeignException@@YAXPEAUEHExceptionRecord@@PEA_KPEAU_CONTEXT@@PEAU_xDISPATCHER_CONTEXT@@PEBU_s_FuncInfo@@HH1@Z 0000000180038210 f   libvcruntimed:frame.obj
 0001:00037580       ?IsInExceptionSpec@@YAEPEAUEHExceptionRecord@@PEBU_s_ESTypeList@@@Z 0000000180038580 f   libvcruntimed:frame.obj
 0001:00037690       ?Is_bad_exception_allowed@@YAEPEBU_s_ESTypeList@@@Z 0000000180038690 f   libvcruntimed:frame.obj
 0001:00037810       ?__RethrowException@@YAXPEAUEHExceptionRecord@@@Z 0000000180038810 f   libvcruntimed:frame.obj
 0001:00038a90       $$000000                   0000000180039a90     libvcruntimed:handlers.obj
 0001:00038e00       $$000000                   0000000180039e00     LIBCMTD:_guard_dispatch_.obj
 0001:00038e20       ?fin$0@?0??dllmain_crt_process_attach@@YAHQEAUHINSTANCE__@@QEAX@Z@4HA 0000000180039e20 f   LIBCMTD:dll_dllmain.obj
 0001:00038e40       ?fin$0@?0??dllmain_crt_process_detach@@YAH_N@Z@4HA 0000000180039e40 f   LIBCMTD:dll_dllmain.obj
 0001:00038e60       ?filt$0@?0??dllmain_dispatch@@YAHQEAUHINSTANCE__@@KQEAX@Z@4HA 0000000180039e60 f   LIBCMTD:dll_dllmain.obj
 0001:00038eb0       __scrt_is_nonwritable_in_current_image$filt$0 0000000180039eb0 f   LIBCMTD:utility.obj
 0001:00038ef0       ?filt$0@?0??common_exit@@YAXHW4_crt_exit_cleanup_mode@@W4_crt_exit_return_mode@@@Z@4HA 0000000180039ef0 f   libucrtd:exit.obj
 0001:00038f1b       ?fin$1@?0??common_exit@@YAXHW4_crt_exit_cleanup_mode@@W4_crt_exit_return_mode@@@Z@4HA 0000000180039f1b f   libucrtd:exit.obj
 0001:00038f40       ?fin$0@?0???$?RV<lambda_b0d8f1f77f5878de4f648f281b223c15>@@AEAV<lambda_942beefa13ab35ff55f86422493ffd6a>@@V<lambda_7adb6fc9c0d6a5bd4e2d9c212ec7cdcc>@@@?$__crt_seh_guarded_call@H@@QEAAH$$QEAV<lambda_b0d8f1f77f5878de4f648f281b223c15>@@AEAV<lambda_942beefa13ab35ff55f86422493ffd6a>@@$$QEAV<lambda_7adb6fc9c0d6a5bd4e2d9c212ec7cdcc>@@@Z@4HA 0000000180039f40 f   libucrtd:onexit.obj
 0001:00038f40       ?fin$0@?0???$?RV<lambda_c36588078e9f5dfd39652860aa6b3aaf>@@AEAV<lambda_ec61778202f4f5fc7e7711acc23c3bca>@@V<lambda_dc9d2797ccde5d239b4a0efae8ebd7db>@@@?$__crt_seh_guarded_call@P6AXH@Z@@QEAAP6AXH@Z$$QEAV<lambda_c36588078e9f5dfd39652860aa6b3aaf>@@AEAV<lambda_ec61778202f4f5fc7e7711acc23c3bca>@@$$QEAV<lambda_dc9d2797ccde5d239b4a0efae8ebd7db>@@@Z@4HA 0000000180039f40 f   libucrtd:signal.obj
 0001:00038f40       ?fin$0@?0???$?RV<lambda_d22e02de4d14401f49897516b29a2b7c>@@AEAV<lambda_e971338317bfa523bb8920b43d823727>@@V<lambda_b0b8599c9027f5b14541fbbd6863d1f1>@@@?$__crt_seh_guarded_call@H@@QEAAH$$QEAV<lambda_d22e02de4d14401f49897516b29a2b7c>@@AEAV<lambda_e971338317bfa523bb8920b43d823727>@@$$QEAV<lambda_b0b8599c9027f5b14541fbbd6863d1f1>@@@Z@4HA 0000000180039f40 f   libucrtd:onexit.obj
 0001:00038f60       _CrtMemCheckpoint$fin$0    0000000180039f60 f   libucrtd:debug_heap.obj
 0001:00038f60       ?fin$0@?0??heap_alloc_dbg_internal@@YAPEAX_KHQEBDH@Z@4HA 0000000180039f60 f   libucrtd:debug_heap.obj
 0001:00038f80       ?filt$0@?0??is_bad_read_pointer@@YA_NQEBX_K@Z@4HA 0000000180039f80 f   libucrtd:debug_heap.obj
 0001:00038f80       __BuildCatchObject$filt$0  0000000180039f80 f   libvcruntimed:frame.obj
 0001:00038f80       __BuildCatchObjectHelper$filt$0 0000000180039f80 f   libvcruntimed:frame.obj
 0001:00038f80       terminate$filt$0           0000000180039f80 f   libucrtd:terminate.obj
 0001:00038fa0       ?fin$0@?0??validate_heap_if_required_nolock@@YAXXZ@4HA 0000000180039fa0 f   libucrtd:debug_heap.obj
 0001:00038fc0       _msize_dbg$fin$0           0000000180039fc0 f   libucrtd:debug_heap.obj
 0001:00038fc0       _realloc_dbg$fin$0         0000000180039fc0 f   libucrtd:debug_heap.obj
 0001:00038fc0       _CrtSetDbgFlag$fin$0       0000000180039fc0 f   libucrtd:debug_heap.obj
 0001:00038fc0       _CrtCheckMemory$fin$0      0000000180039fc0 f   libucrtd:debug_heap.obj
 0001:00038fc0       _CrtMemDumpAllObjectsSince$fin$0 0000000180039fc0 f   libucrtd:debug_heap.obj
 0001:00038fe0       _free_dbg$fin$0            0000000180039fe0 f   libucrtd:debug_heap.obj
 0001:00038fe0       _query_new_handler$fin$0   0000000180039fe0 f   libucrtd:new_handler.obj
 0001:00039000       ?fin$0@?0???$?RV<lambda_8773731b9ba2edf4362dda13ebc82854>@@AEAV<lambda_6ac21da2756cd333d25ba1adc9a0001e>@@V<lambda_2c95662d60720604e97e3009a1ee1859>@@@?$__crt_seh_guarded_call@X@@QEAAX$$QEAV<lambda_8773731b9ba2edf4362dda13ebc82854>@@AEAV<lambda_6ac21da2756cd333d25ba1adc9a0001e>@@$$QEAV<lambda_2c95662d60720604e97e3009a1ee1859>@@@Z@4HA 000000018003a000 f   libucrtd:per_thread_data.obj
 0001:00039000       ?fin$0@?0???$?RV<lambda_441f2315ac0f593d45428a8fceb6abe6>@@AEAV<lambda_2f900415df1f7f624cdaaefe86d0b1c0>@@V<lambda_1d10a5a8ccb596b49763520e59d5af47>@@@?$__crt_seh_guarded_call@X@@QEAAX$$QEAV<lambda_441f2315ac0f593d45428a8fceb6abe6>@@AEAV<lambda_2f900415df1f7f624cdaaefe86d0b1c0>@@$$QEAV<lambda_1d10a5a8ccb596b49763520e59d5af47>@@@Z@4HA 000000018003a000 f   libucrtd:mbctype.obj
 0001:00039000       ?fin$0@?0???$?RV<lambda_72d1df2b273a38828b1ce30cbf4cdab5>@@AEAV<lambda_876a65b173b8412d3a47c70a915b0cf4>@@V<lambda_41932305e351933ebe8f8be3ed8bb5dc>@@@?$__crt_seh_guarded_call@X@@QEAAX$$QEAV<lambda_72d1df2b273a38828b1ce30cbf4cdab5>@@AEAV<lambda_876a65b173b8412d3a47c70a915b0cf4>@@$$QEAV<lambda_41932305e351933ebe8f8be3ed8bb5dc>@@@Z@4HA 000000018003a000 f   libucrtd:per_thread_data.obj
 0001:00039000       ?fin$0@?0???$?RV<lambda_5e887d1dcbef67a5eb4283622ba103bf>@@AEAV<lambda_4466841279450cc726390878d4a41900>@@V<lambda_341c25c0346d94847f1f3c463c57e077>@@@?$__crt_seh_guarded_call@X@@QEAAX$$QEAV<lambda_5e887d1dcbef67a5eb4283622ba103bf>@@AEAV<lambda_4466841279450cc726390878d4a41900>@@$$QEAV<lambda_341c25c0346d94847f1f3c463c57e077>@@@Z@4HA 000000018003a000 f   libucrtd:per_thread_data.obj
 0001:00039000       ?fin$0@?0???$?RV<lambda_fb3a7dec4e47f37f22dae91bb15c9095>@@AEAV<lambda_698284760c8add0bfb0756c19673e34b>@@V<lambda_dfb8eca1e75fef3034a8fb18dd509707>@@@?$__crt_seh_guarded_call@X@@QEAAX$$QEAV<lambda_fb3a7dec4e47f37f22dae91bb15c9095>@@AEAV<lambda_698284760c8add0bfb0756c19673e34b>@@$$QEAV<lambda_dfb8eca1e75fef3034a8fb18dd509707>@@@Z@4HA 000000018003a000 f   libucrtd:per_thread_data.obj
 0001:00039020       __acrt_update_thread_multibyte_data$fin$0 000000018003a020 f   libucrtd:mbctype.obj
 0001:00039040       __acrt_initialize_lowio$fin$0 000000018003a040 f   libucrtd:ioinit.obj
 0001:00039060       raise$fin$0                000000018003a060 f   libucrtd:signal.obj
 0001:00039090       _VCrtDbgReportA$fin$0      000000018003a090 f   libucrtd:dbgrptt.obj
 0001:000390ab       _VCrtDbgReportA$fin$1      000000018003a0ab f   libucrtd:dbgrptt.obj
 0001:000390d0       _VCrtDbgReportW$fin$0      000000018003a0d0 f   libucrtd:dbgrptt.obj
 0001:000390eb       _VCrtDbgReportW$fin$1      000000018003a0eb f   libucrtd:dbgrptt.obj
 0001:00039110       ?dtor$0@?0??fp_format_a@@YAHQEBNPEAD_KQEAD2H_NIQEAU__crt_locale_pointers@@@Z@4HA 000000018003a110 f   libucrtd:cvt.obj
 0001:00039130       _ctrlfp$filt$0             000000018003a130 f   libucrtd:fpctrl.obj
 0001:00039180       __acrt_uninitialize_locale$fin$0 000000018003a180 f   libucrtd:wsetlocale.obj
 0001:00039180       __acrt_update_thread_locale_data$fin$0 000000018003a180 f   libucrtd:locale_refcounting.obj
 0001:000391a0       __acrt_lowio_ensure_fh_exists$fin$0 000000018003a1a0 f   libucrtd:osfinfo.obj
 0001:000391c0       common_flush_all$fin$0     000000018003a1c0 f   libucrtd:fflush.obj
 0001:000391e3       common_flush_all$fin$1     000000018003a1e3 f   libucrtd:fflush.obj
 0001:00039200       ?dtor$0@?0??_wcstombs_l_helper@@YA_KPEADPEB_W_KPEAU__crt_locale_pointers@@@Z@4HA 000000018003a200 f   libucrtd:wcstombs.obj
 0001:00039220       _fcloseall$fin$0           000000018003a220 f   libucrtd:closeall.obj
 0001:00039240       common_control87$filt$0    000000018003a240 f   libucrtd:ieee.obj
 0001:00039290       ?fin$0@?0???$?RV<lambda_4f1f1a84956f0d44b74de224c960ff76>@@AEAV<lambda_a8f98972ebaa5f7148d35bffe53bd70d>@@V<lambda_f6ca65dda28655a1cf758c1c4e38e52a>@@@?$__crt_seh_guarded_call@H@@QEAAH$$QEAV<lambda_4f1f1a84956f0d44b74de224c960ff76>@@AEAV<lambda_a8f98972ebaa5f7148d35bffe53bd70d>@@$$QEAV<lambda_f6ca65dda28655a1cf758c1c4e38e52a>@@@Z@4HA 000000018003a290 f   libucrtd:close.obj
 0001:00039290       ?fin$0@?0???$?RV<lambda_2ce24b26f23dade10250ef086380d911>@@AEAV<lambda_e9ab68cc08dfd839979545c079379e6e>@@V<lambda_6262c464c96e4c69799ed44814c7c457>@@@?$__crt_seh_guarded_call@H@@QEAAH$$QEAV<lambda_2ce24b26f23dade10250ef086380d911>@@AEAV<lambda_e9ab68cc08dfd839979545c079379e6e>@@$$QEAV<lambda_6262c464c96e4c69799ed44814c7c457>@@@Z@4HA 000000018003a290 f   libucrtd:commit.obj
 0001:000392b0       _write$fin$0               000000018003a2b0 f   libucrtd:write.obj
 0001:000392d0       fclose$fin$0               000000018003a2d0 f   libucrtd:fclose.obj
 0001:00039300       _IsNonwritableInCurrentImage$filt$0 000000018003a300 f   LIBCMTD:pesect.obj
 0001:00039340       _CallSETranslator$filt$0   000000018003a340 f   libvcruntimed:trnsctrl.obj
 0001:000393a0       __CxxCallCatchBlock$filt$0 000000018003a3a0 f   libvcruntimed:frame.obj
 0001:000393c9       __CxxCallCatchBlock$fin$1  000000018003a3c9 f   libvcruntimed:frame.obj
 0001:00039460       __DestructExceptionObject$filt$0 000000018003a460 f   libvcruntimed:frame.obj
 0001:00039490       __FrameUnwindToState$filt$0 000000018003a490 f   libvcruntimed:frame.obj
 0001:000394b1       __FrameUnwindToState$fin$1 000000018003a4b1 f   libvcruntimed:frame.obj
 0002:00000368       GS_ExceptionPointers       000000018003b368     LIBCMTD:gs_report.obj
 0002:000003a8       ?module_names@?A0xece66f1d@@3QBQEB_WB 000000018003b3a8     libvcruntimed:winapi_downlevel.obj
 0002:00000610       ?candidate_modules@?1??try_get_EventRegister@@YAP6AKPEBU_GUID@@P6AX0KE_K1PEAU_EVENT_FILTER_DESCRIPTOR@@PEAX@Z3PEA_K@ZXZ@4QBW4module_id@?A0xece66f1d@@B 000000018003b610     libvcruntimed:winapi_downlevel.obj
 0002:00000628       ?candidate_modules@?1??try_get_EventSetInformation@@YAP6AK_KW4_EVENT_INFO_CLASS@@PEAXK@ZXZ@4QBW4module_id@?A0xece66f1d@@B 000000018003b628     libvcruntimed:winapi_downlevel.obj
 0002:00000644       ?candidate_modules@?1??try_get_EventUnregister@@YAP6AK_K@ZXZ@4QBW4module_id@?A0xece66f1d@@B 000000018003b644     libvcruntimed:winapi_downlevel.obj
 0002:00000658       ?candidate_modules@?1??try_get_EventWriteTransfer@@YAP6AK_KPEBU_EVENT_DESCRIPTOR@@PEBU_GUID@@2KPEAU_EVENT_DATA_DESCRIPTOR@@@ZXZ@4QBW4module_id@?A0xece66f1d@@B 000000018003b658     libvcruntimed:winapi_downlevel.obj
 0002:00000678       ?candidate_modules@?1??try_get_FlsAlloc@@YAP6AKP6AXPEAX@Z@ZXZ@4QBW4module_id@?A0xece66f1d@@B 000000018003b678     libvcruntimed:winapi_downlevel.obj
 0002:00000690       ?candidate_modules@?1??try_get_FlsFree@@YAP6AHK@ZXZ@4QBW4module_id@?A0xece66f1d@@B 000000018003b690     libvcruntimed:winapi_downlevel.obj
 0002:000006a0       ?candidate_modules@?1??try_get_FlsGetValue@@YAP6APEAXK@ZXZ@4QBW4module_id@?A0xece66f1d@@B 000000018003b6a0     libvcruntimed:winapi_downlevel.obj
 0002:000006b8       ?candidate_modules@?1??try_get_FlsSetValue@@YAP6AHKPEAX@ZXZ@4QBW4module_id@?A0xece66f1d@@B 000000018003b6b8     libvcruntimed:winapi_downlevel.obj
 0002:000006d0       ?candidate_modules@?1??try_get_InitializeCriticalSectionEx@@YAP6AHPEAU_RTL_CRITICAL_SECTION@@KK@ZXZ@4QBW4module_id@?A0xece66f1d@@B 000000018003b6d0     libvcruntimed:winapi_downlevel.obj
 0002:00000740       ?tokenTable@@3QBQEBDB      000000018003b740     libvcruntimed:undname.obj
 0002:000007b0       ?nameTable@@3QBQEBDB       000000018003b7b0     libvcruntimed:undname.obj
 0002:00000a38       ?rttiTable@@3QBQEBDB       000000018003ba38     libvcruntimed:undname.obj
 0002:00001380       __acrt_initializers        000000018003c380     libucrtd:initialization.obj
 0002:00001470       block_use_names            000000018003c470     libucrtd:debug_heap.obj
 0002:000025b0       report_type_messages       000000018003d5b0     libucrtd:dbgrpt.obj
 0002:00002610       more_info_string           000000018003d610     libucrtd:dbgrpt.obj
 0002:00002a74       ?empty_string@?BB@???$common_message_window@D@@YAHHQEAXQEBD111@Z@4QBDB 000000018003da74     libucrtd:dbgrpt.obj
 0002:00002c2c       ?empty_string@?BB@???$common_message_window@_W@@YAHHQEAXQEB_W111@Z@4QB_WB 000000018003dc2c     libucrtd:dbgrpt.obj
 0002:00004cf0       ?mask@?3??_fd_int@@9@9     000000018003fcf0     libucrtd:_test.obj
 0002:00004d10       ?sub@?3??_fd_int@@9@9      000000018003fd10     libucrtd:_test.obj
 0002:00004d60       module_names               000000018003fd60     libucrtd:winapi_thunks.obj
 0002:00005308       ?candidate_modules@?1??try_get_FlsAlloc@@YAP6AKP6AXPEAX@Z@ZXZ@4QBW4module_id@?A0x1dd686d3@@B 0000000180040308     libucrtd:winapi_thunks.obj
 0002:00005310       ?candidate_modules@?1??try_get_FlsFree@@YAP6AHK@ZXZ@4QBW4module_id@?A0x1dd686d3@@B 0000000180040310     libucrtd:winapi_thunks.obj
 0002:00005318       ?candidate_modules@?1??try_get_FlsGetValue@@YAP6APEAXK@ZXZ@4QBW4module_id@?A0x1dd686d3@@B 0000000180040318     libucrtd:winapi_thunks.obj
 0002:00005320       ?candidate_modules@?1??try_get_FlsSetValue@@YAP6AHKPEAX@ZXZ@4QBW4module_id@?A0x1dd686d3@@B 0000000180040320     libucrtd:winapi_thunks.obj
 0002:00005328       ?candidate_modules@?1??try_get_GetActiveWindow@@YAP6APEAUHWND__@@XZXZ@4QBW4module_id@?A0x1dd686d3@@B 0000000180040328     libucrtd:winapi_thunks.obj
 0002:00005340       ?candidate_modules@?1??try_get_GetCurrentPackageId@@YAP6AJPEAIPEAE@ZXZ@4QBW4module_id@?A0x1dd686d3@@B 0000000180040340     libucrtd:winapi_thunks.obj
 0002:00005360       ?candidate_modules@?1??try_get_GetLastActivePopup@@YAP6APEAUHWND__@@PEAU2@@ZXZ@4QBW4module_id@?A0x1dd686d3@@B 0000000180040360     libucrtd:winapi_thunks.obj
 0002:00005380       ?candidate_modules@?1??try_get_GetProcessWindowStation@@YAP6APEAUHWINSTA__@@XZXZ@4QBW4module_id@?A0x1dd686d3@@B 0000000180040380     libucrtd:winapi_thunks.obj
 0002:000053a0       ?candidate_modules@?1??try_get_GetUserObjectInformationW@@YAP6AHPEAXH0KPEAK@ZXZ@4QBW4module_id@?A0x1dd686d3@@B 00000001800403a0     libucrtd:winapi_thunks.obj
 0002:000053c8       ?candidate_modules@?1??try_get_InitializeCriticalSectionEx@@YAP6AHPEAU_RTL_CRITICAL_SECTION@@KK@ZXZ@4QBW4module_id@?A0x1dd686d3@@B 00000001800403c8     libucrtd:winapi_thunks.obj
 0002:000053d0       ?candidate_modules@?1??try_get_LCMapStringEx@@YAP6AHPEB_WK0HPEA_WHPEAU_nlsversioninfo@@PEAX_J@ZXZ@4QBW4module_id@?A0x1dd686d3@@B 00000001800403d0     libucrtd:winapi_thunks.obj
 0002:000053e8       ?candidate_modules@?1??try_get_LocaleNameToLCID@@YAP6AKPEB_WK@ZXZ@4QBW4module_id@?A0x1dd686d3@@B 00000001800403e8     libucrtd:winapi_thunks.obj
 0002:00005408       ?candidate_modules@?1??try_get_MessageBoxA@@YAP6AHPEAUHWND__@@PEBD1I@ZXZ@4QBW4module_id@?A0x1dd686d3@@B 0000000180040408     libucrtd:winapi_thunks.obj
 0002:00005420       ?candidate_modules@?1??try_get_MessageBoxW@@YAP6AHPEAUHWND__@@PEB_W1I@ZXZ@4QBW4module_id@?A0x1dd686d3@@B 0000000180040420     libucrtd:winapi_thunks.obj
 0002:000054b0       _mb_locale_names           00000001800404b0     libucrtd:mbctype.obj
 0002:00005d40       errtable                   0000000180040d40     libucrtd:errno.obj
 0002:000073b0       $cppxdata$?fp_format_a@@YAHQEBNPEAD_KQEAD2H_NIQEAU__crt_locale_pointers@@@Z 00000001800423b0     libucrtd:cvt.obj
 0002:00008340       LocaleNameToIndexTable     0000000180043340     libucrtd:lcidtoname_downlevel.obj
 0002:00009be0       LcidToLocaleNameTable      0000000180044be0     libucrtd:lcidtoname_downlevel.obj
 0002:0000c010       $cppxdata$?_wcstombs_l_helper@@YA_KPEADPEB_W_KPEAU__crt_locale_pointers@@@Z 0000000180047010     libucrtd:wcstombs.obj
 0002:0000d300       __real@433fffffffffffff    0000000180048300     libucrtd:fpsr.obj
 0002:0000d308       __real@c33fffffffffffff    0000000180048308     libucrtd:fpsr.obj
 0002:0000d550       __real_ninf                0000000180048550     libucrtd:log10.obj
 0002:0000d560       __real_inf                 0000000180048560     libucrtd:log10.obj
 0002:0000d570       __real_neg_qnan            0000000180048570     libucrtd:log10.obj
 0002:0000d580       __real_qnanbit             0000000180048580     libucrtd:log10.obj
 0002:0000d590       __int_1023                 0000000180048590     libucrtd:log10.obj
 0002:0000d5a0       __mask_001                 00000001800485a0     libucrtd:log10.obj
 0002:0000d5b0       __mask_mant                00000001800485b0     libucrtd:log10.obj
 0002:0000d5c0       __mask_mant_top8           00000001800485c0     libucrtd:log10.obj
 0002:0000d5d0       __mask_mant9               00000001800485d0     libucrtd:log10.obj
 0002:0000d5e0       __real_log10_e             00000001800485e0     libucrtd:log10.obj
 0002:0000d5f0       __real_log10_e_lead        00000001800485f0     libucrtd:log10.obj
 0002:0000d600       __real_log10_e_tail        0000000180048600     libucrtd:log10.obj
 0002:0000d610       __real_log10_2_lead        0000000180048610     libucrtd:log10.obj
 0002:0000d620       __real_log10_2_tail        0000000180048620     libucrtd:log10.obj
 0002:0000d630       __real_two                 0000000180048630     libucrtd:log10.obj
 0002:0000d640       __real_one                 0000000180048640     libucrtd:log10.obj
 0002:0000d650       __real_half                0000000180048650     libucrtd:log10.obj
 0002:0000d660       __mask_100                 0000000180048660     libucrtd:log10.obj
 0002:0000d670       __real_1_over_512          0000000180048670     libucrtd:log10.obj
 0002:0000d680       __real_1_over_2            0000000180048680     libucrtd:log10.obj
 0002:0000d690       __real_1_over_3            0000000180048690     libucrtd:log10.obj
 0002:0000d6a0       __real_1_over_4            00000001800486a0     libucrtd:log10.obj
 0002:0000d6b0       __real_1_over_5            00000001800486b0     libucrtd:log10.obj
 0002:0000d6c0       __real_1_over_6            00000001800486c0     libucrtd:log10.obj
 0002:0000d6d0       __real_neg_1023            00000001800486d0     libucrtd:log10.obj
 0002:0000d6e0       __mask_2045                00000001800486e0     libucrtd:log10.obj
 0002:0000d6f0       __real_threshold           00000001800486f0     libucrtd:log10.obj
 0002:0000d700       __real_near_one_lt         0000000180048700     libucrtd:log10.obj
 0002:0000d710       __real_near_one_gt         0000000180048710     libucrtd:log10.obj
 0002:0000d720       __real_min_norm            0000000180048720     libucrtd:log10.obj
 0002:0000d730       __real_notsign             0000000180048730     libucrtd:log10.obj
 0002:0000d740       __real_ca1                 0000000180048740     libucrtd:log10.obj
 0002:0000d750       __real_ca2                 0000000180048750     libucrtd:log10.obj
 0002:0000d760       __real_ca3                 0000000180048760     libucrtd:log10.obj
 0002:0000d770       __real_ca4                 0000000180048770     libucrtd:log10.obj
 0002:0000d780       __mask_lower               0000000180048780     libucrtd:log10.obj
 0002:0000d790       __flag_x_zero              0000000180048790     libucrtd:log10.obj
 0002:0000d794       __flag_x_neg               0000000180048794     libucrtd:log10.obj
 0002:0000d798       __flag_x_nan               0000000180048798     libucrtd:log10.obj
 0002:0000f1a0       ?ExceptionTemplate@?1??_UnwindNestedFrames@@9@4U_EXCEPTION_RECORD@@B 000000018004a1a0     libvcruntimed:trnsctrl.obj
 0002:0000f370       ?ExceptionTemplate@?1??_CxxThrowException@@9@4UEHExceptionRecord@@B 000000018004a370     libvcruntimed:throw.obj
 0002:0000f628       ?_TlgEvent@?3??__telemetry_main_invoke_trigger@@9@4U<unnamed-type-_TlgEvent>@?3??1@9@B 000000018004a628     libvcruntimed:telemetry.obj
 0002:0000f664       ?_TlgEvent@?3??__telemetry_main_return_trigger@@9@4U<unnamed-type-_TlgEvent>@?3??1@9@B 000000018004a664     libvcruntimed:telemetry.obj
 0002:0000f69f       ?_Tlg_Microsoft_CRTProviderProv_Meta@@3U<unnamed-type-_Tlg_Microsoft_CRTProviderProv_Meta>@@B 000000018004a69f     libvcruntimed:telemetry.obj
 0002:0000fa50       $unwind$?SignOf@@YAMM@Z    000000018004aa50     gamecode.obj
 0002:0000fa58       $unwind$??G@YA?ATv2@@T0@0@Z 000000018004aa58     gamecode.obj
 0002:0000fa58       $unwind$??H@YA?ATv2@@T0@0@Z 000000018004aa58     gamecode.obj
 0002:0000fa68       $unwind$?RectCenterHalfDim@@YA?AUrectangle2@@Tv2@@0@Z 000000018004aa68     gamecode.obj
 0002:0000fa7c       $unwind$?Intersect@@YA?AUrectangle2i@@U1@0@Z 000000018004aa7c     gamecode.obj
 0002:0000fa90       $unwind$?c2CircletoCircle@@YAHUc2Circle@@0@Z 000000018004aa90     gamecode.obj
 0002:0000fa98       $unwind$?c2CircletoAABB@@YAHUc2Circle@@Uc2AABB@@@Z 000000018004aa98     gamecode.obj
 0002:0000faa0       $unwind$?c2CircletoCapsule@@YAHUc2Circle@@Uc2Capsule@@@Z 000000018004aaa0     gamecode.obj
 0002:0000faa8       $unwind$?c2AABBtoAABB@@YAHUc2AABB@@0@Z 000000018004aaa8     gamecode.obj
 0002:0000fab0       $unwind$?c2AABBtoCapsule@@YAHUc2AABB@@Uc2Capsule@@@Z 000000018004aab0     gamecode.obj
 0002:0000fab8       $unwind$?c2CapsuletoCapsule@@YAHUc2Capsule@@0@Z 000000018004aab8     gamecode.obj
 0002:0000fac0       $unwind$?c2CircletoPoly@@YAHUc2Circle@@PEBUc2Poly@@PEBUc2x@@@Z 000000018004aac0     gamecode.obj
 0002:0000fac8       $unwind$?c2AABBtoPoly@@YAHUc2AABB@@PEBUc2Poly@@PEBUc2x@@@Z 000000018004aac8     gamecode.obj
 0002:0000fad0       $unwind$?c2CapsuletoPoly@@YAHUc2Capsule@@PEBUc2Poly@@PEBUc2x@@@Z 000000018004aad0     gamecode.obj
 0002:0000fad8       $unwind$?c2PolytoPoly@@YAHPEBUc2Poly@@PEBUc2x@@01@Z 000000018004aad8     gamecode.obj
 0002:0000fae0       $unwind$?c2RaytoCircle@@YAHUc2Ray@@Uc2Circle@@PEAUc2Raycast@@@Z 000000018004aae0     gamecode.obj
 0002:0000fae8       $unwind$?c2RaytoAABB@@YAHUc2Ray@@Uc2AABB@@PEAUc2Raycast@@@Z 000000018004aae8     gamecode.obj
 0002:0000faf0       $unwind$?c2RaytoCapsule@@YAHUc2Ray@@Uc2Capsule@@PEAUc2Raycast@@@Z 000000018004aaf0     gamecode.obj
 0002:0000fb04       $unwind$?c2RaytoPoly@@YAHUc2Ray@@PEBUc2Poly@@PEBUc2x@@PEAUc2Raycast@@@Z 000000018004ab04     gamecode.obj
 0002:0000fb18       $unwind$?c2CircletoCircleManifold@@YAXUc2Circle@@0PEAUc2Manifold@@@Z 000000018004ab18     gamecode.obj
 0002:0000fb20       $unwind$?c2CircletoAABBManifold@@YAXUc2Circle@@Uc2AABB@@PEAUc2Manifold@@@Z 000000018004ab20     gamecode.obj
 0002:0000fb28       $unwind$?c2CircletoCapsuleManifold@@YAXUc2Circle@@Uc2Capsule@@PEAUc2Manifold@@@Z 000000018004ab28     gamecode.obj
 0002:0000fb30       $unwind$?c2AABBtoAABBManifold@@YAXUc2AABB@@0PEAUc2Manifold@@@Z 000000018004ab30     gamecode.obj
 0002:0000fb38       $unwind$?c2AABBtoCapsuleManifold@@YAXUc2AABB@@Uc2Capsule@@PEAUc2Manifold@@@Z 000000018004ab38     gamecode.obj
 0002:0000fb4c       $unwind$?c2CapsuletoCapsuleManifold@@YAXUc2Capsule@@0PEAUc2Manifold@@@Z 000000018004ab4c     gamecode.obj
 0002:0000fb54       $unwind$?c2CircletoPolyManifold@@YAXUc2Circle@@PEBUc2Poly@@PEBUc2x@@PEAUc2Manifold@@@Z 000000018004ab54     gamecode.obj
 0002:0000fb68       $unwind$?c2AABBtoPolyManifold@@YAXUc2AABB@@PEBUc2Poly@@PEBUc2x@@PEAUc2Manifold@@@Z 000000018004ab68     gamecode.obj
 0002:0000fb78       $unwind$?c2CapsuletoPolyManifold@@YAXUc2Capsule@@PEBUc2Poly@@PEBUc2x@@PEAUc2Manifold@@@Z 000000018004ab78     gamecode.obj
 0002:0000fb8c       $unwind$?c2PolytoPolyManifold@@YAXPEBUc2Poly@@PEBUc2x@@01PEAUc2Manifold@@@Z 000000018004ab8c     gamecode.obj
 0002:0000fba0       $unwind$?c2GJK@@YAMPEBXW4C2_TYPE@@PEBUc2x@@012PEAUc2v@@3H@Z 000000018004aba0     gamecode.obj
 0002:0000fbb4       $unwind$?c2Hull@@YAHPEAUc2v@@H@Z 000000018004abb4     gamecode.obj
 0002:0000fbc8       $unwind$?c2Norms@@YAXPEAUc2v@@0H@Z 000000018004abc8     gamecode.obj
 0002:0000fbd0       $unwind$?c2MakePoly@@YAXPEAUc2Poly@@@Z 000000018004abd0     gamecode.obj
 0002:0000fbd8       $unwind$?c2Collided@@YAHPEBXPEBUc2x@@W4C2_TYPE@@012@Z 000000018004abd8     gamecode.obj
 0002:0000fbe4       $unwind$?c2Collide@@YAXPEBXPEBUc2x@@W4C2_TYPE@@012PEAUc2Manifold@@@Z 000000018004abe4     gamecode.obj
 0002:0000fbf0       $unwind$?c2MakeProxy@@YAXPEBXW4C2_TYPE@@PEAUc2Proxy@@@Z 000000018004abf0     gamecode.obj
 0002:0000fbf8       $unwind$?c2Support@@YAHPEBUc2v@@HU1@@Z 000000018004abf8     gamecode.obj
 0002:0000fc00       $unwind$?c2L@@YA?AUc2v@@PEAUc2Simplex@@@Z 000000018004ac00     gamecode.obj
 0002:0000fc08       $unwind$?c2Witness@@YAXPEAUc2Simplex@@PEAUc2v@@1@Z 000000018004ac08     gamecode.obj
 0002:0000fc10       $unwind$?c2D@@YA?AUc2v@@PEAUc2Simplex@@@Z 000000018004ac10     gamecode.obj
 0002:0000fc18       $unwind$?c22@@YAXPEAUc2Simplex@@@Z 000000018004ac18     gamecode.obj
 0002:0000fc24       $unwind$?c23@@YAXPEAUc2Simplex@@@Z 000000018004ac24     gamecode.obj
 0002:0000fc30       $unwind$?c2Clip@@YAHPEAUc2v@@Uc2h@@@Z 000000018004ac30     gamecode.obj
 0002:0000fc3c       $unwind$?c2SidePlanes@@YAHPEAUc2v@@Uc2x@@PEBUc2Poly@@HPEAUc2h@@@Z 000000018004ac3c     gamecode.obj
 0002:0000fc50       $unwind$?c2KeepDeep@@YAXPEAUc2v@@Uc2h@@PEAUc2Manifold@@@Z 000000018004ac50     gamecode.obj
 0002:0000fc5c       $unwind$?c2CapsuleSupport@@YA?AUc2v@@Uc2Capsule@@U1@@Z 000000018004ac5c     gamecode.obj
 0002:0000fc64       $unwind$?c2AntinormalFace@@YAXUc2Capsule@@PEBUc2Poly@@Uc2x@@PEAHPEAUc2v@@@Z 000000018004ac64     gamecode.obj
 0002:0000fc78       $unwind$?c2CheckFaces@@YAMPEBUc2Poly@@Uc2x@@01PEAH@Z 000000018004ac78     gamecode.obj
 0002:0000fc8c       $unwind$?c2Incident@@YAXPEAUc2v@@PEBUc2Poly@@Uc2x@@12H@Z 000000018004ac8c     gamecode.obj
 0002:0000fc98       $unwind$?MinkowskiSum@@YA?AUminkowskirect@@PEAUentity@@0@Z 000000018004ac98     gamecode.obj
 0002:0000fcac       $unwind$?CheckCollision@@YAHPEAUentity@@0@Z 000000018004acac     gamecode.obj
 0002:0000fcc0       $unwind$?DrawPixel@@YAXPEAUgame_offscreen_buffer@@MMMMMM@Z 000000018004acc0     gamecode.obj
 0002:0000fcc8       $unwind$?DrawRectangle@@YAXUrectangle2i@@Tv2@@1PEAUgame_offscreen_buffer@@MMMM@Z 000000018004acc8     gamecode.obj
 0002:0000fcdc       $unwind$?DrawFilledCircle@@YAXMMMPEAUgame_offscreen_buffer@@MMMM@Z 000000018004acdc     gamecode.obj
 0002:0000fce4       $unwind$?CreateEntity@@YAPEAUentity@@PEAUgame_state@@W4entity_flag@@@Z 000000018004ace4     gamecode.obj
 0002:0000fcec       $unwind$?InitializeWall@@YAXPEAUentity@@MMMM@Z 000000018004acec     gamecode.obj
 0002:0000fcfc       $unwind$?RenderEntity@@YAXPEAUentity@@Urectangle2i@@PEAUgame_offscreen_buffer@@@Z 000000018004acfc     gamecode.obj
 0002:0000fd10       $unwind$?MoveEntity@@YA?ATv2@@PEAUentity@@PEAUgame_input@@@Z 000000018004ad10     gamecode.obj
 0002:0000fd20       $unwind$GameUpdateAndRender 000000018004ad20     gamecode.obj
 0002:0000fd34       $unwind$GameGetSoundSamples 000000018004ad34     gamecode.obj
 0002:0000fd3c       $unwind$?c2V@@YA?AUc2v@@MM@Z 000000018004ad3c     gamecode.obj
 0002:0000fd44       $unwind$?c2Div@@YA?AUc2v@@U1@M@Z 000000018004ad44     gamecode.obj
 0002:0000fd4c       $unwind$?c2Lerp@@YA?AUc2v@@U1@0M@Z 000000018004ad4c     gamecode.obj
 0002:0000fd4c       $unwind$?c2Parallel@@YAHUc2v@@0M@Z 000000018004ad4c     gamecode.obj
 0002:0000fd54       $unwind$?c2xIdentity@@YA?AUc2x@@XZ 000000018004ad54     gamecode.obj
 0002:0000fd68       $unwind$?c2MulxxT@@YA?AUc2x@@U1@0@Z 000000018004ad68     gamecode.obj
 0002:0000fd68       $unwind$?write_double_translated_unicode_nolock@@YA?AUwrite_result@?A0x4392dfaa@@QEBDI@Z 000000018004ad68     libucrtd:write.obj
 0002:0000fd7c       $unwind$_set_statfp        000000018004ad7c     libucrtd:fpctrl.obj
 0002:0000fd7c       $unwind$?is_in_use@__crt_stdio_stream@@QEBA_NXZ 000000018004ad7c     libucrtd:fflush.obj
 0002:0000fd7c       $unwind$__acrt_invoke_user_matherr 000000018004ad7c     libucrtd:matherr.obj
 0002:0000fd7c       $unwind$??R<lambda_6ac21da2756cd333d25ba1adc9a0001e>@@QEBAXXZ 000000018004ad7c     libucrtd:per_thread_data.obj
 0002:0000fd7c       $unwind$??$scratch_data@D@formatting_buffer@__crt_stdio_output@@QEAAPEADXZ 000000018004ad7c     libucrtd:output.obj
 0002:0000fd7c       $unwind$__acrt_DownlevelLocaleNameToLCID 000000018004ad7c     libucrtd:lcidtoname_downlevel.obj
 0002:0000fd7c       $unwind$?destroy_ptd@@YAXQEAU__acrt_ptd@@@Z 000000018004ad7c     libucrtd:per_thread_data.obj
 0002:0000fd7c       $unwind$__std_type_info_destroy_list 000000018004ad7c     libvcruntimed:std_type_info.obj
 0002:0000fd7c       $unwind$?is_block_an_aligned_allocation@@YA_NQEBX@Z 000000018004ad7c     libucrtd:debug_heap.obj
 0002:0000fd7c       $unwind$__vcrt_freeptd     000000018004ad7c     libvcruntimed:per_thread_data.obj
 0002:0000fd7c       $unwind$_putwch_nolock     000000018004ad7c     libucrtd:putwch.obj
 0002:0000fd7c       $unwind$?c2Origin@@YA?AUc2v@@Uc2h@@@Z 000000018004ad7c     gamecode.obj
 0002:0000fd7c       $unwind$?try_load_library_from_system_directory@@YAPEAUHINSTANCE__@@QEB_W@Z 000000018004ad7c     libvcruntimed:winapi_downlevel.obj
 0002:0000fd7c       $unwind$?is_string_backed@__crt_stdio_stream@@QEBA_NXZ 000000018004ad7c     libucrtd:output.obj
 0002:0000fd7c       $unwind$??R<lambda_a8f98972ebaa5f7148d35bffe53bd70d>@@QEBAHXZ 000000018004ad7c     libucrtd:close.obj
 0002:0000fd7c       $unwind$?type_case_s@?$output_processor@DV?$string_output_adapter@D@__crt_stdio_output@@V?$format_validation_base@DV?$string_output_adapter@D@__crt_stdio_output@@@2@@__crt_stdio_output@@AEAA_NXZ 000000018004ad7c     libucrtd:output.obj
 0002:0000fd7c       $unwind$atexit             000000018004ad7c     LIBCMTD:utility.obj
 0002:0000fd7c       $unwind$?type_case_Z@?$output_processor@DV?$string_output_adapter@D@__crt_stdio_output@@V?$format_validation_base@DV?$string_output_adapter@D@__crt_stdio_output@@@2@@__crt_stdio_output@@AEAA_NXZ 000000018004ad7c     libucrtd:output.obj
 0002:0000fd7c       $unwind$_execute_onexit_table 000000018004ad7c     libucrtd:onexit.obj
 0002:0000fd7c       $unwind$?release@?$__crt_unique_heap_ptr@U__vcrt_ptd@@U__crt_internal_free_policy@@@@QEAAXXZ 000000018004ad7c     libvcruntimed:per_thread_data.obj
 0002:0000fd7c       $unwind$_fflush_nolock     000000018004ad7c     libucrtd:fflush.obj
 0002:0000fd7c       $unwind$__vcrt_FlsAlloc    000000018004ad7c     libvcruntimed:winapi_downlevel.obj
 0002:0000fd7c       $unwind$?type_case_Z@?$output_processor@_WV?$string_output_adapter@_W@__crt_stdio_output@@V?$format_validation_base@_WV?$string_output_adapter@_W@__crt_stdio_output@@@2@@__crt_stdio_output@@AEAA_NXZ 000000018004ad7c     libucrtd:output.obj
 0002:0000fd7c       $unwind$?c2Absv@@YA?AUc2v@@U1@@Z 000000018004ad7c     gamecode.obj
 0002:0000fd7c       $unwind$?destroy_ptd_array@@YAXQEAU__acrt_ptd@@@Z 000000018004ad7c     libucrtd:per_thread_data.obj
 0002:0000fd7c       $unwind$?close@__crt_handle_traits@@SA_NPEAX@Z 000000018004ad7c     libucrtd:crtmbox.obj
 0002:0000fd7c       $unwind$?release@?$__crt_unique_heap_ptr@DU__crt_internal_free_policy@@@@QEAAXXZ 000000018004ad7c     libvcruntimed:std_type_info.obj
 0002:0000fd7c       $unwind$?c2Norm@@YA?AUc2v@@U1@@Z 000000018004ad7c     gamecode.obj
 0002:0000fd7c       $unwind$?type_case_s@?$output_processor@_WV?$string_output_adapter@_W@__crt_stdio_output@@V?$format_validation_base@_WV?$string_output_adapter@_W@__crt_stdio_output@@@2@@__crt_stdio_output@@AEAA_NXZ 000000018004ad7c     libucrtd:output.obj
 0002:0000fd7c       $unwind$?state_case_flag@?$output_processor@_WV?$string_output_adapter@_W@__crt_stdio_output@@V?$format_validation_base@_WV?$string_output_adapter@_W@__crt_stdio_output@@@2@@__crt_stdio_output@@AEAA_NXZ 000000018004ad7c     libucrtd:output.obj
 0002:0000fd7c       $unwind$?parse_digit@__crt_strtox@@YAI_W@Z 000000018004ad7c     libucrtd:atox.obj
 0002:0000fd7c       $unwind$?is_valid@?$__crt_unique_handle_t@U__crt_handle_traits@@@@QEBA_NXZ 000000018004ad7c     libucrtd:crtmbox.obj
 0002:0000fd7c       $unwind$__report_gsfailure 000000018004ad7c     LIBCMTD:gs_report.obj
 0002:0000fd7c       $unwind$?try_load_library_from_system_directory@@YAPEAUHINSTANCE__@@QEB_W@Z 000000018004ad7c     libucrtd:winapi_thunks.obj
 0002:0000fd7c       $unwind$?state_case_flag@?$output_processor@DV?$string_output_adapter@D@__crt_stdio_output@@V?$format_validation_base@DV?$string_output_adapter@D@__crt_stdio_output@@@2@@__crt_stdio_output@@AEAA_NXZ 000000018004ad7c     libucrtd:output.obj
 0002:0000fd7c       $unwind$_callnewh          000000018004ad7c     libucrtd:new_handler.obj
 0002:0000fd7c       $unwind$_initialize_onexit_table 000000018004ad7c     libucrtd:onexit.obj
 0002:0000fd7c       $unwind$_FindAndUnlinkFrame 000000018004ad7c     libvcruntimed:trnsctrl.obj
 0002:0000fd7c       $unwind$__acrt_add_locale_ref 000000018004ad7c     libucrtd:locale_refcounting.obj
 0002:0000fd7c       $unwind$_IsExceptionObjectToBeDestroyed 000000018004ad7c     libvcruntimed:trnsctrl.obj
 0002:0000fd7c       $unwind$?__acrt_stdio_reset_buffer@@YAXV__crt_stdio_stream@@@Z 000000018004ad7c     libucrtd:fflush.obj
 0002:0000fd7c       $unwind$?construct_ptd_array@@YAXQEAU__acrt_ptd@@@Z 000000018004ad7c     libucrtd:per_thread_data.obj
 0002:0000fd7c       $unwind$__acrt_release_locale_ref 000000018004ad7c     libucrtd:locale_refcounting.obj
 0002:0000fd7c       $unwind$??$message_box_wait_thread@_W@@YAKQEAX@Z 000000018004ad7c     libucrtd:crtmbox.obj
 0002:0000fd7c       $unwind$__acrt_FlsAlloc    000000018004ad7c     libucrtd:winapi_thunks.obj
 0002:0000fd7c       $unwind$_free_base         000000018004ad7c     libucrtd:free_base.obj
 0002:0000fd7c       $unwind$?c2Neg@@YA?AUc2v@@U1@@Z 000000018004ad7c     gamecode.obj
 0002:0000fd7c       $unwind$?close@__crt_hmodule_traits@@SA_NPEAUHINSTANCE__@@@Z 000000018004ad7c     libucrtd:exit.obj
 0002:0000fd7c       $unwind$__except_validate_context_record 000000018004ad7c     libvcruntimed:jbcxrval.obj
 0002:0000fd7c       $unwind$feholdexcept       000000018004ad7c     libucrtd:feholdexcept.obj
 0002:0000fd7c       $unwind$__vcrt_EventUnregister 000000018004ad7c     libvcruntimed:winapi_downlevel.obj
 0002:0000fd7c       $unwind$?release@?$__crt_unique_heap_ptr@DU__crt_public_free_policy@@@@QEAAXXZ 000000018004ad7c     libvcruntimed:std_exception.obj
 0002:0000fd7c       $unwind$_unlock_file       000000018004ad7c     libucrtd:_file.obj
 0002:0000fd7c       $unwind$_lock_file         000000018004ad7c     libucrtd:_file.obj
 0002:0000fd7c       $unwind$fesetenv           000000018004ad7c     libucrtd:fesetenv.obj
 0002:0000fd84       $unwind$?c2Project@@YA?AUc2v@@Uc2h@@U1@@Z 000000018004ad84     gamecode.obj
 0002:0000fd90       $unwind$?c2Mulxh@@YA?AUc2h@@Uc2x@@U1@@Z 000000018004ad90     gamecode.obj
 0002:0000fda4       $unwind$__TypeMatch        000000018004ada4     libvcruntimed:frame.obj
 0002:0000fda4       $unwind$__GSHandlerCheckCommon 000000018004ada4     LIBCMTD:_gshandler_.obj
 0002:0000fdb0       $xdatasym                  000000018004adb0     LIBCMTD:_amdsecgs_.obj
 0002:0000fdb4       $unwind$?dllmain_crt_process_attach@@YAHQEAUHINSTANCE__@@QEAX@Z 000000018004adb4     LIBCMTD:dll_dllmain.obj
 0002:0000fdd4       $unwind$?dllmain_crt_process_detach@@YAH_N@Z 000000018004add4     LIBCMTD:dll_dllmain.obj
 0002:0000fdf4       $unwind$__vcrt_InitializeCriticalSectionEx 000000018004adf4     libvcruntimed:winapi_downlevel.obj
 0002:0000fdf4       $unwind$?dllmain_raw@@YAHQEAUHINSTANCE__@@KQEAX@Z 000000018004adf4     LIBCMTD:dll_dllmain.obj
 0002:0000fdf4       $unwind$?dllmain_crt_dispatch@@YAHQEAUHINSTANCE__@@KQEAX@Z 000000018004adf4     LIBCMTD:dll_dllmain.obj
 0002:0000fdf4       $unwind$__acrt_InitializeCriticalSectionEx 000000018004adf4     libucrtd:winapi_thunks.obj
 0002:0000fdfc       $unwind$?dllmain_dispatch@@YAHQEAUHINSTANCE__@@KQEAX@Z 000000018004adfc     LIBCMTD:dll_dllmain.obj
 0002:0000fe1c       $unwind$__scrt_is_nonwritable_in_current_image 000000018004ae1c     LIBCMTD:utility.obj
 0002:0000fe3c       $unwind$__scrt_initialize_onexit_tables 000000018004ae3c     LIBCMTD:utility.obj
 0002:0000fe48       $unwind$__scrt_fastfail    000000018004ae48     LIBCMTD:utility_desktop.obj
 0002:0000fe54       $unwind$_RTC_Initialize    000000018004ae54     LIBCMTD:_initsect_.obj
 0002:0000fe54       $unwind$_RTC_Terminate     000000018004ae54     LIBCMTD:_initsect_.obj
 0002:0000fe60       $chain$0$_RTC_Initialize   000000018004ae60     LIBCMTD:_initsect_.obj
 0002:0000fe74       $chain$1$_RTC_Initialize   000000018004ae74     LIBCMTD:_initsect_.obj
 0002:0000fe84       $chain$0$_RTC_Terminate    000000018004ae84     LIBCMTD:_initsect_.obj
 0002:0000fe98       $chain$1$_RTC_Terminate    000000018004ae98     LIBCMTD:_initsect_.obj
 0002:0000fea8       $unwind$__isa_available_init 000000018004aea8     LIBCMTD:_cpu_disp_.obj
 0002:0000feb8       $unwind$?c2RotIdentity@@YA?AUc2r@@XZ 000000018004aeb8     gamecode.obj
 0002:0000feb8       $unwind$_get_printf_count_output 000000018004aeb8     libucrtd:printf_count_output.obj
 0002:0000feb8       $unwind$_guard_icall_checks_enforced 000000018004aeb8     LIBCMTD:guard_support.obj
 0002:0000feb8       $unwind$__scrt_is_ucrt_dll_in_use 000000018004aeb8     LIBCMTD:ucrt_detection.obj
 0002:0000feb8       $unwind$?get_zero_pack@?$__crt_simd_pack_traits@$0A@@@SA?AT__m128i@@XZ 000000018004aeb8     libucrtd:strnlen.obj
 0002:0000fec0       $xdatasym                  000000018004aec0     LIBCMTD:_guard_dispatch_.obj
 0002:0000fec4       $unwind$__telemetry_main_invoke_trigger 000000018004aec4     libvcruntimed:telemetry.obj
 0002:0000fec4       $unwind$__telemetry_main_return_trigger 000000018004aec4     libvcruntimed:telemetry.obj
 0002:0000fed4       $unwind$?ExFilterRethrow@@YAHPEAU_EXCEPTION_POINTERS@@PEAUEHExceptionRecord@@PEAH@Z 000000018004aed4     libvcruntimed:frame.obj
 0002:0000fed4       $unwind$?__telemetry_getfilename@@YAXPEAUHINSTANCE__@@PEA_WK@Z 000000018004aed4     libvcruntimed:telemetry.obj
 0002:0000fed4       $unwind$?c2Clampv@@YA?AUc2v@@U1@00@Z 000000018004aed4     gamecode.obj
 0002:0000fed4       $unwind$?type_case_s_compute_narrow_string_length@?$output_processor@_WV?$string_output_adapter@_W@__crt_stdio_output@@V?$format_validation_base@_WV?$string_output_adapter@_W@__crt_stdio_output@@@2@@__crt_stdio_output@@AEBAHH_W@Z 000000018004aed4     libucrtd:output.obj
 0002:0000fed4       $unwind$?try_get_proc_address_from_first_available_module@@YAPEAXQEBDQEBW4module_id@?A0x1dd686d3@@1@Z 000000018004aed4     libucrtd:winapi_thunks.obj
 0002:0000fed4       $unwind$?common_lseek_do_seek_nolock@@YA_JQEAX_JH@Z 000000018004aed4     libucrtd:lseek.obj
 0002:0000fed4       $unwind$?try_get_proc_address_from_first_available_module@@YAPEAXQEBDQEBW4module_id@?A0xece66f1d@@1@Z 000000018004aed4     libvcruntimed:winapi_downlevel.obj
 0002:0000fed4       $unwind$?__GetUnwindTryBlock@@YAHPEA_KPEAU_xDISPATCHER_CONTEXT@@PEBU_s_FuncInfo@@@Z 000000018004aed4     libvcruntimed:ehstate.obj
 0002:0000fed4       $unwind$?__StateFromIp@@YAHPEBU_s_FuncInfo@@PEAU_xDISPATCHER_CONTEXT@@_J@Z 000000018004aed4     libvcruntimed:ehstate.obj
 0002:0000fedc       $unwind$__C_specific_handler 000000018004aedc     libvcruntimed:_chandler_.obj
 0002:0000fedc       $unwind$?realloc_dbg_nolock@@YAPEAXQEAXQEA_KHQEBDH_N@Z 000000018004aedc     libucrtd:debug_heap.obj
 0002:0000fedc       $unwind$__acrt_fp_format   000000018004aedc     libucrtd:cvt.obj
 0002:0000fedc       $unwind$?fp_format_e_internal@@YAHQEAD_KH_NIQEAU_strflt@@2QEAU__crt_locale_pointers@@@Z 000000018004aedc     libucrtd:cvt.obj
 0002:0000fedc       $unwind$??$common_vsnprintf_s@_W@@YAH_KQEA_W00QEB_WQEAU__crt_locale_pointers@@QEAD@Z 000000018004aedc     libucrtd:output.obj
 0002:0000fedc       $unwind$??$common_vsnprintf_s@D@@YAH_KQEAD00QEBDQEAU__crt_locale_pointers@@1@Z 000000018004aedc     libucrtd:output.obj
 0002:0000fee4       $unwind$_CrtDbgReport      000000018004aee4     libucrtd:dbgrpt.obj
 0002:0000fee4       $unwind$?try_get_function@@YAPEAXW4function_id@?A0xece66f1d@@QEBDQEBW4module_id@2@2@Z 000000018004aee4     libvcruntimed:winapi_downlevel.obj
 0002:0000fee4       $unwind$_call_matherr      000000018004aee4     libucrtd:libm_error.obj
 0002:0000fee4       $unwind$_CrtDbgReportW     000000018004aee4     libucrtd:dbgrpt.obj
 0002:0000fee4       $unwind$?try_get_function@@YAPEAXW4function_id@?A0x1dd686d3@@QEBDQEBW4module_id@2@2@Z 000000018004aee4     libucrtd:winapi_thunks.obj
 0002:0000fef0       $xdatasym                  000000018004aef0     libvcruntimed:_jmpuwind_.obj
 0002:0000ff04       $unwind$?get_ptd_head@@YAPEAU__acrt_ptd@@XZ 000000018004af04     libucrtd:per_thread_data.obj
 0002:0000ff04       $unwind$__vcrt_getptd_noexit 000000018004af04     libvcruntimed:per_thread_data.obj
 0002:0000ff04       $unwind$__acrt_lowio_create_handle_array 000000018004af04     libucrtd:osfinfo.obj
 0002:0000ff04       $unwind$__acrt_is_packaged_app 000000018004af04     libucrtd:winapi_thunks.obj
 0002:0000ff0c       $unwind$?RoundReal32ToInt32@@YAHM@Z 000000018004af0c     gamecode.obj
 0002:0000ff0c       $unwind$roundf             000000018004af0c     libucrtd:roundf.obj
 0002:0000ff0c       $unwind$?AbsoluteValue@@YAMM@Z 000000018004af0c     gamecode.obj
 0002:0000ff0c       $unwind$?RoundReal32ToUInt32@@YAIM@Z 000000018004af0c     gamecode.obj
 0002:0000ff14       $unwind$sqrtf              000000018004af14     libucrtd:sqrtf.obj
 0002:0000ff1c       $unwind$_seh_filter_exe    000000018004af1c     libucrtd:exception_filter.obj
 0002:0000ff24       $unwind$?common_exit@@YAXHW4_crt_exit_cleanup_mode@@W4_crt_exit_return_mode@@@Z 000000018004af24     libucrtd:exit.obj
 0002:0000ff54       $unwind$??$uninitialize_environment_internal@D@@YAXAEAPEAPEAD@Z 000000018004af54     libucrtd:environment_initialization.obj
 0002:0000ff54       $unwind$__dcrt_uninitialize_environments_nolock 000000018004af54     libucrtd:environment_initialization.obj
 0002:0000ff54       $unwind$__vcrt_uninitialize_ptd 000000018004af54     libvcruntimed:per_thread_data.obj
 0002:0000ff54       $unwind$??$uninitialize_environment_internal@_W@@YAXAEAPEAPEA_W@Z 000000018004af54     libucrtd:environment_initialization.obj
 0002:0000ff54       $unwind$__vcrt_initialize_ptd 000000018004af54     libvcruntimed:per_thread_data.obj
 0002:0000ff54       $unwind$?try_get_FlsFree@@YAP6AHK@ZXZ 000000018004af54     libucrtd:winapi_thunks.obj
 0002:0000ff54       $unwind$_query_new_mode    000000018004af54     libucrtd:new_mode.obj
 0002:0000ff54       $unwind$__vcrt_thread_detach 000000018004af54     libvcruntimed:initialization.obj
 0002:0000ff54       $unwind$__vcrt_thread_attach 000000018004af54     libvcruntimed:initialization.obj
 0002:0000ff54       $unwind$__acrt_getptd_noexit 000000018004af54     libucrtd:per_thread_data.obj
 0002:0000ff54       $unwind$__acrt_thread_attach 000000018004af54     libucrtd:initialization.obj
 0002:0000ff54       $unwind$__vcrt_uninitialize_critical 000000018004af54     libvcruntimed:initialization.obj
 0002:0000ff54       $unwind$?try_get_GetLastActivePopup@@YAP6APEAUHWND__@@PEAU1@@ZXZ 000000018004af54     libucrtd:winapi_thunks.obj
 0002:0000ff54       $unwind$__dcrt_terminate_console_output 000000018004af54     libucrtd:initcon.obj
 0002:0000ff54       $unwind$__acrt_thread_detach 000000018004af54     libucrtd:initialization.obj
 0002:0000ff54       $unwind$__vcrt_initialize  000000018004af54     libvcruntimed:initialization.obj
 0002:0000ff54       $unwind$__fpecode          000000018004af54     libucrtd:signal.obj
 0002:0000ff54       $unwind$?try_get_GetProcessWindowStation@@YAP6APEAUHWINSTA__@@XZXZ 000000018004af54     libucrtd:winapi_thunks.obj
 0002:0000ff54       $unwind$?try_get_FlsSetValue@@YAP6AHKPEAX@ZXZ 000000018004af54     libucrtd:winapi_thunks.obj
 0002:0000ff54       $unwind$?try_get_GetActiveWindow@@YAP6APEAUHWND__@@XZXZ 000000018004af54     libucrtd:winapi_thunks.obj
 0002:0000ff54       $unwind$_getfpcontrolword  000000018004af54     libucrtd:_fenvutils.obj
 0002:0000ff54       $unwind$_getfpstatusword   000000018004af54     libucrtd:_fenvutils.obj
 0002:0000ff54       $unwind$__vcrt_initialize_telemetry_provider 000000018004af54     libvcruntimed:telemetry.obj
 0002:0000ff54       $unwind$__report_rangecheckfailure 000000018004af54     LIBCMTD:gs_report.obj
 0002:0000ff54       $unwind$__vcrt_uninitialize_telemetry_provider 000000018004af54     libvcruntimed:telemetry.obj
 0002:0000ff54       $unwind$__acrt_initialize  000000018004af54     libucrtd:initialization.obj
 0002:0000ff54       $unwind$_flushall          000000018004af54     libucrtd:fflush.obj
 0002:0000ff54       $unwind$?try_get_InitializeCriticalSectionEx@@YAP6AHPEAU_RTL_CRITICAL_SECTION@@KK@ZXZ 000000018004af54     libvcruntimed:winapi_downlevel.obj
 0002:0000ff54       $unwind$?try_get_FlsAlloc@@YAP6AKP6AXPEAX@Z@ZXZ 000000018004af54     libucrtd:winapi_thunks.obj
 0002:0000ff54       $unwind$?__scrt_initialize_type_info@@YAXXZ 000000018004af54     LIBCMTD:tncleanup.obj
 0002:0000ff54       $unwind$__acrt_initialize_heap 000000018004af54     libucrtd:heap_handle.obj
 0002:0000ff54       $unwind$?__scrt_uninitialize_type_info@@YAXXZ 000000018004af54     LIBCMTD:tncleanup.obj
 0002:0000ff54       $unwind$?try_get_FlsSetValue@@YAP6AHKPEAX@ZXZ 000000018004af54     libvcruntimed:winapi_downlevel.obj
 0002:0000ff54       $unwind$?try_get_FlsGetValue@@YAP6APEAXK@ZXZ 000000018004af54     libvcruntimed:winapi_downlevel.obj
 0002:0000ff54       $unwind$?try_get_GetUserObjectInformationW@@YAP6AHPEAXH0KPEAK@ZXZ 000000018004af54     libucrtd:winapi_thunks.obj
 0002:0000ff54       $unwind$initialize_global_variables 000000018004af54     libucrtd:initialization.obj
 0002:0000ff54       $unwind$?try_get_EventRegister@@YAP6AKPEBU_GUID@@P6AX0KE_K1PEAU_EVENT_FILTER_DESCRIPTOR@@PEAX@Z3PEA_K@ZXZ 000000018004af54     libvcruntimed:winapi_downlevel.obj
 0002:0000ff54       $unwind$?try_get_FlsFree@@YAP6AHK@ZXZ 000000018004af54     libvcruntimed:winapi_downlevel.obj
 0002:0000ff54       $unwind$__acrt_initialize_multibyte 000000018004af54     libucrtd:mbctype.obj
 0002:0000ff54       $unwind$__scrt_dllmain_before_initialize_c 000000018004af54     LIBCMTD:utility.obj
 0002:0000ff54       $unwind$?try_get_InitializeCriticalSectionEx@@YAP6AHPEAU_RTL_CRITICAL_SECTION@@KK@ZXZ 000000018004af54     libucrtd:winapi_thunks.obj
 0002:0000ff54       $unwind$__acrt_initialize_command_line 000000018004af54     libucrtd:argv_data.obj
 0002:0000ff54       $unwind$__scrt_dllmain_after_initialize_c 000000018004af54     LIBCMTD:utility.obj
 0002:0000ff54       $unwind$initialize_c       000000018004af54     libucrtd:initialization.obj
 0002:0000ff54       $unwind$__scrt_dllmain_uninitialize_c 000000018004af54     LIBCMTD:utility.obj
 0002:0000ff54       $unwind$__scrt_dllmain_uninitialize_critical 000000018004af54     LIBCMTD:utility.obj
 0002:0000ff54       $unwind$__scrt_dllmain_crt_thread_attach 000000018004af54     LIBCMTD:utility.obj
 0002:0000ff54       $unwind$?try_get_MessageBoxW@@YAP6AHPEAUHWND__@@PEB_W1I@ZXZ 000000018004af54     libucrtd:winapi_thunks.obj
 0002:0000ff54       $unwind$__scrt_dllmain_crt_thread_detach 000000018004af54     LIBCMTD:utility.obj
 0002:0000ff54       $unwind$?try_get_EventSetInformation@@YAP6AK_KW4_EVENT_INFO_CLASS@@PEAXK@ZXZ 000000018004af54     libvcruntimed:winapi_downlevel.obj
 0002:0000ff54       $unwind$_is_c_termination_complete 000000018004af54     libucrtd:exit.obj
 0002:0000ff54       $unwind$?try_get_FlsAlloc@@YAP6AKP6AXPEAX@Z@ZXZ 000000018004af54     libvcruntimed:winapi_downlevel.obj
 0002:0000ff54       $unwind$?try_get_GetCurrentPackageId@@YAP6AJPEAIPEAE@ZXZ 000000018004af54     libucrtd:winapi_thunks.obj
 0002:0000ff54       $unwind$_GetThrowImageBase 000000018004af54     libvcruntimed:trnsctrl.obj
 0002:0000ff54       $unwind$?try_get_EventUnregister@@YAP6AK_K@ZXZ 000000018004af54     libvcruntimed:winapi_downlevel.obj
 0002:0000ff54       $unwind$?try_get_MessageBoxA@@YAP6AHPEAUHWND__@@PEBD1I@ZXZ 000000018004af54     libucrtd:winapi_thunks.obj
 0002:0000ff54       $unwind$_GetImageBase      000000018004af54     libvcruntimed:trnsctrl.obj
 0002:0000ff54       $unwind$?try_get_LCMapStringEx@@YAP6AHPEB_WK0HPEA_WHPEAU_nlsversioninfo@@PEAX_J@ZXZ 000000018004af54     libucrtd:winapi_thunks.obj
 0002:0000ff54       $unwind$?try_get_EventWriteTransfer@@YAP6AK_KPEBU_EVENT_DESCRIPTOR@@PEBU_GUID@@2KPEAU_EVENT_DATA_DESCRIPTOR@@@ZXZ 000000018004af54     libvcruntimed:winapi_downlevel.obj
 0002:0000ff54       $unwind$?try_get_LocaleNameToLCID@@YAP6AKPEB_WK@ZXZ 000000018004af54     libucrtd:winapi_thunks.obj
 0002:0000ff54       $unwind$_cexit             000000018004af54     libucrtd:exit.obj
 0002:0000ff54       $unwind$__acrt_initialize_ptd 000000018004af54     libucrtd:per_thread_data.obj
 0002:0000ff54       $unwind$?try_get_FlsGetValue@@YAP6APEAXK@ZXZ 000000018004af54     libucrtd:winapi_thunks.obj
 0002:0000ff5c       $unwind$_invoke_watson_if_error 000000018004af5c     libucrtd:environment_initialization.obj
 0002:0000ff64       $unwind$??$common_initialize_environment_nolock@D@@YAHXZ 000000018004af64     libucrtd:environment_initialization.obj
 0002:0000ff70       $unwind$??$free_environment@D@@YAXQEAPEAD@Z 000000018004af70     libucrtd:environment_initialization.obj
 0002:0000ff70       $unwind$??$free_environment@_W@@YAXQEAPEA_W@Z 000000018004af70     libucrtd:environment_initialization.obj
 0002:0000ff7c       $unwind$??$create_environment@D@@YAQEAPEADQEAD@Z 000000018004af7c     libucrtd:environment_initialization.obj
 0002:0000ff98       $unwind$??R<lambda_942beefa13ab35ff55f86422493ffd6a>@@QEBAHXZ 000000018004af98     libucrtd:onexit.obj
 0002:0000ffa0       $unwind$??R<lambda_e971338317bfa523bb8920b43d823727>@@QEBAHXZ 000000018004afa0     libucrtd:onexit.obj
 0002:0000ffa8       $unwind$??$?RV<lambda_b0d8f1f77f5878de4f648f281b223c15>@@AEAV<lambda_942beefa13ab35ff55f86422493ffd6a>@@V<lambda_7adb6fc9c0d6a5bd4e2d9c212ec7cdcc>@@@?$__crt_seh_guarded_call@H@@QEAAH$$QEAV<lambda_b0d8f1f77f5878de4f648f281b223c15>@@AEAV<lambda_942beefa13ab35ff55f86422493ffd6a>@@$$QEAV<lambda_7adb6fc9c0d6a5bd4e2d9c212ec7cdcc>@@@Z 000000018004afa8     libucrtd:onexit.obj
 0002:0000ffc8       $unwind$??$?RV<lambda_d22e02de4d14401f49897516b29a2b7c>@@AEAV<lambda_e971338317bfa523bb8920b43d823727>@@V<lambda_b0b8599c9027f5b14541fbbd6863d1f1>@@@?$__crt_seh_guarded_call@H@@QEAAH$$QEAV<lambda_d22e02de4d14401f49897516b29a2b7c>@@AEAV<lambda_e971338317bfa523bb8920b43d823727>@@$$QEAV<lambda_b0b8599c9027f5b14541fbbd6863d1f1>@@@Z 000000018004afc8     libucrtd:onexit.obj
 0002:0000ffe8       $unwind$uninitialize_environment 000000018004afe8     libucrtd:initialization.obj
 0002:0000ffe8       $unwind$__acrt_uninitialize_ptd 000000018004afe8     libucrtd:per_thread_data.obj
 0002:0000ffe8       $unwind$_setfpcontrolword  000000018004afe8     libucrtd:_fenvutils.obj
 0002:0000ffe8       $unwind$_exit              000000018004afe8     libucrtd:exit.obj
 0002:0000ffe8       $unwind$__acrt_lock        000000018004afe8     libucrtd:locks.obj
 0002:0000ffe8       $unwind$__acrt_unlock      000000018004afe8     libucrtd:locks.obj
 0002:0000ffe8       $unwind$report_memory_leaks 000000018004afe8     libucrtd:initialization.obj
 0002:0000ffe8       $unwind$__acrt_lowio_unlock_fh 000000018004afe8     libucrtd:osfinfo.obj
 0002:0000ffe8       $unwind$__report_securityfailure 000000018004afe8     LIBCMTD:gs_report.obj
 0002:0000ffe8       $unwind$__scrt_release_startup_lock 000000018004afe8     LIBCMTD:utility.obj
 0002:0000ffe8       $unwind$?exit_or_terminate_process@@YAXI@Z 000000018004afe8     libucrtd:exit.obj
 0002:0000ffe8       $unwind$__vcrt_uninitialize 000000018004afe8     libvcruntimed:initialization.obj
 0002:0000ffe8       $unwind$__scrt_initialize_crt 000000018004afe8     LIBCMTD:utility.obj
 0002:0000ffe8       $unwind$__acrt_uninitialize 000000018004afe8     libucrtd:initialization.obj
 0002:0000ffe8       $unwind$uninitialize_allocated_memory 000000018004afe8     libucrtd:initialization.obj
 0002:0000ffe8       $unwind$__acrt_lowio_lock_fh 000000018004afe8     libucrtd:osfinfo.obj
 0002:0000ffe8       $unwind$uninitialize_vcruntime 000000018004afe8     libucrtd:initialization.obj
 0002:0000ffe8       $unwind$__acrt_uninitialize_critical 000000018004afe8     libucrtd:initialization.obj
 0002:0000fff0       $unwind$terminate          000000018004aff0     libucrtd:terminate.obj
 0002:00010010       $xdatasym                  000000018004b010     libucrtd:strlen.obj
 0002:00010014       $unwind$_CrtCheckMemory    000000018004b014     libucrtd:debug_heap.obj
 0002:00010034       $unwind$_CrtDumpMemoryLeaks 000000018004b034     libucrtd:debug_heap.obj
 0002:00010044       $unwind$_CrtMemCheckpoint  000000018004b044     libucrtd:debug_heap.obj
 0002:00010064       $unwind$_CrtMemDumpAllObjectsSince 000000018004b064     libucrtd:debug_heap.obj
 0002:00010084       $unwind$_CrtSetDbgFlag     000000018004b084     libucrtd:debug_heap.obj
 0002:000100a4       $unwind$_free_dbg          000000018004b0a4     libucrtd:debug_heap.obj
 0002:000100c4       $unwind$_malloc_dbg        000000018004b0c4     libucrtd:debug_heap.obj
 0002:000100cc       $unwind$_msize_dbg         000000018004b0cc     libucrtd:debug_heap.obj
 0002:000100ec       $unwind$_realloc_dbg       000000018004b0ec     libucrtd:debug_heap.obj
 0002:0001010c       $unwind$_chvalidchk_l      000000018004b10c     libucrtd:debug_heap.obj
 0002:0001010c       $unwind$_ischartype_l      000000018004b10c     libucrtd:debug_heap.obj
 0002:00010114       $unwind$_invoke_watson_if_oneof 000000018004b114     libucrtd:debug_heap.obj
 0002:0001011c       $unwind$??0_LocaleUpdate@@QEAA@QEAU__crt_locale_pointers@@@Z 000000018004b11c     libucrtd:debug_heap.obj
 0002:00010128       $unwind$?is_bad_read_pointer@@YA_NQEBX_K@Z 000000018004b128     libucrtd:debug_heap.obj
 0002:00010148       $unwind$?validate_heap_if_required_nolock@@YAXXZ 000000018004b148     libucrtd:debug_heap.obj
 0002:00010168       $unwind$?heap_alloc_dbg_internal@@YAPEAX_KHQEBDH@Z 000000018004b168     libucrtd:debug_heap.obj
 0002:00010188       $unwind$_VCrtDbgReportW$fin$1 000000018004b188     libucrtd:dbgrptt.obj
 0002:00010188       $unwind$_CallSETranslator$filt$0 000000018004b188     libvcruntimed:trnsctrl.obj
 0002:00010188       $unwind$_CrtMemCheckpoint$fin$0 000000018004b188     libucrtd:debug_heap.obj
 0002:00010188       $unwind$_VCrtDbgReportA$fin$1 000000018004b188     libucrtd:dbgrptt.obj
 0002:00010188       $unwind$?fin$0@?0??heap_alloc_dbg_internal@@YAPEAX_KHQEBDH@Z@4HA 000000018004b188     libucrtd:debug_heap.obj
 0002:00010188       $unwind$_VCrtDbgReportW$fin$0 000000018004b188     libucrtd:dbgrptt.obj
 0002:00010188       $unwind$_VCrtDbgReportA$fin$0 000000018004b188     libucrtd:dbgrptt.obj
 0002:00010190       $unwind$?free_dbg_nolock@@YAXQEAXH@Z 000000018004b190     libucrtd:debug_heap.obj
 0002:00010198       $unwind$?check_block@@YA_NQEAU_CrtMemBlockHeader@@@Z 000000018004b198     libucrtd:debug_heap.obj
 0002:000101a0       $unwind$?print_block_data@@YAXQEAU__crt_locale_pointers@@QEAU_CrtMemBlockHeader@@@Z 000000018004b1a0     libucrtd:debug_heap.obj
 0002:000101b0       $unwind$?dump_all_object_since_nolock@@YAXQEBU_CrtMemState@@@Z 000000018004b1b0     libucrtd:debug_heap.obj
 0002:000101b8       $unwind$??$common_tcscpy_s@_W@@YAHQEA_W_KQEB_W@Z 000000018004b1b8     libucrtd:wcscpy_s.obj
 0002:000101b8       $unwind$??$common_tcscpy_s@D@@YAHQEAD_KQEBD@Z 000000018004b1b8     libucrtd:strcpy_s.obj
 0002:000101c0       $xdatasym                  000000018004b1c0     libucrtd:strcmp.obj
 0002:000101c4       $unwind$??$common_message_window@D@@YAHHQEAXQEBD111@Z 000000018004b1c4     libucrtd:dbgrpt.obj
 0002:000101d8       $unwind$__acrt_MessageWindowW 000000018004b1d8     libucrtd:dbgrpt.obj
 0002:000101d8       $unwind$__acrt_MessageWindowA 000000018004b1d8     libucrtd:dbgrpt.obj
 0002:000101d8       $unwind$??$write_multiple_characters@V?$string_output_adapter@_W@__crt_stdio_output@@D@__crt_stdio_output@@YAXAEBV?$string_output_adapter@_W@0@DHQEAH@Z 000000018004b1d8     libucrtd:output.obj
 0002:000101d8       $unwind$__vcrt_EventSetInformation 000000018004b1d8     libvcruntimed:winapi_downlevel.obj
 0002:000101d8       $unwind$?TraceLoggingSetInformation@__vcrt_trace_logging_provider@@YAJPEBU_TlgProvider_t@1@W4_EVENT_INFO_CLASS@@PEAXK@Z 000000018004b1d8     libvcruntimed:telemetry.obj
 0002:000101d8       $unwind$??$write_multiple_characters@V?$string_output_adapter@D@__crt_stdio_output@@D@__crt_stdio_output@@YAXAEBV?$string_output_adapter@D@0@DHQEAH@Z 000000018004b1d8     libucrtd:output.obj
 0002:000101d8       $unwind$__scrt_dllmain_exception_filter 000000018004b1d8     LIBCMTD:utility.obj
 0002:000101e0       $unwind$??$common_message_window@_W@@YAHHQEAXQEB_W111@Z 000000018004b1e0     libucrtd:dbgrpt.obj
 0002:000101f4       $unwind$?try_get_first_available_module@@YAPEAUHINSTANCE__@@QEBW4module_id@?A0x1dd686d3@@0@Z 000000018004b1f4     libucrtd:winapi_thunks.obj
 0002:000101f4       $unwind$?try_get_first_available_module@@YAPEAUHINSTANCE__@@QEBW4module_id@?A0xece66f1d@@0@Z 000000018004b1f4     libvcruntimed:winapi_downlevel.obj
 0002:000101f4       $unwind$_updatetlocinfoEx_nolock 000000018004b1f4     libucrtd:locale_refcounting.obj
 0002:000101f4       $unwind$_register_onexit_function 000000018004b1f4     libucrtd:onexit.obj
 0002:000101f4       $unwind$_realloc_base      000000018004b1f4     libucrtd:realloc_base.obj
 0002:000101f4       $unwind$?_TlgCreateSz@__vcrt_trace_logging_provider@@YAXPEAU_EVENT_DATA_DESCRIPTOR@@PEBD@Z 000000018004b1f4     libvcruntimed:telemetry.obj
 0002:000101f4       $unwind$?c2BBVerts@@YAXPEAUc2v@@PEAUc2AABB@@@Z 000000018004b1f4     gamecode.obj
 0002:000101f4       $unwind$?c2MulxvT@@YA?AUc2v@@Uc2x@@U1@@Z 000000018004b1f4     gamecode.obj
 0002:000101f4       $unwind$?c2Mulxv@@YA?AUc2v@@Uc2x@@U1@@Z 000000018004b1f4     gamecode.obj
 0002:000101f4       $unwind$?force_decimal_point@__crt_stdio_output@@YAXPEADQEAU__crt_locale_pointers@@@Z 000000018004b1f4     libucrtd:output.obj
 0002:000101f4       $unwind$?is_space@__crt_strtox@@YA_N_WPEAU__crt_locale_pointers@@@Z 000000018004b1f4     libucrtd:atox.obj
 0002:000101f4       $unwind$_CreateFrameInfo   000000018004b1f4     libvcruntimed:trnsctrl.obj
 0002:000101f4       $unwind$iswctype           000000018004b1f4     libucrtd:iswctype.obj
 0002:000101f4       $unwind$__acrt_execute_uninitializers 000000018004b1f4     libucrtd:shared_initialization.obj
 0002:000101f4       $unwind$?find_pe_section@@YAPEAU_IMAGE_SECTION_HEADER@@QEAE_K@Z 000000018004b1f4     LIBCMTD:utility.obj
 0002:000101f4       $unwind$?free_crt_array_internal@@YAXQEAPEBX_K@Z 000000018004b1f4     libucrtd:inittime.obj
 0002:000101f4       $unwind$??0big_integer@__crt_strtox@@QEAA@AEBU01@@Z 000000018004b1f4     libucrtd:cfout.obj
 0002:000101f4       $unwind$??$extract_argument_from_va_list@U_CRT_DOUBLE@@U1@@?$standard_base@DV?$string_output_adapter@D@__crt_stdio_output@@@__crt_stdio_output@@IEAA_NAEAU_CRT_DOUBLE@@@Z 000000018004b1f4     libucrtd:output.obj
 0002:000101f4       $unwind$??9__crt_strtox@@YA_NAEBUbig_integer@0@0@Z 000000018004b1f4     libucrtd:cfout.obj
 0002:000101f4       $unwind$??8type_info@@QEBA_NAEBV0@@Z 000000018004b1f4     libvcruntimed:frame.obj
 0002:000101f4       $unwind$?c2MulrvT@@YA?AUc2v@@Uc2r@@U1@@Z 000000018004b1f4     gamecode.obj
 0002:000101f4       $unwind$?c2Minv@@YA?AUc2v@@U1@0@Z 000000018004b1f4     gamecode.obj
 0002:000101f4       $unwind$??4big_integer@__crt_strtox@@QEAAAEAU01@AEBU01@@Z 000000018004b1f4     libucrtd:cfout.obj
 0002:000101f4       $unwind$?c2Mulrv@@YA?AUc2v@@Uc2r@@U1@@Z 000000018004b1f4     gamecode.obj
 0002:000101f4       $unwind$?c2Maxv@@YA?AUc2v@@U1@0@Z 000000018004b1f4     gamecode.obj
 0002:000101f4       $unwind$_initterm          000000018004b1f4     libucrtd:initterm.obj
 0002:000101f4       $unwind$??$extract_argument_from_va_list@U_CRT_DOUBLE@@U1@@?$standard_base@_WV?$string_output_adapter@_W@__crt_stdio_output@@@__crt_stdio_output@@IEAA_NAEAU_CRT_DOUBLE@@@Z 000000018004b1f4     libucrtd:output.obj
 0002:000101f4       $unwind$?_TlgCreateWsz@__vcrt_trace_logging_provider@@YAXPEAU_EVENT_DATA_DESCRIPTOR@@PEB_W@Z 000000018004b1f4     libvcruntimed:telemetry.obj
 0002:000101f4       $unwind$?type_case_c_tchar@?$output_processor@_WV?$string_output_adapter@_W@__crt_stdio_output@@V?$format_validation_base@_WV?$string_output_adapter@_W@__crt_stdio_output@@@2@@__crt_stdio_output@@AEAA_N_W@Z 000000018004b1f4     libucrtd:output.obj
 0002:000101fc       $unwind$?issue_debug_notification@@YA_NQEB_W@Z 000000018004b1fc     libucrtd:report_runtime_error.obj
 0002:000101fc       $unwind$__acrt_stdio_flush_nolock 000000018004b1fc     libucrtd:fflush.obj
 0002:000101fc       $unwind$__acrt_lowio_destroy_handle_array 000000018004b1fc     libucrtd:osfinfo.obj
 0002:000101fc       $unwind$?state_case_normal@?$output_processor@DV?$string_output_adapter@D@__crt_stdio_output@@V?$format_validation_base@DV?$string_output_adapter@D@__crt_stdio_output@@@2@@__crt_stdio_output@@AEAA_NXZ 000000018004b1fc     libucrtd:output.obj
 0002:000101fc       $unwind$_freea_crt         000000018004b1fc     libucrtd:getstringtypea.obj
 0002:000101fc       $unwind$?validate@?$c_string_character_source@_W@__crt_strtox@@QEBA_NXZ 000000018004b1fc     libucrtd:atox.obj
 0002:000101fc       $unwind$_fileno            000000018004b1fc     libucrtd:fileno.obj
 0002:000101fc       $unwind$?state_case_normal@?$output_processor@_WV?$string_output_adapter@_W@__crt_stdio_output@@V?$format_validation_base@_WV?$string_output_adapter@_W@__crt_stdio_output@@@2@@__crt_stdio_output@@AEAA_NXZ 000000018004b1fc     libucrtd:output.obj
 0002:000101fc       $unwind$?validate_and_update_state_at_end_of_format_string@?$format_validation_base@_WV?$string_output_adapter@_W@__crt_stdio_output@@@__crt_stdio_output@@IEBA_NXZ 000000018004b1fc     libucrtd:output.obj
 0002:000101fc       $unwind$?validate@?$string_output_adapter@D@__crt_stdio_output@@QEBA_NXZ 000000018004b1fc     libucrtd:output.obj
 0002:000101fc       $unwind$?Is_bad_exception_allowed@@YAEPEBU_s_ESTypeList@@@Z 000000018004b1fc     libvcruntimed:frame.obj
 0002:000101fc       $unwind$__acrt_free_locale 000000018004b1fc     libucrtd:locale_refcounting.obj
 0002:000101fc       $unwind$?validate@?$c_string_character_source@D@__crt_strtox@@QEBA_NXZ 000000018004b1fc     libucrtd:atox.obj
 0002:000101fc       $unwind$__FrameUnwindFilter 000000018004b1fc     libvcruntimed:frame.obj
 0002:000101fc       $unwind$_onexit            000000018004b1fc     LIBCMTD:utility.obj
 0002:000101fc       $unwind$?validate@?$string_output_adapter@_W@__crt_stdio_output@@QEBA_NXZ 000000018004b1fc     libucrtd:output.obj
 0002:000101fc       $unwind$?GetTableIndexFromLocaleName@@YAHPEB_W@Z 000000018004b1fc     libucrtd:lcidtoname_downlevel.obj
 0002:000101fc       $unwind$__acrt_stdio_free_buffer_nolock 000000018004b1fc     libucrtd:_freebuf.obj
 0002:000101fc       $unwind$_malloc_base       000000018004b1fc     libucrtd:malloc_base.obj
 0002:000101fc       $unwind$?validate_and_update_state_at_end_of_format_string@?$format_validation_base@DV?$string_output_adapter@D@__crt_stdio_output@@@__crt_stdio_output@@IEBA_NXZ 000000018004b1fc     libucrtd:output.obj
 0002:000101fc       $unwind$??R<lambda_e9ab68cc08dfd839979545c079379e6e>@@QEBAHXZ 000000018004b1fc     libucrtd:commit.obj
 0002:00010204       $unwind$??$common_vsprintf@Vformat_validation_base@__crt_stdio_output@@D@@YAH_KQEAD0QEBDQEAU__crt_locale_pointers@@1@Z 000000018004b204     libucrtd:output.obj
 0002:00010204       $unwind$??$common_vsprintf@Vformat_validation_base@__crt_stdio_output@@_W@@YAH_KQEA_W0QEB_WQEAU__crt_locale_pointers@@QEAD@Z 000000018004b204     libucrtd:output.obj
 0002:00010218       $unwind$?check_bytes@@YA_NQEBEE_K@Z 000000018004b218     libucrtd:debug_heap.obj
 0002:00010218       $unwind$_CrtIsValidPointer 000000018004b218     libucrtd:debug_heap.obj
 0002:00010218       $unwind$?multiply_core@__crt_strtox@@YAIQEAIII@Z 000000018004b218     libucrtd:cfout.obj
 0002:00010218       $unwind$?add_carry@__crt_strtox@@YAIAEAIII@Z 000000018004b218     libucrtd:cfout.obj
 0002:00010218       $unwind$??$is_wide_character_specifier@D@__crt_stdio_output@@YA_N_KDW4length_modifier@0@@Z 000000018004b218     libucrtd:output.obj
 0002:00010220       $unwind$??$is_wide_character_specifier@_W@__crt_stdio_output@@YA_N_K_WW4length_modifier@0@@Z 000000018004b220     libucrtd:output.obj
 0002:00010220       $unwind$??$__crt_interlocked_compare_exchange_pointer@X$$T$$T@@YAPEAXPEDSEAX$$T1@Z 000000018004b220     libvcruntimed:winapi_downlevel.obj
 0002:00010220       $unwind$??$__crt_interlocked_compare_exchange_pointer@UHINSTANCE__@@$$T$$T@@YAPEAUHINSTANCE__@@PEDSEAU0@$$T1@Z 000000018004b220     libvcruntimed:winapi_downlevel.obj
 0002:00010228       $unwind$?state_case_normal_tchar@?$output_processor@DV?$string_output_adapter@D@__crt_stdio_output@@V?$format_validation_base@DV?$string_output_adapter@D@__crt_stdio_output@@@2@@__crt_stdio_output@@AEAA_ND@Z 000000018004b228     libucrtd:output.obj
 0002:00010228       $unwind$?unget@?$c_string_character_source@D@__crt_strtox@@QEAAXD@Z 000000018004b228     libucrtd:atox.obj
 0002:00010230       $unwind$?parse_int_from_format_string@?$output_processor@DV?$string_output_adapter@D@__crt_stdio_output@@V?$format_validation_base@DV?$string_output_adapter@D@__crt_stdio_output@@@2@@__crt_stdio_output@@AEAA_NQEAH@Z 000000018004b230     libucrtd:output.obj
 0002:00010230       $unwind$?write_stored_string_tchar@?$output_processor@_WV?$string_output_adapter@_W@__crt_stdio_output@@V?$format_validation_base@_WV?$string_output_adapter@_W@__crt_stdio_output@@@2@@__crt_stdio_output@@AEAA_N_W@Z 000000018004b230     libucrtd:output.obj
 0002:00010230       $unwind$?parse_int_from_format_string@?$output_processor@_WV?$string_output_adapter@_W@__crt_stdio_output@@V?$format_validation_base@_WV?$string_output_adapter@_W@__crt_stdio_output@@@2@@__crt_stdio_output@@AEAA_NQEAH@Z 000000018004b230     libucrtd:output.obj
 0002:00010238       $unwind$?state_case_type@?$output_processor@DV?$string_output_adapter@D@__crt_stdio_output@@V?$format_validation_base@DV?$string_output_adapter@D@__crt_stdio_output@@@2@@__crt_stdio_output@@AEAA_NXZ 000000018004b238     libucrtd:output.obj
 0002:00010240       $unwind$?type_case_s_compute_narrow_string_length@?$output_processor@DV?$string_output_adapter@D@__crt_stdio_output@@V?$format_validation_base@DV?$string_output_adapter@D@__crt_stdio_output@@@2@@__crt_stdio_output@@AEBAHHD@Z 000000018004b240     libucrtd:output.obj
 0002:00010240       $unwind$_DllMainCRTStartup 000000018004b240     LIBCMTD:dll_dllmain.obj
 0002:00010240       $unwind$_lseeki64_nolock   000000018004b240     libucrtd:lseek.obj
 0002:00010248       $unwind$?type_case_integer@?$output_processor@DV?$string_output_adapter@D@__crt_stdio_output@@V?$format_validation_base@DV?$string_output_adapter@D@__crt_stdio_output@@@2@@__crt_stdio_output@@AEAA_NI_N@Z 000000018004b248     libucrtd:output.obj
 0002:00010248       $unwind$?type_case_integer@?$output_processor@_WV?$string_output_adapter@_W@__crt_stdio_output@@V?$format_validation_base@_WV?$string_output_adapter@_W@__crt_stdio_output@@@2@@__crt_stdio_output@@AEAA_NI_N@Z 000000018004b248     libucrtd:output.obj
 0002:00010250       $unwind$?type_case_n@?$output_processor@DV?$string_output_adapter@D@__crt_stdio_output@@V?$format_validation_base@DV?$string_output_adapter@D@__crt_stdio_output@@@2@@__crt_stdio_output@@AEAA_NXZ 000000018004b250     libucrtd:output.obj
 0002:00010250       $unwind$?type_case_n@?$output_processor@_WV?$string_output_adapter@_W@__crt_stdio_output@@V?$format_validation_base@_WV?$string_output_adapter@_W@__crt_stdio_output@@@2@@__crt_stdio_output@@AEAA_NXZ 000000018004b250     libucrtd:output.obj
 0002:00010250       $unwind$?process@?$output_processor@_WV?$string_output_adapter@_W@__crt_stdio_output@@V?$format_validation_base@_WV?$string_output_adapter@_W@__crt_stdio_output@@@2@@__crt_stdio_output@@QEAAHXZ 000000018004b250     libucrtd:output.obj
 0002:00010250       $unwind$?state_case_size@?$output_processor@_WV?$string_output_adapter@_W@__crt_stdio_output@@V?$format_validation_base@_WV?$string_output_adapter@_W@__crt_stdio_output@@@2@@__crt_stdio_output@@AEAA_NXZ 000000018004b250     libucrtd:output.obj
 0002:00010250       $unwind$?process@?$output_processor@DV?$string_output_adapter@D@__crt_stdio_output@@V?$format_validation_base@DV?$string_output_adapter@D@__crt_stdio_output@@@2@@__crt_stdio_output@@QEAAHXZ 000000018004b250     libucrtd:output.obj
 0002:00010250       $unwind$__acrt_report_runtime_error 000000018004b250     libucrtd:report_runtime_error.obj
 0002:00010250       $unwind$?state_case_size@?$output_processor@DV?$string_output_adapter@D@__crt_stdio_output@@V?$format_validation_base@DV?$string_output_adapter@D@__crt_stdio_output@@@2@@__crt_stdio_output@@AEAA_NXZ 000000018004b250     libucrtd:output.obj
 0002:00010250       $unwind$_fclose_nolock     000000018004b250     libucrtd:fclose.obj
 0002:00010258       $unwind$?write_stored_string_tchar@?$output_processor@DV?$string_output_adapter@D@__crt_stdio_output@@V?$format_validation_base@DV?$string_output_adapter@D@__crt_stdio_output@@@2@@__crt_stdio_output@@AEAA_ND@Z 000000018004b258     libucrtd:output.obj
 0002:00010268       $unwind$?find_next_state@?$output_processor@DV?$string_output_adapter@D@__crt_stdio_output@@V?$format_validation_base@DV?$string_output_adapter@D@__crt_stdio_output@@@2@@__crt_stdio_output@@AEBA?AW4state@2@DW432@@Z 000000018004b268     libucrtd:output.obj
 0002:00010268       $unwind$??$common_lseek_nolock@_J@@YA_JH_JH@Z 000000018004b268     libucrtd:lseek.obj
 0002:00010270       $unwind$?adjust_hexit@?$output_processor@_WV?$string_output_adapter@_W@__crt_stdio_output@@V?$format_validation_base@_WV?$string_output_adapter@_W@__crt_stdio_output@@@2@@__crt_stdio_output@@CADH_N@Z 000000018004b270     libucrtd:output.obj
 0002:00010270       $unwind$?adjust_hexit@?$output_processor@DV?$string_output_adapter@D@__crt_stdio_output@@V?$format_validation_base@DV?$string_output_adapter@D@__crt_stdio_output@@@2@@__crt_stdio_output@@CADH_N@Z 000000018004b270     libucrtd:output.obj
 0002:00010278       $unwind$?state_case_type@?$output_processor@_WV?$string_output_adapter@_W@__crt_stdio_output@@V?$format_validation_base@_WV?$string_output_adapter@_W@__crt_stdio_output@@@2@@__crt_stdio_output@@AEAA_NXZ 000000018004b278     libucrtd:output.obj
 0002:00010288       $unwind$?type_case_a@?$output_processor@DV?$string_output_adapter@D@__crt_stdio_output@@V?$format_validation_base@DV?$string_output_adapter@D@__crt_stdio_output@@@2@@__crt_stdio_output@@AEAA_NXZ 000000018004b288     libucrtd:output.obj
 0002:00010288       $unwind$?type_case_a@?$output_processor@_WV?$string_output_adapter@_W@__crt_stdio_output@@V?$format_validation_base@_WV?$string_output_adapter@_W@__crt_stdio_output@@@2@@__crt_stdio_output@@AEAA_NXZ 000000018004b288     libucrtd:output.obj
 0002:00010290       $unwind$_itow_s            000000018004b290     libucrtd:xtoa.obj
 0002:00010290       $unwind$?heap_alloc_dbg@@YAPEAX_KHQEBDH@Z 000000018004b290     libucrtd:debug_heap.obj
 0002:00010290       $unwind$??$type_case_integer_parse_into_buffer@I@?$output_processor@_WV?$string_output_adapter@_W@__crt_stdio_output@@V?$format_validation_base@_WV?$string_output_adapter@_W@__crt_stdio_output@@@2@@__crt_stdio_output@@AEAAXII_N@Z 000000018004b290     libucrtd:output.obj
 0002:00010290       $unwind$??$type_case_integer_parse_into_buffer@I@?$output_processor@DV?$string_output_adapter@D@__crt_stdio_output@@V?$format_validation_base@DV?$string_output_adapter@D@__crt_stdio_output@@@2@@__crt_stdio_output@@AEAAXII_N@Z 000000018004b290     libucrtd:output.obj
 0002:00010290       $unwind$_itoa_s            000000018004b290     libucrtd:xtoa.obj
 0002:00010298       $unwind$wcslen             000000018004b298     libucrtd:wcslen.obj
 0002:00010298       $unwind$?advance_to_next_pass@?$standard_base@DV?$string_output_adapter@D@__crt_stdio_output@@@__crt_stdio_output@@IEAA_NXZ 000000018004b298     libucrtd:output.obj
 0002:00010298       $unwind$??$read_va_arg@E@__crt_stdio_output@@YAEAEAPEAD@Z 000000018004b298     libucrtd:output.obj
 0002:00010298       $unwind$?is_valid@?$__crt_unique_heap_ptr@U__acrt_ptd@@U__crt_internal_free_policy@@@@QEBA_NXZ 000000018004b298     libucrtd:per_thread_data.obj
 0002:00010298       $unwind$?detach@?$__crt_unique_heap_ptr@U__acrt_ptd@@U__crt_internal_free_policy@@@@QEAAPEAU__acrt_ptd@@XZ 000000018004b298     libucrtd:per_thread_data.obj
 0002:00010298       $unwind$?is_valid@?$__crt_unique_heap_ptr@DU__crt_internal_free_policy@@@@QEBA_NXZ 000000018004b298     libvcruntimed:std_type_info.obj
 0002:00010298       $unwind$?get@?$c_string_character_source@D@__crt_strtox@@QEAADXZ 000000018004b298     libucrtd:atox.obj
 0002:00010298       $unwind$??$read_va_arg@F@__crt_stdio_output@@YAFAEAPEAD@Z 000000018004b298     libucrtd:output.obj
 0002:00010298       $unwind$?setSBCS@@YAXPEAU__crt_multibyte_data@@@Z 000000018004b298     libucrtd:mbctype.obj
 0002:00010298       $unwind$?__acrt_fp_is_negative@@YA_NAEBN@Z 000000018004b298     libucrtd:cvt.obj
 0002:00010298       $unwind$??$read_va_arg@C@__crt_stdio_output@@YACAEAPEAD@Z 000000018004b298     libucrtd:output.obj
 0002:00010298       $unwind$??$read_va_arg@H@__crt_stdio_output@@YAHAEAPEAD@Z 000000018004b298     libucrtd:output.obj
 0002:00010298       $unwind$?__crt_fast_encode_pointer@@YA?AU__crt_fast_encoded_nullptr_t@@$$T@Z 000000018004b298     libvcruntimed:winapi_downlevel.obj
 0002:00010298       $unwind$?__acrt_fp_classify@@YA?AW4__acrt_fp_class@@AEBN@Z 000000018004b298     libucrtd:cvt.obj
 0002:00010298       $unwind$??$read_va_arg@PEAD@__crt_stdio_output@@YAPEADAEAPEAD@Z 000000018004b298     libucrtd:output.obj
 0002:00010298       $unwind$?valid@__crt_stdio_stream@@QEBA_NXZ 000000018004b298     libucrtd:output.obj
 0002:00010298       $unwind$?detach@?$__crt_unique_heap_ptr@P6AXXZU__crt_internal_free_policy@@@@QEAAPEAP6AXXZXZ 000000018004b298     libucrtd:onexit.obj
 0002:00010298       $unwind$??B?$__crt_scoped_stack_ptr@_W@@QEBA_NXZ 000000018004b298     libucrtd:lcmapstringa.obj
 0002:00010298       $unwind$?detach@?$__crt_unique_heap_ptr@DU__crt_public_free_policy@@@@QEAAPEADXZ 000000018004b298     libvcruntimed:std_exception.obj
 0002:00010298       $unwind$?is_valid@?$__crt_unique_heap_ptr@U__crt_multibyte_data@@U__crt_internal_free_policy@@@@QEBA_NXZ 000000018004b298     libucrtd:mbctype.obj
 0002:00010298       $unwind$__acrt_get_locale_data_prefix 000000018004b298     libucrtd:debug_heap.obj
 0002:00010298       $unwind$?is_zero@__crt_strtox@@YA_NAEBUbig_integer@1@@Z 000000018004b298     libucrtd:cfout.obj
 0002:00010298       $unwind$?what@exception@std@@UEBAPEBDXZ 000000018004b298     libvcruntimed:frame.obj
 0002:00010298       $unwind$??$read_va_arg@PEAX@__crt_stdio_output@@YAPEAXAEAPEAD@Z 000000018004b298     libucrtd:output.obj
 0002:00010298       $unwind$??$read_va_arg@_W@__crt_stdio_output@@YA_WAEAPEAD@Z 000000018004b298     libucrtd:output.obj
 0002:00010298       $unwind$?is_valid@?$__crt_unique_heap_ptr@U__crt_lowio_handle_data@@U__crt_internal_free_policy@@@@QEBA_NXZ 000000018004b298     libucrtd:osfinfo.obj
 0002:00010298       $unwind$_handle_nan        000000018004b298     libucrtd:libm_error.obj
 0002:00010298       $unwind$??$read_va_arg@U_CRT_DOUBLE@@@__crt_stdio_output@@YA?AU_CRT_DOUBLE@@AEAPEAD@Z 000000018004b298     libucrtd:output.obj
 0002:00010298       $unwind$?advance_to_next_pass@?$standard_base@_WV?$string_output_adapter@_W@__crt_stdio_output@@@__crt_stdio_output@@IEAA_NXZ 000000018004b298     libucrtd:output.obj
 0002:00010298       $unwind$??$read_va_arg@_J@__crt_stdio_output@@YA_JAEAPEAD@Z 000000018004b298     libucrtd:output.obj
 0002:00010298       $unwind$?detach@?$__crt_unique_heap_ptr@PEAU__crt_stdio_stream_data@@U__crt_internal_free_policy@@@@QEAAPEAPEAU__crt_stdio_stream_data@@XZ 000000018004b298     libucrtd:_file.obj
 0002:00010298       $unwind$?c2Hmax@@YAMUc2v@@@Z 000000018004b298     gamecode.obj
 0002:00010298       $unwind$?c2Hmin@@YAMUc2v@@@Z 000000018004b298     gamecode.obj
 0002:00010298       $unwind$?detach@?$__crt_unique_heap_ptr@U__crt_lowio_handle_data@@U__crt_internal_free_policy@@@@QEAAPEAU__crt_lowio_handle_data@@XZ 000000018004b298     libucrtd:osfinfo.obj
 0002:00010298       $unwind$?detach@?$__crt_unique_heap_ptr@U__vcrt_ptd@@U__crt_internal_free_policy@@@@QEAAPEAU__vcrt_ptd@@XZ 000000018004b298     libvcruntimed:per_thread_data.obj
 0002:00010298       $unwind$?c2Skew@@YA?AUc2v@@U1@@Z 000000018004b298     gamecode.obj
 0002:00010298       $unwind$_MallocaComputeSize 000000018004b298     libucrtd:getstringtypea.obj
 0002:00010298       $unwind$??$read_va_arg@G@__crt_stdio_output@@YAGAEAPEAD@Z 000000018004b298     libucrtd:output.obj
 0002:00010298       $unwind$??$read_va_arg@PEAUansi_string@?1??type_case_Z@?$output_processor@_WV?$string_output_adapter@_W@__crt_stdio_output@@V?$format_validation_base@_WV?$string_output_adapter@_W@__crt_stdio_output@@@2@@__crt_stdio_output@@AEAA_NXZ@@__crt_stdio_output@@YAPEAUansi_string@?1??type_case_Z@?$output_processor@_WV?$string_output_adapter@_W@__crt_stdio_output@@V?$format_validation_base@_WV?$string_output_adapter@_W@__crt_stdio_output@@@2@@0@AEAA_NXZ@AEAPEAD@Z 000000018004b298     libucrtd:output.obj
 0002:00010298       $unwind$?is_valid@?$__crt_unique_heap_ptr@U__vcrt_ptd@@U__crt_internal_free_policy@@@@QEBA_NXZ 000000018004b298     libvcruntimed:per_thread_data.obj
 0002:00010298       $unwind$??$read_va_arg@_K@__crt_stdio_output@@YA_KAEAPEAD@Z 000000018004b298     libucrtd:output.obj
 0002:00010298       $unwind$??$read_va_arg@PEAUansi_string@?1??type_case_Z@?$output_processor@DV?$string_output_adapter@D@__crt_stdio_output@@V?$format_validation_base@DV?$string_output_adapter@D@__crt_stdio_output@@@2@@__crt_stdio_output@@AEAA_NXZ@@__crt_stdio_output@@YAPEAUansi_string@?1??type_case_Z@?$output_processor@DV?$string_output_adapter@D@__crt_stdio_output@@V?$format_validation_base@DV?$string_output_adapter@D@__crt_stdio_output@@@2@@0@AEAA_NXZ@AEAPEAD@Z 000000018004b298     libucrtd:output.obj
 0002:00010298       $unwind$?c2CCW90@@YA?AUc2v@@U1@@Z 000000018004b298     gamecode.obj
 0002:00010298       $unwind$_CrtSetDumpClient  000000018004b298     libucrtd:debug_heap.obj
 0002:00010298       $unwind$?is_valid@?$__crt_unique_heap_ptr@DU__crt_public_free_policy@@@@QEBA_NXZ 000000018004b298     libvcruntimed:std_exception.obj
 0002:00010298       $unwind$?__crt_interlocked_read_32@@YAHPEDH@Z 000000018004b298     libucrtd:exit.obj
 0002:00010298       $unwind$??$read_va_arg@I@__crt_stdio_output@@YAIAEAPEAD@Z 000000018004b298     libucrtd:output.obj
 0002:00010298       $unwind$?detach@?$__crt_unique_heap_ptr@U__crt_multibyte_data@@U__crt_internal_free_policy@@@@QEAAPEAU__crt_multibyte_data@@XZ 000000018004b298     libucrtd:mbctype.obj
 0002:00010298       $unwind$?get@?$c_string_character_source@_W@__crt_strtox@@QEAA_WXZ 000000018004b298     libucrtd:atox.obj
 0002:000102a0       $unwind$?fast_check@@YAHHH@Z 000000018004b2a0     libucrtd:_ctype.obj
 0002:000102a0       $unwind$__scrt_uninitialize_crt 000000018004b2a0     LIBCMTD:utility.obj
 0002:000102a0       $unwind$_controlfp         000000018004b2a0     libucrtd:ieee.obj
 0002:000102a0       $unwind$??$is_overflow_condition@K@__crt_strtox@@YA_NIK@Z 000000018004b2a0     libucrtd:atox.obj
 0002:000102a8       $unwind$?_CatchTryBlock@@YAPEBU_s_TryBlockMapEntry@@PEBU_s_FuncInfo@@H@Z 000000018004b2a8     libvcruntimed:trnsctrl.obj
 0002:000102a8       $unwind$?has_any_of@__crt_stdio_stream@@QEBA_NJ@Z 000000018004b2a8     libucrtd:_sftbuf.obj
 0002:000102a8       $unwind$?type_case_c_tchar@?$output_processor@DV?$string_output_adapter@D@__crt_stdio_output@@V?$format_validation_base@DV?$string_output_adapter@D@__crt_stdio_output@@@2@@__crt_stdio_output@@AEAA_ND@Z 000000018004b2a8     libucrtd:output.obj
 0002:000102a8       $unwind$?has_all_of@__crt_stdio_stream@@QEBA_NJ@Z 000000018004b2a8     libucrtd:fflush.obj
 0002:000102a8       $unwind$__vcrt_FlsSetValue 000000018004b2a8     libvcruntimed:winapi_downlevel.obj
 0002:000102a8       $unwind$__acrt_FlsSetValue 000000018004b2a8     libucrtd:winapi_thunks.obj
 0002:000102a8       $unwind$?internal_isupper_l@@YA_NHQEAU__crt_locale_pointers@@@Z 000000018004b2a8     libucrtd:tolower_toupper.obj
 0002:000102a8       $unwind$?is_space@__crt_strtox@@YA_NDQEAU__crt_locale_pointers@@@Z 000000018004b2a8     libucrtd:atox.obj
 0002:000102a8       $unwind$__acrt_LocaleNameToLCID 000000018004b2a8     libucrtd:winapi_thunks.obj
 0002:000102a8       $unwind$_exception_enabled 000000018004b2a8     libucrtd:libm_error.obj
 0002:000102b0       $unwind$_handle_error      000000018004b2b0     libucrtd:libm_error.obj
 0002:000102b0       $unwind$_handle_errorf     000000018004b2b0     libucrtd:libm_error.obj
 0002:000102c0       $unwind$__acrt_uninitialize_stdio 000000018004b2c0     libucrtd:_file.obj
 0002:000102c0       $unwind$__acrt_initialize_locks 000000018004b2c0     libucrtd:locks.obj
 0002:000102c0       $unwind$?initialize_multibyte@@YAHXZ 000000018004b2c0     libucrtd:multibyte_initializer.obj
 0002:000102c0       $unwind$__pctype_func      000000018004b2c0     libucrtd:ctype.obj
 0002:000102c0       $unwind$_statfp            000000018004b2c0     libucrtd:fpctrl.obj
 0002:000102c0       $unwind$__acrt_has_user_matherr 000000018004b2c0     libucrtd:matherr.obj
 0002:000102c0       $unwind$__doserrno         000000018004b2c0     libucrtd:errno.obj
 0002:000102c0       $unwind$_clrfp             000000018004b2c0     libucrtd:fpctrl.obj
 0002:000102c0       $unwind$_errno             000000018004b2c0     libucrtd:errno.obj
 0002:000102c0       $unwind$__scrt_initialize_default_local_stdio_options 000000018004b2c0     LIBCMTD:default_local_stdio_options.obj
 0002:000102c0       $unwind$_statusfp          000000018004b2c0     libucrtd:ieee.obj
 0002:000102c0       $unwind$__acrt_can_show_message_box 000000018004b2c0     libucrtd:winapi_thunks.obj
 0002:000102c0       $unwind$__vcrt_uninitialize_locks 000000018004b2c0     libvcruntimed:locks.obj
 0002:000102c0       $unwind$_clearfp           000000018004b2c0     libucrtd:ieee.obj
 0002:000102c0       $unwind$__vcrt_getptd      000000018004b2c0     libvcruntimed:per_thread_data.obj
 0002:000102c0       $unwind$_invalid_parameter_noinfo 000000018004b2c0     libucrtd:invalid_parameter.obj
 0002:000102c0       $unwind$initialize_pointers 000000018004b2c0     libucrtd:initialization.obj
 0002:000102c0       $unwind$__acrt_getptd      000000018004b2c0     libucrtd:per_thread_data.obj
 0002:000102c0       $unwind$?should_write_error_to_console@@YA_NXZ 000000018004b2c0     libucrtd:report_runtime_error.obj
 0002:000102c0       $unwind$__vcrt_initialize_pure_virtual_call_handler 000000018004b2c0     libvcruntimed:purevirt_data.obj
 0002:000102c0       $unwind$__acrt_get_sigabrt_handler 000000018004b2c0     libucrtd:signal.obj
 0002:000102c0       $unwind$?try_get_ptd_head@@YAPEAU__acrt_ptd@@XZ 000000018004b2c0     libucrtd:per_thread_data.obj
 0002:000102c0       $unwind$abort              000000018004b2c0     libucrtd:abort.obj
 0002:000102c0       $unwind$?should_call_terminate_process@@YA_NXZ 000000018004b2c0     libucrtd:exit.obj
 0002:000102c0       $unwind$?is_managed_app@@YA_NXZ 000000018004b2c0     libucrtd:exit.obj
 0002:000102c0       $unwind$__vcrt_initialize_locks 000000018004b2c0     libvcruntimed:locks.obj
 0002:000102c0       $unwind$__acrt_locale_changed 000000018004b2c0     libucrtd:debug_heap.obj
 0002:000102c0       $unwind$__acrt_freeptd     000000018004b2c0     libucrtd:per_thread_data.obj
 0002:000102c8       $unwind$strnlen            000000018004b2c8     libucrtd:strnlen.obj
 0002:000102c8       $unwind$??$extract_argument_from_va_list@H_J@?$standard_base@DV?$string_output_adapter@D@__crt_stdio_output@@@__crt_stdio_output@@IEAA_NAEA_J@Z 000000018004b2c8     libucrtd:output.obj
 0002:000102c8       $unwind$??$extract_argument_from_va_list@G_J@?$standard_base@DV?$string_output_adapter@D@__crt_stdio_output@@@__crt_stdio_output@@IEAA_NAEA_J@Z 000000018004b2c8     libucrtd:output.obj
 0002:000102c8       $unwind$??$extract_argument_from_va_list@I_J@?$standard_base@DV?$string_output_adapter@D@__crt_stdio_output@@@__crt_stdio_output@@IEAA_NAEA_J@Z 000000018004b2c8     libucrtd:output.obj
 0002:000102c8       $unwind$??$common_strnlen@G@@YA_KQEBG_K@Z 000000018004b2c8     libucrtd:strnlen.obj
 0002:000102c8       $unwind$wcsnlen            000000018004b2c8     libucrtd:strnlen.obj
 0002:000102c8       $unwind$??$extract_argument_from_va_list@F_J@?$standard_base@DV?$string_output_adapter@D@__crt_stdio_output@@@__crt_stdio_output@@IEAA_NAEA_J@Z 000000018004b2c8     libucrtd:output.obj
 0002:000102c8       $unwind$?__StateFromControlPc@@YAHPEBU_s_FuncInfo@@PEAU_xDISPATCHER_CONTEXT@@@Z 000000018004b2c8     libvcruntimed:ehstate.obj
 0002:000102c8       $unwind$??$extract_argument_from_va_list@_J_J@?$standard_base@DV?$string_output_adapter@D@__crt_stdio_output@@@__crt_stdio_output@@IEAA_NAEA_J@Z 000000018004b2c8     libucrtd:output.obj
 0002:000102c8       $unwind$??$extract_argument_from_va_list@E_J@?$standard_base@DV?$string_output_adapter@D@__crt_stdio_output@@@__crt_stdio_output@@IEAA_NAEA_J@Z 000000018004b2c8     libucrtd:output.obj
 0002:000102c8       $unwind$??$__crt_get_proc_address@P6AXI@Z@@YAP6AXI@ZQEAUHINSTANCE__@@QEBD@Z 000000018004b2c8     libucrtd:exit.obj
 0002:000102c8       $unwind$??$extract_argument_from_va_list@_K_J@?$standard_base@DV?$string_output_adapter@D@__crt_stdio_output@@@__crt_stdio_output@@IEAA_NAEA_J@Z 000000018004b2c8     libucrtd:output.obj
 0002:000102c8       $unwind$??$extract_argument_from_va_list@_W_W@?$standard_base@_WV?$string_output_adapter@_W@__crt_stdio_output@@@__crt_stdio_output@@IEAA_NAEA_W@Z 000000018004b2c8     libucrtd:output.obj
 0002:000102c8       $unwind$??$extract_argument_from_va_list@C_J@?$standard_base@DV?$string_output_adapter@D@__crt_stdio_output@@@__crt_stdio_output@@IEAA_NAEA_J@Z 000000018004b2c8     libucrtd:output.obj
 0002:000102c8       $unwind$??$extract_argument_from_va_list@C_J@?$standard_base@_WV?$string_output_adapter@_W@__crt_stdio_output@@@__crt_stdio_output@@IEAA_NAEA_J@Z 000000018004b2c8     libucrtd:output.obj
 0002:000102c8       $unwind$??$extract_argument_from_va_list@E_J@?$standard_base@_WV?$string_output_adapter@_W@__crt_stdio_output@@@__crt_stdio_output@@IEAA_NAEA_J@Z 000000018004b2c8     libucrtd:output.obj
 0002:000102c8       $unwind$??$extract_argument_from_va_list@GD@?$standard_base@DV?$string_output_adapter@D@__crt_stdio_output@@@__crt_stdio_output@@IEAA_NAEAD@Z 000000018004b2c8     libucrtd:output.obj
 0002:000102c8       $unwind$??$extract_argument_from_va_list@F_J@?$standard_base@_WV?$string_output_adapter@_W@__crt_stdio_output@@@__crt_stdio_output@@IEAA_NAEA_J@Z 000000018004b2c8     libucrtd:output.obj
 0002:000102c8       $unwind$??$extract_argument_from_va_list@_W_W@?$standard_base@DV?$string_output_adapter@D@__crt_stdio_output@@@__crt_stdio_output@@IEAA_NAEA_W@Z 000000018004b2c8     libucrtd:output.obj
 0002:000102c8       $unwind$??$extract_argument_from_va_list@G_J@?$standard_base@_WV?$string_output_adapter@_W@__crt_stdio_output@@@__crt_stdio_output@@IEAA_NAEA_J@Z 000000018004b2c8     libucrtd:output.obj
 0002:000102c8       $unwind$??$extract_argument_from_va_list@H_J@?$standard_base@_WV?$string_output_adapter@_W@__crt_stdio_output@@@__crt_stdio_output@@IEAA_NAEA_J@Z 000000018004b2c8     libucrtd:output.obj
 0002:000102c8       $unwind$??$extract_argument_from_va_list@I_J@?$standard_base@_WV?$string_output_adapter@_W@__crt_stdio_output@@@__crt_stdio_output@@IEAA_NAEA_J@Z 000000018004b2c8     libucrtd:output.obj
 0002:000102c8       $unwind$??$extract_argument_from_va_list@PEAXPEAX@?$standard_base@_WV?$string_output_adapter@_W@__crt_stdio_output@@@__crt_stdio_output@@IEAA_NAEAPEAX@Z 000000018004b2c8     libucrtd:output.obj
 0002:000102c8       $unwind$??$extract_argument_from_va_list@_J_J@?$standard_base@_WV?$string_output_adapter@_W@__crt_stdio_output@@@__crt_stdio_output@@IEAA_NAEA_J@Z 000000018004b2c8     libucrtd:output.obj
 0002:000102c8       $unwind$??$?RPEAU__crt_stdio_stream_data@@@__crt_internal_free_policy@@QEBAXQEBQEAU__crt_stdio_stream_data@@@Z 000000018004b2c8     libucrtd:_file.obj
 0002:000102c8       $unwind$??$extract_argument_from_va_list@_K_J@?$standard_base@_WV?$string_output_adapter@_W@__crt_stdio_output@@@__crt_stdio_output@@IEAA_NAEA_J@Z 000000018004b2c8     libucrtd:output.obj
 0002:000102c8       $unwind$??$extract_argument_from_va_list@PEADPEAD@?$standard_base@_WV?$string_output_adapter@_W@__crt_stdio_output@@@__crt_stdio_output@@IEAA_NAEAPEAD@Z 000000018004b2c8     libucrtd:output.obj
 0002:000102c8       $unwind$??$?RP6AXXZ@__crt_internal_free_policy@@QEBAXQEBQ6AXXZ@Z 000000018004b2c8     libucrtd:onexit.obj
 0002:000102c8       $unwind$?replace_current_thread_locale_nolock@@YAXQEAU__acrt_ptd@@QEAU__crt_locale_data@@@Z 000000018004b2c8     libucrtd:per_thread_data.obj
 0002:000102c8       $unwind$_FindPESection     000000018004b2c8     LIBCMTD:pesect.obj
 0002:000102c8       $unwind$??$?RD@__crt_internal_free_policy@@QEBAXQEBD@Z 000000018004b2c8     libvcruntimed:std_type_info.obj
 0002:000102c8       $unwind$__std_type_info_compare 000000018004b2c8     libvcruntimed:std_type_info.obj
 0002:000102c8       $unwind$??$extract_argument_from_va_list@PEAXPEAX@?$standard_base@DV?$string_output_adapter@D@__crt_stdio_output@@@__crt_stdio_output@@IEAA_NAEAPEAX@Z 000000018004b2c8     libucrtd:output.obj
 0002:000102c8       $unwind$??3@YAXPEAX_K@Z    000000018004b2c8     LIBCMTD:delete_scalar_size.obj
 0002:000102c8       $unwind$__acrt_update_locale_info 000000018004b2c8     libucrtd:locale_update.obj
 0002:000102c8       $unwind$__acrt_update_multibyte_info 000000018004b2c8     libucrtd:locale_update.obj
 0002:000102c8       $unwind$??$?RU__crt_lowio_handle_data@@@__crt_internal_free_policy@@QEBAXQEBU__crt_lowio_handle_data@@@Z 000000018004b2c8     libucrtd:osfinfo.obj
 0002:000102c8       $unwind$??$extract_argument_from_va_list@PEADPEAD@?$standard_base@DV?$string_output_adapter@D@__crt_stdio_output@@@__crt_stdio_output@@IEAA_NAEAPEAD@Z 000000018004b2c8     libucrtd:output.obj
 0002:000102c8       $unwind$?c2Dist@@YAMUc2h@@Uc2v@@@Z 000000018004b2c8     gamecode.obj
 0002:000102c8       $unwind$_fd_int            000000018004b2c8     libucrtd:_test.obj
 0002:000102c8       $unwind$??$?RD@__crt_public_free_policy@@QEBAXQEBD@Z 000000018004b2c8     libvcruntimed:std_exception.obj
 0002:000102c8       $unwind$??$extract_argument_from_va_list@PEAUansi_string@?1??type_case_Z@?$output_processor@DV?$string_output_adapter@D@__crt_stdio_output@@V?$format_validation_base@DV?$string_output_adapter@D@__crt_stdio_output@@@2@@__crt_stdio_output@@AEAA_NXZ@PEAU1?1??234@AEAA_NXZ@@?$standard_base@DV?$string_output_adapter@D@__crt_stdio_output@@@__crt_stdio_output@@IEAA_NAEAPEAUansi_string@?1??type_case_Z@?$output_processor@DV?$string_output_adapter@D@__crt_stdio_output@@V?$format_validation_base@DV?$string_output_adapter@D@__crt_stdio_output@@@2@@1@AEAA_NXZ@@Z 000000018004b2c8     libucrtd:output.obj
 0002:000102c8       $unwind$??$extract_argument_from_va_list@PEAUansi_string@?1??type_case_Z@?$output_processor@_WV?$string_output_adapter@_W@__crt_stdio_output@@V?$format_validation_base@_WV?$string_output_adapter@_W@__crt_stdio_output@@@2@@__crt_stdio_output@@AEAA_NXZ@PEAU1?1??234@AEAA_NXZ@@?$standard_base@_WV?$string_output_adapter@_W@__crt_stdio_output@@@__crt_stdio_output@@IEAA_NAEAPEAUansi_string@?1??type_case_Z@?$output_processor@_WV?$string_output_adapter@_W@__crt_stdio_output@@V?$format_validation_base@_WV?$string_output_adapter@_W@__crt_stdio_output@@@2@@1@AEAA_NXZ@@Z 000000018004b2c8     libucrtd:output.obj
 0002:000102c8       $unwind$?crop_zeroes@__crt_stdio_output@@YAXPEADQEAU__crt_locale_pointers@@@Z 000000018004b2c8     libucrtd:output.obj
 0002:000102c8       $unwind$??$?RU__crt_multibyte_data@@@__crt_internal_free_policy@@QEBAXQEBU__crt_multibyte_data@@@Z 000000018004b2c8     libucrtd:mbctype.obj
 0002:000102c8       $unwind$?_CallMemberFunction0@@YAXPEAXP6AX0@Z@Z 000000018004b2c8     libvcruntimed:frame.obj
 0002:000102c8       $unwind$??0bad_exception@std@@QEAA@AEBV01@@Z 000000018004b2c8     libvcruntimed:frame.obj
 0002:000102c8       $unwind$??$common_strnlen@E@@YA_KQEBE_K@Z 000000018004b2c8     libucrtd:strnlen.obj
 0002:000102c8       $unwind$??4?$__crt_unique_heap_ptr@DU__crt_internal_free_policy@@@@QEAAAEAV0@$$QEAV0@@Z 000000018004b2c8     libucrtd:output.obj
 0002:000102c8       $unwind$??$?RU__vcrt_ptd@@@__crt_internal_free_policy@@QEBAXQEBU__vcrt_ptd@@@Z 000000018004b2c8     libvcruntimed:per_thread_data.obj
 0002:000102c8       $unwind$??$?RU__acrt_ptd@@@__crt_internal_free_policy@@QEBAXQEBU__acrt_ptd@@@Z 000000018004b2c8     libucrtd:per_thread_data.obj
 0002:000102d0       $unwind$??$__acrt_lock_and_call@V<lambda_698284760c8add0bfb0756c19673e34b>@@@@YAXW4__acrt_lock_id@@$$QEAV<lambda_698284760c8add0bfb0756c19673e34b>@@@Z 000000018004b2d0     libucrtd:per_thread_data.obj
 0002:000102d0       $unwind$??$__acrt_lock_and_call@V<lambda_6ac21da2756cd333d25ba1adc9a0001e>@@@@YAXW4__acrt_lock_id@@$$QEAV<lambda_6ac21da2756cd333d25ba1adc9a0001e>@@@Z 000000018004b2d0     libucrtd:per_thread_data.obj
 0002:000102d0       $unwind$??$__acrt_lock_and_call@V<lambda_876a65b173b8412d3a47c70a915b0cf4>@@@@YAXW4__acrt_lock_id@@$$QEAV<lambda_876a65b173b8412d3a47c70a915b0cf4>@@@Z 000000018004b2d0     libucrtd:per_thread_data.obj
 0002:000102d0       $unwind$??$__acrt_lock_and_call@V<lambda_2f900415df1f7f624cdaaefe86d0b1c0>@@@@YAXW4__acrt_lock_id@@$$QEAV<lambda_2f900415df1f7f624cdaaefe86d0b1c0>@@@Z 000000018004b2d0     libucrtd:mbctype.obj
 0002:000102d0       $unwind$??$__acrt_lock_and_call@V<lambda_942beefa13ab35ff55f86422493ffd6a>@@@@YAHW4__acrt_lock_id@@$$QEAV<lambda_942beefa13ab35ff55f86422493ffd6a>@@@Z 000000018004b2d0     libucrtd:onexit.obj
 0002:000102d0       $unwind$??$__acrt_lock_and_call@V<lambda_e971338317bfa523bb8920b43d823727>@@@@YAHW4__acrt_lock_id@@$$QEAV<lambda_e971338317bfa523bb8920b43d823727>@@@Z 000000018004b2d0     libucrtd:onexit.obj
 0002:000102d0       $unwind$??$__acrt_lowio_lock_fh_and_call@V<lambda_e9ab68cc08dfd839979545c079379e6e>@@@@YAHH$$QEAV<lambda_e9ab68cc08dfd839979545c079379e6e>@@@Z 000000018004b2d0     libucrtd:commit.obj
 0002:000102d0       $unwind$??$__acrt_lock_and_call@V<lambda_ec61778202f4f5fc7e7711acc23c3bca>@@@@YAP6AXH@ZW4__acrt_lock_id@@$$QEAV<lambda_ec61778202f4f5fc7e7711acc23c3bca>@@@Z 000000018004b2d0     libucrtd:signal.obj
 0002:000102d0       $unwind$??$__acrt_lowio_lock_fh_and_call@V<lambda_a8f98972ebaa5f7148d35bffe53bd70d>@@@@YAHH$$QEAV<lambda_a8f98972ebaa5f7148d35bffe53bd70d>@@@Z 000000018004b2d0     libucrtd:close.obj
 0002:000102d0       $unwind$??$__acrt_lock_and_call@V<lambda_4466841279450cc726390878d4a41900>@@@@YAXW4__acrt_lock_id@@$$QEAV<lambda_4466841279450cc726390878d4a41900>@@@Z 000000018004b2d0     libucrtd:per_thread_data.obj
 0002:000102d8       $unwind$?release@?$__crt_unique_heap_ptr@U__acrt_ptd@@U__crt_internal_free_policy@@@@QEAAXXZ 000000018004b2d8     libucrtd:per_thread_data.obj
 0002:000102d8       $unwind$?release@?$__crt_unique_heap_ptr@U__crt_lowio_handle_data@@U__crt_internal_free_policy@@@@QEAAXXZ 000000018004b2d8     libucrtd:osfinfo.obj
 0002:000102d8       $unwind$?release@?$__crt_unique_heap_ptr@PEAU__crt_stdio_stream_data@@U__crt_internal_free_policy@@@@QEAAXXZ 000000018004b2d8     libucrtd:_file.obj
 0002:000102d8       $unwind$?release@?$__crt_unique_heap_ptr@U__crt_multibyte_data@@U__crt_internal_free_policy@@@@QEAAXXZ 000000018004b2d8     libucrtd:mbctype.obj
 0002:000102d8       $unwind$?release@?$__crt_unique_heap_ptr@P6AXXZU__crt_internal_free_policy@@@@QEAAXXZ 000000018004b2d8     libucrtd:onexit.obj
 0002:000102e0       $unwind$??$?RV<lambda_72d1df2b273a38828b1ce30cbf4cdab5>@@AEAV<lambda_876a65b173b8412d3a47c70a915b0cf4>@@V<lambda_41932305e351933ebe8f8be3ed8bb5dc>@@@?$__crt_seh_guarded_call@X@@QEAAX$$QEAV<lambda_72d1df2b273a38828b1ce30cbf4cdab5>@@AEAV<lambda_876a65b173b8412d3a47c70a915b0cf4>@@$$QEAV<lambda_41932305e351933ebe8f8be3ed8bb5dc>@@@Z 000000018004b2e0     libucrtd:per_thread_data.obj
 0002:00010300       $unwind$??$?RV<lambda_5e887d1dcbef67a5eb4283622ba103bf>@@AEAV<lambda_4466841279450cc726390878d4a41900>@@V<lambda_341c25c0346d94847f1f3c463c57e077>@@@?$__crt_seh_guarded_call@X@@QEAAX$$QEAV<lambda_5e887d1dcbef67a5eb4283622ba103bf>@@AEAV<lambda_4466841279450cc726390878d4a41900>@@$$QEAV<lambda_341c25c0346d94847f1f3c463c57e077>@@@Z 000000018004b300     libucrtd:per_thread_data.obj
 0002:00010320       $unwind$??$?RV<lambda_8773731b9ba2edf4362dda13ebc82854>@@AEAV<lambda_6ac21da2756cd333d25ba1adc9a0001e>@@V<lambda_2c95662d60720604e97e3009a1ee1859>@@@?$__crt_seh_guarded_call@X@@QEAAX$$QEAV<lambda_8773731b9ba2edf4362dda13ebc82854>@@AEAV<lambda_6ac21da2756cd333d25ba1adc9a0001e>@@$$QEAV<lambda_2c95662d60720604e97e3009a1ee1859>@@@Z 000000018004b320     libucrtd:per_thread_data.obj
 0002:00010340       $unwind$??$?RV<lambda_fb3a7dec4e47f37f22dae91bb15c9095>@@AEAV<lambda_698284760c8add0bfb0756c19673e34b>@@V<lambda_dfb8eca1e75fef3034a8fb18dd509707>@@@?$__crt_seh_guarded_call@X@@QEAAX$$QEAV<lambda_fb3a7dec4e47f37f22dae91bb15c9095>@@AEAV<lambda_698284760c8add0bfb0756c19673e34b>@@$$QEAV<lambda_dfb8eca1e75fef3034a8fb18dd509707>@@@Z 000000018004b340     libucrtd:per_thread_data.obj
 0002:00010360       $unwind$__acrt_get_parent_window 000000018004b360     libucrtd:winapi_thunks.obj
 0002:00010360       $unwind$__acrt_initialize_stdio 000000018004b360     libucrtd:_file.obj
 0002:00010360       $unwind$__acrt_initialize_winapi_thunks 000000018004b360     libucrtd:winapi_thunks.obj
 0002:00010360       $unwind$__vcrt_initialize_winapi_thunks 000000018004b360     libvcruntimed:winapi_downlevel.obj
 0002:00010368       $unwind$__acrt_is_interactive 000000018004b368     libucrtd:winapi_thunks.obj
 0002:00010378       $unwind$__acrt_call_reportfault 000000018004b378     libucrtd:invalid_parameter.obj
 0002:0001038c       $unwind$capture_current_context 000000018004b38c     LIBCMTD:gs_report.obj
 0002:0001038c       $unwind$?capture_current_context@@YAXQEAU_CONTEXT@@@Z 000000018004b38c     libucrtd:invalid_parameter.obj
 0002:0001038c       $unwind$capture_previous_context 000000018004b38c     LIBCMTD:gs_report.obj
 0002:00010394       $unwind$__acrt_update_thread_multibyte_data 000000018004b394     libucrtd:mbctype.obj
 0002:000103b4       $unwind$_setmbcp_nolock    000000018004b3b4     libucrtd:mbctype.obj
 0002:000103c4       $unwind$?getSystemCP@@YAHH@Z 000000018004b3c4     libucrtd:mbctype.obj
 0002:000103cc       $unwind$?setSBUpLow@@YAXPEAU__crt_multibyte_data@@@Z 000000018004b3cc     libucrtd:mbctype.obj
 0002:000103dc       $unwind$?setmbcp_internal@@YAHH_N@Z 000000018004b3dc     libucrtd:mbctype.obj
 0002:000103e8       $unwind$??$?RV<lambda_441f2315ac0f593d45428a8fceb6abe6>@@AEAV<lambda_2f900415df1f7f624cdaaefe86d0b1c0>@@V<lambda_1d10a5a8ccb596b49763520e59d5af47>@@@?$__crt_seh_guarded_call@X@@QEAAX$$QEAV<lambda_441f2315ac0f593d45428a8fceb6abe6>@@AEAV<lambda_2f900415df1f7f624cdaaefe86d0b1c0>@@$$QEAV<lambda_1d10a5a8ccb596b49763520e59d5af47>@@@Z 000000018004b3e8     libucrtd:mbctype.obj
 0002:00010408       $unwind$__dcrt_get_narrow_environment_from_os 000000018004b408     libucrtd:get_environment_from_os.obj
 0002:00010420       $unwind$__acrt_initialize_lowio 000000018004b420     libucrtd:ioinit.obj
 0002:00010440       $unwind$?initialize_inherited_file_handles_nolock@@YAXXZ 000000018004b440     libucrtd:ioinit.obj
 0002:00010448       $unwind$_initterm_e        000000018004b448     libucrtd:initterm.obj
 0002:00010448       $unwind$?unget@?$c_string_character_source@_W@__crt_strtox@@QEAAX_W@Z 000000018004b448     libucrtd:atox.obj
 0002:00010448       $unwind$?construct_ptd@@YAXQEAU__acrt_ptd@@QEAPEAU__crt_locale_data@@@Z 000000018004b448     libucrtd:per_thread_data.obj
 0002:00010448       $unwind$?IsInExceptionSpec@@YAEPEAUEHExceptionRecord@@PEBU_s_ESTypeList@@@Z 000000018004b448     libvcruntimed:frame.obj
 0002:00010448       $unwind$__std_exception_copy 000000018004b448     libvcruntimed:std_exception.obj
 0002:00010448       $unwind$__acrt_execute_initializers 000000018004b448     libucrtd:shared_initialization.obj
 0002:00010448       $unwind$??$ensure_buffer_is_big_enough@D@formatting_buffer@__crt_stdio_output@@QEAA_N_K@Z 000000018004b448     libucrtd:output.obj
 0002:00010450       $unwind$_query_new_handler 000000018004b450     libucrtd:new_handler.obj
 0002:00010470       $unwind$raise              000000018004b470     libucrtd:signal.obj
 0002:00010490       $unwind$??$?RV<lambda_c36588078e9f5dfd39652860aa6b3aaf>@@AEAV<lambda_ec61778202f4f5fc7e7711acc23c3bca>@@V<lambda_dc9d2797ccde5d239b4a0efae8ebd7db>@@@?$__crt_seh_guarded_call@P6AXH@Z@@QEAAP6AXH@Z$$QEAV<lambda_c36588078e9f5dfd39652860aa6b3aaf>@@AEAV<lambda_ec61778202f4f5fc7e7711acc23c3bca>@@$$QEAV<lambda_dc9d2797ccde5d239b4a0efae8ebd7db>@@@Z 000000018004b490     libucrtd:signal.obj
 0002:000104b0       $unwind$?has_flag@?$output_processor@DV?$string_output_adapter@D@__crt_stdio_output@@V?$format_validation_base@DV?$string_output_adapter@D@__crt_stdio_output@@@2@@__crt_stdio_output@@AEBA_NI@Z 000000018004b4b0     libucrtd:output.obj
 0002:000104b0       $unwind$?siglookup@@YAPEAU__crt_signal_action_t@@HQEAU1@@Z 000000018004b4b0     libucrtd:signal.obj
 0002:000104b0       $unwind$?set_flags@__crt_stdio_stream@@QEBA_NJ@Z 000000018004b4b0     libucrtd:_sftbuf.obj
 0002:000104b0       $unwind$?unset_flags@__crt_stdio_stream@@QEBA_NJ@Z 000000018004b4b0     libucrtd:_sftbuf.obj
 0002:000104b0       $unwind$?has_flag@?$output_processor@_WV?$string_output_adapter@_W@__crt_stdio_output@@V?$format_validation_base@_WV?$string_output_adapter@_W@__crt_stdio_output@@@2@@__crt_stdio_output@@AEBA_NI@Z 000000018004b4b0     libucrtd:output.obj
 0002:000104b8       $unwind$_isctype_l         000000018004b4b8     libucrtd:isctype.obj
 0002:000104cc       $unwind$_chvalidator       000000018004b4cc     libucrtd:isctype.obj
 0002:000104d4       $unwind$_chvalidator_l     000000018004b4d4     libucrtd:isctype.obj
 0002:000104dc       $unwind$_expand_base       000000018004b4dc     libucrtd:expand.obj
 0002:000104e4       $unwind$__acrt_uninitialize_locale 000000018004b4e4     libucrtd:wsetlocale.obj
 0002:00010504       $unwind$_VCrtDbgReportA    000000018004b504     libucrtd:dbgrptt.obj
 0002:0001053c       $unwind$_VCrtDbgReportW    000000018004b53c     libucrtd:dbgrptt.obj
 0002:00010574       $unwind$sprintf_s          000000018004b574     libvcruntimed:undname.obj
 0002:00010574       $unwind$??$parse_integer_from_string@JDPEAPEAD@__crt_strtox@@YAJQEBDQEAPEADHQEAU__crt_locale_pointers@@@Z 000000018004b574     libucrtd:strtox.obj
 0002:00010574       $unwind$?_GetRangeOfTrysToCheck@@YAPEBU_s_TryBlockMapEntry@@PEA_KPEBU_s_FuncInfo@@HHPEAI2PEAU_xDISPATCHER_CONTEXT@@@Z 000000018004b574     libvcruntimed:trnsctrl.obj
 0002:00010574       $unwind$__GSHandlerCheck_EH 000000018004b574     LIBCMTD:gshandlereh.obj
 0002:00010574       $unwind$__stdio_common_vsnprintf_s 000000018004b574     libucrtd:output.obj
 0002:00010574       $unwind$memcpy_s           000000018004b574     libucrtd:cfout.obj
 0002:00010574       $unwind$??$parse_integer_from_string@J_WPEAPEA_W@__crt_strtox@@YAJQEB_WQEAPEA_WHQEAU__crt_locale_pointers@@@Z 000000018004b574     libucrtd:strtox.obj
 0002:00010574       $unwind$__stdio_common_vsnwprintf_s 000000018004b574     libucrtd:output.obj
 0002:00010574       $unwind$_raise_excf        000000018004b574     libucrtd:fpexcept.obj
 0002:00010574       $unwind$_vsprintf_s_l      000000018004b574     libvcruntimed:undname.obj
 0002:00010574       $unwind$__GSHandlerCheck_SEH 000000018004b574     LIBCMTD:_gshandlerseh_.obj
 0002:00010574       $unwind$memcpy_s           000000018004b574     libucrtd:mbctype.obj
 0002:00010574       $unwind$_snprintf_s        000000018004b574     libucrtd:dbgrptt.obj
 0002:00010574       $unwind$?TraceLoggingRegister@__vcrt_trace_logging_provider@@YAJPEBU_TlgProvider_t@1@PEBU_GUID@@P6AX1KE_K2PEAU_EVENT_FILTER_DESCRIPTOR@@PEAX@Z4@Z 000000018004b574     libvcruntimed:telemetry.obj
 0002:00010574       $unwind$_snwprintf_s       000000018004b574     libucrtd:dbgrpt.obj
 0002:00010574       $unwind$__vcrt_EventWriteTransfer 000000018004b574     libvcruntimed:winapi_downlevel.obj
 0002:00010574       $unwind$_raise_exc         000000018004b574     libucrtd:fpexcept.obj
 0002:0001057c       $unwind$??$common_show_message_box@_W@@YAHQEB_W0I@Z 000000018004b57c     libucrtd:crtmbox.obj
 0002:00010584       $unwind$_invoke_watson     000000018004b584     libucrtd:invalid_parameter.obj
 0002:00010584       $unwind$wcsncpy_s          000000018004b584     libucrtd:wcsncpy_s.obj
 0002:00010584       $unwind$__GSHandlerCheck   000000018004b584     LIBCMTD:_gshandler_.obj
 0002:00010584       $unwind$??$message_box@$$TAEAPEB_WAEAPEB_WAEAI@?$__crt_char_traits@_W@@SAH$$QEA$$TAEAPEB_W1AEAI@Z 000000018004b584     libucrtd:crtmbox.obj
 0002:00010584       $unwind$??$message_box@PEAUHWND__@@AEBQEB_WAEBQEB_WAEBI@?$__crt_char_traits@_W@@SAH$$QEAPEAUHWND__@@AEBQEB_W1AEBI@Z 000000018004b584     libucrtd:crtmbox.obj
 0002:00010584       $unwind$??$message_box@$$TAEBQEB_WAEBQEB_WK@?$__crt_char_traits@_W@@SAH$$QEA$$TAEBQEB_W1$$QEAK@Z 000000018004b584     libucrtd:crtmbox.obj
 0002:00010584       $unwind$?shift_bytes@@YAXQEAD_K0H@Z 000000018004b584     libucrtd:cvt.obj
 0002:00010584       $unwind$??0?$output_adapter_data@DV?$string_output_adapter@D@__crt_stdio_output@@@__crt_stdio_output@@IEAA@AEBV?$string_output_adapter@D@1@_KQEBDQEAU__crt_locale_pointers@@QEAD@Z 000000018004b584     libucrtd:output.obj
 0002:00010584       $unwind$?_CallMemberFunction2@@YAXPEAXP6AX0@Z0H@Z 000000018004b584     libvcruntimed:frame.obj
 0002:00010584       $unwind$??0?$output_adapter_data@_WV?$string_output_adapter@_W@__crt_stdio_output@@@__crt_stdio_output@@IEAA@AEBV?$string_output_adapter@_W@1@_KQEB_WQEAU__crt_locale_pointers@@QEAD@Z 000000018004b584     libucrtd:output.obj
 0002:0001058c       $unwind$?write_string_to_console@@YAXQEB_W@Z 000000018004b58c     libucrtd:report_runtime_error.obj
 0002:0001059c       $unwind$_isleadbyte_l      000000018004b59c     libucrtd:_wctype.obj
 0002:0001059c       $unwind$_isdigit_l         000000018004b59c     libucrtd:_ctype.obj
 0002:000105a4       $unwind$__vcrt_FlsFree     000000018004b5a4     libvcruntimed:winapi_downlevel.obj
 0002:000105a4       $unwind$_close_nolock      000000018004b5a4     libucrtd:close.obj
 0002:000105a4       $unwind$_free_osfhnd       000000018004b5a4     libucrtd:osfinfo.obj
 0002:000105a4       $unwind$_set_errno_from_matherr 000000018004b5a4     libucrtd:fpexcept.obj
 0002:000105a4       $unwind$__acrt_FlsGetValue 000000018004b5a4     libucrtd:winapi_thunks.obj
 0002:000105a4       $unwind$__acrt_uninitialize_locks 000000018004b5a4     libucrtd:locks.obj
 0002:000105a4       $unwind$__acrt_FlsFree     000000018004b5a4     libucrtd:winapi_thunks.obj
 0002:000105a4       $unwind$tolower            000000018004b5a4     libucrtd:tolower_toupper.obj
 0002:000105a4       $unwind$?close_os_handle_nolock@@YAKH@Z 000000018004b5a4     libucrtd:close.obj
 0002:000105a4       $unwind$_setfpstatusword   000000018004b5a4     libucrtd:_fenvutils.obj
 0002:000105a4       $unwind$__acrt_errno_map_os_error 000000018004b5a4     libucrtd:errno.obj
 0002:000105a4       $unwind$isdigit            000000018004b5a4     libucrtd:_ctype.obj
 0002:000105a4       $unwind$__acrt_uninitialize_lowio 000000018004b5a4     libucrtd:ioinit.obj
 0002:000105a4       $unwind$__vcrt_FlsGetValue 000000018004b5a4     libvcruntimed:winapi_downlevel.obj
 0002:000105a4       $unwind$?get_global_action_nolock@@YAPEAP6AXH@ZH@Z 000000018004b5a4     libucrtd:signal.obj
 0002:000105ac       $unwind$??$common_tox_l@$1?internal_isupper_l@@YA_NHQEAU__crt_locale_pointers@@@Z$1?internal_map_lower@@YAHH0@Z@@YAHHKQEAU__crt_locale_pointers@@@Z 000000018004b5ac     libucrtd:tolower_toupper.obj
 0002:000105b8       $unwind$__InternalCxxFrameHandler 000000018004b5b8     libvcruntimed:frame.obj
 0002:000105b8       $unwind$__acrt_LCMapStringA 000000018004b5b8     libucrtd:lcmapstringa.obj
 0002:000105b8       $unwind$?fp_format_e@@YAHQEBNQEAD_K12H_NIQEAU__crt_locale_pointers@@@Z 000000018004b5b8     libucrtd:cvt.obj
 0002:000105b8       $unwind$_mbtowc_l          000000018004b5b8     libucrtd:mbtowc.obj
 0002:000105c0       $unwind$wctomb_s           000000018004b5c0     libucrtd:wctomb.obj
 0002:000105c8       $unwind$_wctomb_s_l        000000018004b5c8     libucrtd:wctomb.obj
 0002:000105d0       $unwind$?get_zero_pack@?$__crt_simd_pack_traits@$00@@SA?AT__m256i@@XZ 000000018004b5d0     libucrtd:strnlen.obj
 0002:000105d8       $unwind$?compare_equals@?$__crt_simd_traits@$00G@@SA?AT__m256i@@T2@0@Z 000000018004b5d8     libucrtd:strnlen.obj
 0002:000105d8       $unwind$?compare_equals@?$__crt_simd_traits@$00E@@SA?AT__m256i@@T2@0@Z 000000018004b5d8     libucrtd:strnlen.obj
 0002:000105e0       $unwind$??$common_strnlen_simd@$00G@@YA_KQEBG_K@Z 000000018004b5e0     libucrtd:strnlen.obj
 0002:000105e0       $unwind$??$common_strnlen_simd@$00E@@YA_KQEBE_K@Z 000000018004b5e0     libucrtd:strnlen.obj
 0002:000105ec       $unwind$??$common_strnlen_simd@$0A@G@@YA_KQEBG_K@Z 000000018004b5ec     libucrtd:strnlen.obj
 0002:000105ec       $unwind$??$common_strnlen_simd@$0A@E@@YA_KQEBE_K@Z 000000018004b5ec     libucrtd:strnlen.obj
 0002:000105f4       $unwind$_tolower_l         000000018004b5f4     libucrtd:tolower_toupper.obj
 0002:000105f4       $unwind$?strrchr@@YAPEADQEADH@Z 000000018004b5f4     libucrtd:cvt.obj
 0002:000105f4       $unwind$??_Gbad_exception@std@@UEAAPEAXI@Z 000000018004b5f4     libvcruntimed:frame.obj
 0002:000105f4       $unwind$??_Gexception@std@@UEAAPEAXI@Z 000000018004b5f4     libvcruntimed:frame.obj
 0002:000105f4       $unwind$??_Gtype_info@@UEAAPEAXI@Z 000000018004b5f4     LIBCMTD:std_type_info_static.obj
 0002:000105f4       $unwind$?xcptlookup@@YAPEAU__crt_signal_action_t@@KQEAU1@@Z 000000018004b5f4     libucrtd:exception_filter.obj
 0002:000105f4       $unwind$_seh_filter_dll    000000018004b5f4     libucrtd:exception_filter.obj
 0002:000105fc       $unwind$?fp_format_nan_or_infinity@@YAHW4__acrt_fp_class@@_NPEAD_K1@Z 000000018004b5fc     libucrtd:cvt.obj
 0002:0001060c       $unwind$?fp_format_a@@YAHQEBNPEAD_KQEAD2H_NIQEAU__crt_locale_pointers@@@Z 000000018004b60c     libucrtd:cvt.obj
 0002:0001061c       $stateUnwindMap$?fp_format_a@@YAHQEBNPEAD_KQEAD2H_NIQEAU__crt_locale_pointers@@@Z 000000018004b61c     libucrtd:cvt.obj
 0002:00010630       $ip2state$?fp_format_a@@YAHQEBNPEAD_KQEAD2H_NIQEAU__crt_locale_pointers@@@Z 000000018004b630     libucrtd:cvt.obj
 0002:00010678       $unwind$?fp_format_f_internal@@YAHQEAD_KHQEAU_strflt@@_NQEAU__crt_locale_pointers@@@Z 000000018004b678     libucrtd:cvt.obj
 0002:00010678       $unwind$?_TlgWrite@__vcrt_trace_logging_provider@@YAJPEBU_TlgProvider_t@1@PEFBXPEBU_GUID@@2IPEAU_EVENT_DATA_DESCRIPTOR@@@Z 000000018004b678     libvcruntimed:telemetry.obj
 0002:00010678       $unwind$??$common_vsprintf_s@D@@YAH_KQEAD0QEBDQEAU__crt_locale_pointers@@1@Z 000000018004b678     libucrtd:output.obj
 0002:00010678       $unwind$__acrt_fp_strflt_to_string 000000018004b678     libucrtd:_fptostr.obj
 0002:00010680       $unwind$?fp_format_f@@YAHQEBNQEAD_K12HQEAU__crt_locale_pointers@@@Z 000000018004b680     libucrtd:cvt.obj
 0002:00010688       $unwind$?fp_format_g@@YAHQEBNQEAD_K12H_NIQEAU__crt_locale_pointers@@@Z 000000018004b688     libucrtd:cvt.obj
 0002:00010694       $unwind$_ctrlfp            000000018004b694     libucrtd:fpctrl.obj
 0002:000106b4       $unwind$__acrt_update_thread_locale_data 000000018004b6b4     libucrtd:locale_refcounting.obj
 0002:000106d4       $unwind$__BuildCatchObject$filt$0 000000018004b6d4     libvcruntimed:frame.obj
 0002:000106d4       $unwind$?fin$0@?0???$?RV<lambda_d22e02de4d14401f49897516b29a2b7c>@@AEAV<lambda_e971338317bfa523bb8920b43d823727>@@V<lambda_b0b8599c9027f5b14541fbbd6863d1f1>@@@?$__crt_seh_guarded_call@H@@QEAAH$$QEAV<lambda_d22e02de4d14401f49897516b29a2b7c>@@AEAV<lambda_e971338317bfa523bb8920b43d823727>@@$$QEAV<lambda_b0b8599c9027f5b14541fbbd6863d1f1>@@@Z@4HA 000000018004b6d4     libucrtd:onexit.obj
 0002:000106d4       $unwind$__FrameUnwindToState$fin$1 000000018004b6d4     libvcruntimed:frame.obj
 0002:000106d4       $unwind$?fin$0@?0???$?RV<lambda_b0d8f1f77f5878de4f648f281b223c15>@@AEAV<lambda_942beefa13ab35ff55f86422493ffd6a>@@V<lambda_7adb6fc9c0d6a5bd4e2d9c212ec7cdcc>@@@?$__crt_seh_guarded_call@H@@QEAAH$$QEAV<lambda_b0d8f1f77f5878de4f648f281b223c15>@@AEAV<lambda_942beefa13ab35ff55f86422493ffd6a>@@$$QEAV<lambda_7adb6fc9c0d6a5bd4e2d9c212ec7cdcc>@@@Z@4HA 000000018004b6d4     libucrtd:onexit.obj
 0002:000106d4       $unwind$__acrt_update_thread_multibyte_data$fin$0 000000018004b6d4     libucrtd:mbctype.obj
 0002:000106d4       $unwind$__acrt_update_thread_locale_data$fin$0 000000018004b6d4     libucrtd:locale_refcounting.obj
 0002:000106d4       $unwind$_IsNonwritableInCurrentImage$filt$0 000000018004b6d4     LIBCMTD:pesect.obj
 0002:000106d4       $unwind$?dtor$0@?0??fp_format_a@@YAHQEBNPEAD_KQEAD2H_NIQEAU__crt_locale_pointers@@@Z@4HA 000000018004b6d4     libucrtd:cvt.obj
 0002:000106d4       $unwind$__FrameUnwindToState$filt$0 000000018004b6d4     libvcruntimed:frame.obj
 0002:000106d4       $unwind$?fin$0@?0???$?RV<lambda_2ce24b26f23dade10250ef086380d911>@@AEAV<lambda_e9ab68cc08dfd839979545c079379e6e>@@V<lambda_6262c464c96e4c69799ed44814c7c457>@@@?$__crt_seh_guarded_call@H@@QEAAH$$QEAV<lambda_2ce24b26f23dade10250ef086380d911>@@AEAV<lambda_e9ab68cc08dfd839979545c079379e6e>@@$$QEAV<lambda_6262c464c96e4c69799ed44814c7c457>@@@Z@4HA 000000018004b6d4     libucrtd:commit.obj
 0002:000106d4       $unwind$?dtor$0@?0??_wcstombs_l_helper@@YA_KPEADPEB_W_KPEAU__crt_locale_pointers@@@Z@4HA 000000018004b6d4     libucrtd:wcstombs.obj
 0002:000106d4       $unwind$__DestructExceptionObject$filt$0 000000018004b6d4     libvcruntimed:frame.obj
 0002:000106d4       $unwind$_ctrlfp$filt$0     000000018004b6d4     libucrtd:fpctrl.obj
 0002:000106d4       $unwind$_fcloseall$fin$0   000000018004b6d4     libucrtd:closeall.obj
 0002:000106d4       $unwind$?fin$0@?0??dllmain_crt_process_attach@@YAHQEAUHINSTANCE__@@QEAX@Z@4HA 000000018004b6d4     LIBCMTD:dll_dllmain.obj
 0002:000106d4       $unwind$__BuildCatchObjectHelper$filt$0 000000018004b6d4     libvcruntimed:frame.obj
 0002:000106d4       $unwind$?filt$0@?0??is_bad_read_pointer@@YA_NQEBX_K@Z@4HA 000000018004b6d4     libucrtd:debug_heap.obj
 0002:000106d4       $unwind$__acrt_initialize_lowio$fin$0 000000018004b6d4     libucrtd:ioinit.obj
 0002:000106d4       $unwind$?fin$0@?0??dllmain_crt_process_detach@@YAH_N@Z@4HA 000000018004b6d4     LIBCMTD:dll_dllmain.obj
 0002:000106d4       $unwind$?filt$0@?0??common_exit@@YAXHW4_crt_exit_cleanup_mode@@W4_crt_exit_return_mode@@@Z@4HA 000000018004b6d4     libucrtd:exit.obj
 0002:000106d4       $unwind$?fin$1@?0??common_exit@@YAXHW4_crt_exit_cleanup_mode@@W4_crt_exit_return_mode@@@Z@4HA 000000018004b6d4     libucrtd:exit.obj
 0002:000106d4       $unwind$terminate$filt$0   000000018004b6d4     libucrtd:terminate.obj
 0002:000106d4       $unwind$common_flush_all$fin$1 000000018004b6d4     libucrtd:fflush.obj
 0002:000106d4       $unwind$__scrt_is_nonwritable_in_current_image$filt$0 000000018004b6d4     LIBCMTD:utility.obj
 0002:000106d4       $unwind$_free_dbg$fin$0    000000018004b6d4     libucrtd:debug_heap.obj
 0002:000106d4       $unwind$?fin$0@?0???$?RV<lambda_441f2315ac0f593d45428a8fceb6abe6>@@AEAV<lambda_2f900415df1f7f624cdaaefe86d0b1c0>@@V<lambda_1d10a5a8ccb596b49763520e59d5af47>@@@?$__crt_seh_guarded_call@X@@QEAAX$$QEAV<lambda_441f2315ac0f593d45428a8fceb6abe6>@@AEAV<lambda_2f900415df1f7f624cdaaefe86d0b1c0>@@$$QEAV<lambda_1d10a5a8ccb596b49763520e59d5af47>@@@Z@4HA 000000018004b6d4     libucrtd:mbctype.obj
 0002:000106d4       $unwind$?fin$0@?0???$?RV<lambda_c36588078e9f5dfd39652860aa6b3aaf>@@AEAV<lambda_ec61778202f4f5fc7e7711acc23c3bca>@@V<lambda_dc9d2797ccde5d239b4a0efae8ebd7db>@@@?$__crt_seh_guarded_call@P6AXH@Z@@QEAAP6AXH@Z$$QEAV<lambda_c36588078e9f5dfd39652860aa6b3aaf>@@AEAV<lambda_ec61778202f4f5fc7e7711acc23c3bca>@@$$QEAV<lambda_dc9d2797ccde5d239b4a0efae8ebd7db>@@@Z@4HA 000000018004b6d4     libucrtd:signal.obj
 0002:000106d4       $unwind$common_flush_all$fin$0 000000018004b6d4     libucrtd:fflush.obj
 0002:000106d4       $unwind$_query_new_handler$fin$0 000000018004b6d4     libucrtd:new_handler.obj
 0002:000106d4       $unwind$__acrt_uninitialize_locale$fin$0 000000018004b6d4     libucrtd:wsetlocale.obj
 0002:000106d4       $unwind$?fin$0@?0???$?RV<lambda_fb3a7dec4e47f37f22dae91bb15c9095>@@AEAV<lambda_698284760c8add0bfb0756c19673e34b>@@V<lambda_dfb8eca1e75fef3034a8fb18dd509707>@@@?$__crt_seh_guarded_call@X@@QEAAX$$QEAV<lambda_fb3a7dec4e47f37f22dae91bb15c9095>@@AEAV<lambda_698284760c8add0bfb0756c19673e34b>@@$$QEAV<lambda_dfb8eca1e75fef3034a8fb18dd509707>@@@Z@4HA 000000018004b6d4     libucrtd:per_thread_data.obj
 0002:000106d4       $unwind$?fin$0@?0???$?RV<lambda_4f1f1a84956f0d44b74de224c960ff76>@@AEAV<lambda_a8f98972ebaa5f7148d35bffe53bd70d>@@V<lambda_f6ca65dda28655a1cf758c1c4e38e52a>@@@?$__crt_seh_guarded_call@H@@QEAAH$$QEAV<lambda_4f1f1a84956f0d44b74de224c960ff76>@@AEAV<lambda_a8f98972ebaa5f7148d35bffe53bd70d>@@$$QEAV<lambda_f6ca65dda28655a1cf758c1c4e38e52a>@@@Z@4HA 000000018004b6d4     libucrtd:close.obj
 0002:000106d4       $unwind$?fin$0@?0???$?RV<lambda_8773731b9ba2edf4362dda13ebc82854>@@AEAV<lambda_6ac21da2756cd333d25ba1adc9a0001e>@@V<lambda_2c95662d60720604e97e3009a1ee1859>@@@?$__crt_seh_guarded_call@X@@QEAAX$$QEAV<lambda_8773731b9ba2edf4362dda13ebc82854>@@AEAV<lambda_6ac21da2756cd333d25ba1adc9a0001e>@@$$QEAV<lambda_2c95662d60720604e97e3009a1ee1859>@@@Z@4HA 000000018004b6d4     libucrtd:per_thread_data.obj
 0002:000106d4       $unwind$?fin$0@?0???$?RV<lambda_5e887d1dcbef67a5eb4283622ba103bf>@@AEAV<lambda_4466841279450cc726390878d4a41900>@@V<lambda_341c25c0346d94847f1f3c463c57e077>@@@?$__crt_seh_guarded_call@X@@QEAAX$$QEAV<lambda_5e887d1dcbef67a5eb4283622ba103bf>@@AEAV<lambda_4466841279450cc726390878d4a41900>@@$$QEAV<lambda_341c25c0346d94847f1f3c463c57e077>@@@Z@4HA 000000018004b6d4     libucrtd:per_thread_data.obj
 0002:000106d4       $unwind$__CxxCallCatchBlock$filt$0 000000018004b6d4     libvcruntimed:frame.obj
 0002:000106d4       $unwind$__CxxCallCatchBlock$fin$1 000000018004b6d4     libvcruntimed:frame.obj
 0002:000106d4       $unwind$?fin$0@?0???$?RV<lambda_72d1df2b273a38828b1ce30cbf4cdab5>@@AEAV<lambda_876a65b173b8412d3a47c70a915b0cf4>@@V<lambda_41932305e351933ebe8f8be3ed8bb5dc>@@@?$__crt_seh_guarded_call@X@@QEAAX$$QEAV<lambda_72d1df2b273a38828b1ce30cbf4cdab5>@@AEAV<lambda_876a65b173b8412d3a47c70a915b0cf4>@@$$QEAV<lambda_41932305e351933ebe8f8be3ed8bb5dc>@@@Z@4HA 000000018004b6d4     libucrtd:per_thread_data.obj
 0002:000106dc       $unwind$__acrt_GetStringTypeA 000000018004b6dc     libucrtd:getstringtypea.obj
 0002:000106e4       $unwind$??1?$__crt_unique_handle_t@U__crt_handle_traits@@@@QEAA@XZ 000000018004b6e4     libucrtd:crtmbox.obj
 0002:000106e4       $unwind$??$tcslen@AEBQEB_W@?$__crt_char_traits@_W@@SA_KAEBQEB_W@Z 000000018004b6e4     libucrtd:dbgrpt.obj
 0002:000106e4       $unwind$??1?$standard_base@DV?$string_output_adapter@D@__crt_stdio_output@@@__crt_stdio_output@@QEAA@XZ 000000018004b6e4     libucrtd:output.obj
 0002:000106e4       $unwind$??$tcslen@AEAY0BAF@_W@?$__crt_char_traits@_W@@SA_KAEAY0BAF@_W@Z 000000018004b6e4     libucrtd:dbgrpt.obj
 0002:000106e4       $unwind$??R<lambda_41932305e351933ebe8f8be3ed8bb5dc>@@QEBAXXZ 000000018004b6e4     libucrtd:per_thread_data.obj
 0002:000106e4       $unwind$??$tcslen@AEBQEBD@?$__crt_char_traits@D@@SA_KAEBQEBD@Z 000000018004b6e4     libucrtd:dbgrpt.obj
 0002:000106e4       $unwind$?update_precision@?$standard_base@DV?$string_output_adapter@D@__crt_stdio_output@@@__crt_stdio_output@@IEAA_NXZ 000000018004b6e4     libucrtd:output.obj
 0002:000106e4       $unwind$??$tcslen@AEAY0BAF@D@?$__crt_char_traits@D@@SA_KAEAY0BAF@D@Z 000000018004b6e4     libucrtd:dbgrpt.obj
 0002:000106e4       $unwind$?update_field_width@?$standard_base@DV?$string_output_adapter@D@__crt_stdio_output@@@__crt_stdio_output@@IEAA_NXZ 000000018004b6e4     libucrtd:output.obj
 0002:000106e4       $unwind$??1?$__crt_scoped_stack_ptr@_W@@QEAA@XZ 000000018004b6e4     libucrtd:getstringtypea.obj
 0002:000106e4       $unwind$?value@?$dual_state_global@PEAU__crt_locale_data@@@__crt_state_management@@QEAAAEAPEAU__crt_locale_data@@XZ 000000018004b6e4     libucrtd:per_thread_data.obj
 0002:000106e4       $unwind$??R<lambda_5e887d1dcbef67a5eb4283622ba103bf>@@QEBAXXZ 000000018004b6e4     libucrtd:per_thread_data.obj
 0002:000106e4       $unwind$__vcrt_freefls     000000018004b6e4     libvcruntimed:per_thread_data.obj
 0002:000106e4       $unwind$?store_and_initialize_ptd@@YA_NQEAU__vcrt_ptd@@@Z 000000018004b6e4     libvcruntimed:per_thread_data.obj
 0002:000106e4       $unwind$??1?$output_adapter_data@DV?$string_output_adapter@D@__crt_stdio_output@@@__crt_stdio_output@@QEAA@XZ 000000018004b6e4     libucrtd:output.obj
 0002:000106e4       $unwind$??1?$__crt_unique_heap_ptr@U__vcrt_ptd@@U__crt_internal_free_policy@@@@QEAA@XZ 000000018004b6e4     libvcruntimed:per_thread_data.obj
 0002:000106e4       $unwind$??R<lambda_341c25c0346d94847f1f3c463c57e077>@@QEBAXXZ 000000018004b6e4     libucrtd:per_thread_data.obj
 0002:000106e4       $unwind$??B?$__crt_unique_heap_ptr@U__vcrt_ptd@@U__crt_internal_free_policy@@@@QEBA_NXZ 000000018004b6e4     libvcruntimed:per_thread_data.obj
 0002:000106e4       $unwind$__acrt_locale_free_monetary 000000018004b6e4     libucrtd:initmon.obj
 0002:000106e4       $unwind$?close@?$__crt_unique_handle_t@U__crt_handle_traits@@@@QEAAXXZ 000000018004b6e4     libucrtd:crtmbox.obj
 0002:000106e4       $unwind$??R<lambda_8773731b9ba2edf4362dda13ebc82854>@@QEBAXXZ 000000018004b6e4     libucrtd:per_thread_data.obj
 0002:000106e4       $unwind$__acrt_locale_free_numeric 000000018004b6e4     libucrtd:initnum.obj
 0002:000106e4       $unwind$??R<lambda_2c95662d60720604e97e3009a1ee1859>@@QEBAXXZ 000000018004b6e4     libucrtd:per_thread_data.obj
 0002:000106e4       $unwind$??R<lambda_72d1df2b273a38828b1ce30cbf4cdab5>@@QEBAXXZ 000000018004b6e4     libucrtd:per_thread_data.obj
 0002:000106e4       $unwind$??$free_crt_array@_W$01@@YAXAEAY01PEA_W@Z 000000018004b6e4     libucrtd:inittime.obj
 0002:000106e4       $unwind$??R<lambda_fb3a7dec4e47f37f22dae91bb15c9095>@@QEBAXXZ 000000018004b6e4     libucrtd:per_thread_data.obj
 0002:000106e4       $unwind$??1?$common_data@_W@__crt_stdio_output@@QEAA@XZ 000000018004b6e4     libucrtd:output.obj
 0002:000106e4       $unwind$??$free_crt_array@_W$0M@@@YAXAEAY0M@PEA_W@Z 000000018004b6e4     libucrtd:inittime.obj
 0002:000106e4       $unwind$?state_case_normal_common@?$output_processor@DV?$string_output_adapter@D@__crt_stdio_output@@V?$format_validation_base@DV?$string_output_adapter@D@__crt_stdio_output@@@2@@__crt_stdio_output@@AEAA_NXZ 000000018004b6e4     libucrtd:output.obj
 0002:000106e4       $unwind$??$__crt_fast_encode_pointer@PEAP6AXXZ@@YAPEAP6AXXZQEAP6AXXZ@Z 000000018004b6e4     LIBCMTD:utility.obj
 0002:000106e4       $unwind$??0?$common_data@_W@__crt_stdio_output@@IEAA@XZ 000000018004b6e4     libucrtd:output.obj
 0002:000106e4       $unwind$??$free_crt_array@_W$06@@YAXAEAY06PEA_W@Z 000000018004b6e4     libucrtd:inittime.obj
 0002:000106e4       $unwind$??1?$common_data@D@__crt_stdio_output@@QEAA@XZ 000000018004b6e4     libucrtd:output.obj
 0002:000106e4       $unwind$??R<lambda_dfb8eca1e75fef3034a8fb18dd509707>@@QEBAXXZ 000000018004b6e4     libucrtd:per_thread_data.obj
 0002:000106e4       $unwind$??0?$common_data@D@__crt_stdio_output@@IEAA@XZ 000000018004b6e4     libucrtd:output.obj
 0002:000106e4       $unwind$??$free_crt_array@D$01@@YAXAEAY01PEAD@Z 000000018004b6e4     libucrtd:inittime.obj
 0002:000106e4       $unwind$?state_case_width@?$output_processor@DV?$string_output_adapter@D@__crt_stdio_output@@V?$format_validation_base@DV?$string_output_adapter@D@__crt_stdio_output@@@2@@__crt_stdio_output@@AEAA_NXZ 000000018004b6e4     libucrtd:output.obj
 0002:000106e4       $unwind$??0scoped_fp_state_reset@?A0x22020a54@@QEAA@XZ 000000018004b6e4     libucrtd:cfout.obj
 0002:000106e4       $unwind$?state_case_precision@?$output_processor@DV?$string_output_adapter@D@__crt_stdio_output@@V?$format_validation_base@DV?$string_output_adapter@D@__crt_stdio_output@@@2@@__crt_stdio_output@@AEAA_NXZ 000000018004b6e4     libucrtd:output.obj
 0002:000106e4       $unwind$??$free_crt_array@D$0M@@@YAXAEAY0M@PEAD@Z 000000018004b6e4     libucrtd:inittime.obj
 0002:000106e4       $unwind$??$__crt_fast_decode_pointer@PEAP6AXXZ@@YAPEAP6AXXZQEAP6AXXZ@Z 000000018004b6e4     LIBCMTD:utility.obj
 0002:000106e4       $unwind$??B?$__crt_unique_handle_t@U__crt_handle_traits@@@@QEBA_NXZ 000000018004b6e4     libucrtd:crtmbox.obj
 0002:000106e4       $unwind$?is_potentially_valid_image_base@@YA_NQEAX@Z 000000018004b6e4     LIBCMTD:utility.obj
 0002:000106e4       $unwind$??$free_crt_array@D$06@@YAXAEAY06PEAD@Z 000000018004b6e4     libucrtd:inittime.obj
 0002:000106e4       $unwind$?type_case_c@?$output_processor@DV?$string_output_adapter@D@__crt_stdio_output@@V?$format_validation_base@DV?$string_output_adapter@D@__crt_stdio_output@@@2@@__crt_stdio_output@@AEAA_NXZ 000000018004b6e4     libucrtd:output.obj
 0002:000106e4       $unwind$??1?$output_adapter_data@_WV?$string_output_adapter@_W@__crt_stdio_output@@@__crt_stdio_output@@QEAA@XZ 000000018004b6e4     libucrtd:output.obj
 0002:000106e4       $unwind$?c2Len@@YAMUc2v@@@Z 000000018004b6e4     gamecode.obj
 0002:000106e4       $unwind$??1formatting_buffer@__crt_stdio_output@@QEAA@XZ 000000018004b6e4     libucrtd:output.obj
 0002:000106e4       $unwind$??$?BX@__crt_fast_encoded_nullptr_t@@QEBAPEAXXZ 000000018004b6e4     libvcruntimed:winapi_downlevel.obj
 0002:000106e4       $unwind$__acrt_locale_free_time 000000018004b6e4     libucrtd:inittime.obj
 0002:000106e4       $unwind$??$output_debug_string@AEBQEB_W@?$__crt_char_traits@_W@@SAXAEBQEB_W@Z 000000018004b6e4     libucrtd:crtmbox.obj
 0002:000106e4       $unwind$??B?$__crt_unique_heap_ptr@U__acrt_ptd@@U__crt_internal_free_policy@@@@QEBA_NXZ 000000018004b6e4     libucrtd:per_thread_data.obj
 0002:000106e4       $unwind$?get_flags@__crt_stdio_stream@@QEBAJXZ 000000018004b6e4     libucrtd:output.obj
 0002:000106e4       $unwind$??1?$__crt_unique_heap_ptr@U__crt_lowio_handle_data@@U__crt_internal_free_policy@@@@QEAA@XZ 000000018004b6e4     libucrtd:osfinfo.obj
 0002:000106e4       $unwind$??B?$__crt_unique_heap_ptr@DU__crt_internal_free_policy@@@@QEBA_NXZ 000000018004b6e4     libvcruntimed:std_type_info.obj
 0002:000106e4       $unwind$??$__crt_interlocked_read_pointer@UHINSTANCE__@@@@YAPEAUHINSTANCE__@@PEDSEAU0@@Z 000000018004b6e4     libvcruntimed:winapi_downlevel.obj
 0002:000106e4       $unwind$?type_case_d@?$output_processor@DV?$string_output_adapter@D@__crt_stdio_output@@V?$format_validation_base@DV?$string_output_adapter@D@__crt_stdio_output@@@2@@__crt_stdio_output@@AEAA_NXZ 000000018004b6e4     libucrtd:output.obj
 0002:000106e4       $unwind$??$__crt_fast_decode_pointer@P6AXPEB_W00I_K@Z@@YAP6AXPEB_W00I_K@ZQ6AX000I1@Z@Z 000000018004b6e4     libucrtd:invalid_parameter.obj
 0002:000106e4       $unwind$?type_case_u@?$output_processor@DV?$string_output_adapter@D@__crt_stdio_output@@V?$format_validation_base@DV?$string_output_adapter@D@__crt_stdio_output@@@2@@__crt_stdio_output@@AEAA_NXZ 000000018004b6e4     libucrtd:output.obj
 0002:000106e4       $unwind$?value@?$dual_state_global@P6AXPEB_W00I_K@Z@__crt_state_management@@QEAAAEAP6AXPEB_W00I_K@ZXZ 000000018004b6e4     libucrtd:invalid_parameter.obj
 0002:000106e4       $unwind$?type_case_o@?$output_processor@DV?$string_output_adapter@D@__crt_stdio_output@@V?$format_validation_base@DV?$string_output_adapter@D@__crt_stdio_output@@@2@@__crt_stdio_output@@AEAA_NXZ 000000018004b6e4     libucrtd:output.obj
 0002:000106e4       $unwind$??$__crt_interlocked_read_pointer@X@@YAPEAXPEDSEAX@Z 000000018004b6e4     libvcruntimed:winapi_downlevel.obj
 0002:000106e4       $unwind$?type_case_X@?$output_processor@DV?$string_output_adapter@D@__crt_stdio_output@@V?$format_validation_base@DV?$string_output_adapter@D@__crt_stdio_output@@@2@@__crt_stdio_output@@AEAA_NXZ 000000018004b6e4     libucrtd:output.obj
 0002:000106e4       $unwind$__acrt_initialize_invalid_parameter_handler 000000018004b6e4     libucrtd:invalid_parameter.obj
 0002:000106e4       $unwind$?type_case_x@?$output_processor@DV?$string_output_adapter@D@__crt_stdio_output@@V?$format_validation_base@DV?$string_output_adapter@D@__crt_stdio_output@@@2@@__crt_stdio_output@@AEAA_NXZ 000000018004b6e4     libucrtd:output.obj
 0002:000106e4       $unwind$??$__crt_fast_decode_pointer@PEAX@@YAPEAXQEAX@Z 000000018004b6e4     libvcruntimed:winapi_downlevel.obj
 0002:000106e4       $unwind$?type_case_p@?$output_processor@DV?$string_output_adapter@D@__crt_stdio_output@@V?$format_validation_base@DV?$string_output_adapter@D@__crt_stdio_output@@@2@@__crt_stdio_output@@AEAA_NXZ 000000018004b6e4     libucrtd:output.obj
 0002:000106e4       $unwind$?__acrt_stdio_free_stream@@YAXV__crt_stdio_stream@@@Z 000000018004b6e4     libucrtd:stream.obj
 0002:000106e4       $unwind$??$__crt_fast_encode_pointer@PEAX@@YAPEAXQEAX@Z 000000018004b6e4     libvcruntimed:winapi_downlevel.obj
 0002:000106e4       $unwind$??B?$__crt_unique_heap_ptr@U__crt_lowio_handle_data@@U__crt_internal_free_policy@@@@QEBA_NXZ 000000018004b6e4     libucrtd:osfinfo.obj
 0002:000106e4       $unwind$??1?$__crt_unique_heap_ptr@DU__crt_internal_free_policy@@@@QEAA@XZ 000000018004b6e4     libvcruntimed:std_type_info.obj
 0002:000106e4       $unwind$??1scoped_fp_state_reset@?A0x22020a54@@QEAA@XZ 000000018004b6e4     libucrtd:cfout.obj
 0002:000106e4       $unwind$??1?$__crt_unique_heap_ptr@PEAU__crt_stdio_stream_data@@U__crt_internal_free_policy@@@@QEAA@XZ 000000018004b6e4     libucrtd:_file.obj
 0002:000106e4       $unwind$?update_field_width@?$standard_base@_WV?$string_output_adapter@_W@__crt_stdio_output@@@__crt_stdio_output@@IEAA_NXZ 000000018004b6e4     libucrtd:output.obj
 0002:000106e4       $unwind$??R<lambda_dc9d2797ccde5d239b4a0efae8ebd7db>@@QEBAXXZ 000000018004b6e4     libucrtd:signal.obj
 0002:000106e4       $unwind$??R<lambda_c36588078e9f5dfd39652860aa6b3aaf>@@QEBAXXZ 000000018004b6e4     libucrtd:signal.obj
 0002:000106e4       $unwind$??R<lambda_ec61778202f4f5fc7e7711acc23c3bca>@@QEBAP6AXH@ZXZ 000000018004b6e4     libucrtd:signal.obj
 0002:000106e4       $unwind$??$__crt_fast_encode_pointer@P6AXH@Z@@YAP6AXH@ZQ6AXH@Z@Z 000000018004b6e4     libucrtd:signal.obj
 0002:000106e4       $unwind$?has_crt_buffer@__crt_stdio_stream@@QEBA_NXZ 000000018004b6e4     libucrtd:_freebuf.obj
 0002:000106e4       $unwind$??B?$__crt_unique_heap_ptr@DU__crt_public_free_policy@@@@QEBA_NXZ 000000018004b6e4     libvcruntimed:std_exception.obj
 0002:000106e4       $unwind$??1?$output_processor@DV?$string_output_adapter@D@__crt_stdio_output@@V?$format_validation_base@DV?$string_output_adapter@D@__crt_stdio_output@@@2@@__crt_stdio_output@@QEAA@XZ 000000018004b6e4     libucrtd:output.obj
 0002:000106e4       $unwind$??$?B$$A6AXH@Z@__crt_fast_encoded_nullptr_t@@QEBAP6AXH@ZXZ 000000018004b6e4     libucrtd:signal.obj
 0002:000106e4       $unwind$??$__crt_fast_decode_pointer@P6AXH@Z@@YAP6AXH@ZQ6AXH@Z@Z 000000018004b6e4     libucrtd:signal.obj
 0002:000106e4       $unwind$??$__crt_fast_decode_pointer@P6AXXZ@@YAP6AXXZQ6AXXZ@Z 000000018004b6e4     libvcruntimed:purevirt.obj
 0002:000106e4       $unwind$??$?B$$A6AXXZ@__crt_fast_encoded_nullptr_t@@QEBAP6AXXZXZ 000000018004b6e4     libvcruntimed:purevirt_data.obj
 0002:000106e4       $unwind$?value@?$dual_state_global@P6AXH@Z@__crt_state_management@@QEAAAEAP6AXH@ZXZ 000000018004b6e4     libucrtd:signal.obj
 0002:000106e4       $unwind$??$__crt_fast_encode_pointer@P6AXXZ@@YAP6AXXZQ6AXXZ@Z 000000018004b6e4     libvcruntimed:purevirt_data.obj
 0002:000106e4       $unwind$__acrt_initialize_signal_handlers 000000018004b6e4     libucrtd:signal.obj
 0002:000106e4       $unwind$?state_case_normal_common@?$output_processor@_WV?$string_output_adapter@_W@__crt_stdio_output@@V?$format_validation_base@_WV?$string_output_adapter@_W@__crt_stdio_output@@@2@@__crt_stdio_output@@AEAA_NXZ 000000018004b6e4     libucrtd:output.obj
 0002:000106e4       $unwind$?TraceLoggingUnregister@__vcrt_trace_logging_provider@@YAXPEBU_TlgProvider_t@1@@Z 000000018004b6e4     libvcruntimed:telemetry.obj
 0002:000106e4       $unwind$_CrtIsValidHeapPointer 000000018004b6e4     libucrtd:debug_heap.obj
 0002:000106e4       $unwind$??0__crt_scoped_get_last_error_reset@@QEAA@XZ 000000018004b6e4     libucrtd:per_thread_data.obj
 0002:000106e4       $unwind$??$__crt_fast_decode_pointer@P6AXPEAXK0@Z@@YAP6AXPEAXK0@ZQ6AX0K0@Z@Z 000000018004b6e4     libucrtd:exit.obj
 0002:000106e4       $unwind$??$data@_W@formatting_buffer@__crt_stdio_output@@QEAAPEA_WXZ 000000018004b6e4     libucrtd:output.obj
 0002:000106e4       $unwind$?state_case_width@?$output_processor@_WV?$string_output_adapter@_W@__crt_stdio_output@@V?$format_validation_base@_WV?$string_output_adapter@_W@__crt_stdio_output@@@2@@__crt_stdio_output@@AEAA_NXZ 000000018004b6e4     libucrtd:output.obj
 0002:000106e4       $unwind$??1?$__crt_unique_heap_ptr@DU__crt_public_free_policy@@@@QEAA@XZ 000000018004b6e4     libvcruntimed:std_exception.obj
 0002:000106e4       $unwind$?state_case_precision@?$output_processor@_WV?$string_output_adapter@_W@__crt_stdio_output@@V?$format_validation_base@_WV?$string_output_adapter@_W@__crt_stdio_output@@@2@@__crt_stdio_output@@AEAA_NXZ 000000018004b6e4     libucrtd:output.obj
 0002:000106e4       $unwind$?update_precision@?$standard_base@_WV?$string_output_adapter@_W@__crt_stdio_output@@@__crt_stdio_output@@IEAA_NXZ 000000018004b6e4     libucrtd:output.obj
 0002:000106e4       $unwind$??$__crt_fast_encode_pointer@P6AXPEAXK0@Z@@YAP6AXPEAXK0@ZQ6AX0K0@Z@Z 000000018004b6e4     libucrtd:exit.obj
 0002:000106e4       $unwind$__std_exception_destroy 000000018004b6e4     libvcruntimed:std_exception.obj
 0002:000106e4       $unwind$??$?B$$A6AXPEAXK0@Z@__crt_fast_encoded_nullptr_t@@QEBAP6AXPEAXK0@ZXZ 000000018004b6e4     libucrtd:exit.obj
 0002:000106e4       $unwind$??1?$standard_base@_WV?$string_output_adapter@_W@__crt_stdio_output@@@__crt_stdio_output@@QEAA@XZ 000000018004b6e4     libucrtd:output.obj
 0002:000106e4       $unwind$?type_case_c@?$output_processor@_WV?$string_output_adapter@_W@__crt_stdio_output@@V?$format_validation_base@_WV?$string_output_adapter@_W@__crt_stdio_output@@@2@@__crt_stdio_output@@AEAA_NXZ 000000018004b6e4     libucrtd:output.obj
 0002:000106e4       $unwind$?close@?$__crt_unique_handle_t@U__crt_hmodule_traits@@@@QEAAXXZ 000000018004b6e4     libucrtd:exit.obj
 0002:000106e4       $unwind$??3@YAXPEAX@Z      000000018004b6e4     LIBCMTD:delete_scalar.obj
 0002:000106e4       $unwind$??1?$__crt_unique_handle_t@U__crt_hmodule_traits@@@@QEAA@XZ 000000018004b6e4     libucrtd:exit.obj
 0002:000106e4       $unwind$?__RethrowException@@YAXPEAUEHExceptionRecord@@@Z 000000018004b6e4     libvcruntimed:frame.obj
 0002:000106e4       $unwind$??$__crt_interlocked_read@J@@YAJPEDJ@Z 000000018004b6e4     libucrtd:exit.obj
 0002:000106e4       $unwind$??1?$format_validation_base@DV?$string_output_adapter@D@__crt_stdio_output@@@__crt_stdio_output@@QEAA@XZ 000000018004b6e4     libucrtd:output.obj
 0002:000106e4       $unwind$_SetImageBase      000000018004b6e4     libvcruntimed:trnsctrl.obj
 0002:000106e4       $unwind$??1?$__crt_unique_heap_ptr@U__acrt_ptd@@U__crt_internal_free_policy@@@@QEAA@XZ 000000018004b6e4     libucrtd:per_thread_data.obj
 0002:000106e4       $unwind$_SetThrowImageBase 000000018004b6e4     libvcruntimed:trnsctrl.obj
 0002:000106e4       $unwind$??$scratch_count@D@formatting_buffer@__crt_stdio_output@@QEBA_KXZ 000000018004b6e4     libucrtd:output.obj
 0002:000106e4       $unwind$_ValidateImageBase 000000018004b6e4     LIBCMTD:pesect.obj
 0002:000106e4       $unwind$?type_case_d@?$output_processor@_WV?$string_output_adapter@_W@__crt_stdio_output@@V?$format_validation_base@_WV?$string_output_adapter@_W@__crt_stdio_output@@@2@@__crt_stdio_output@@AEAA_NXZ 000000018004b6e4     libucrtd:output.obj
 0002:000106e4       $unwind$??$data@D@formatting_buffer@__crt_stdio_output@@QEAAPEADXZ 000000018004b6e4     libucrtd:output.obj
 0002:000106e4       $unwind$?type_case_u@?$output_processor@_WV?$string_output_adapter@_W@__crt_stdio_output@@V?$format_validation_base@_WV?$string_output_adapter@_W@__crt_stdio_output@@@2@@__crt_stdio_output@@AEAA_NXZ 000000018004b6e4     libucrtd:output.obj
 0002:000106e4       $unwind$??R<lambda_698284760c8add0bfb0756c19673e34b>@@QEBAXXZ 000000018004b6e4     libucrtd:per_thread_data.obj
 0002:000106e4       $unwind$?type_case_o@?$output_processor@_WV?$string_output_adapter@_W@__crt_stdio_output@@V?$format_validation_base@_WV?$string_output_adapter@_W@__crt_stdio_output@@@2@@__crt_stdio_output@@AEAA_NXZ 000000018004b6e4     libucrtd:output.obj
 0002:000106e4       $unwind$??R<lambda_b0b8599c9027f5b14541fbbd6863d1f1>@@QEBAXXZ 000000018004b6e4     libucrtd:onexit.obj
 0002:000106e4       $unwind$?type_case_X@?$output_processor@_WV?$string_output_adapter@_W@__crt_stdio_output@@V?$format_validation_base@_WV?$string_output_adapter@_W@__crt_stdio_output@@@2@@__crt_stdio_output@@AEAA_NXZ 000000018004b6e4     libucrtd:output.obj
 0002:000106e4       $unwind$free               000000018004b6e4     libucrtd:free.obj
 0002:000106e4       $unwind$?type_case_x@?$output_processor@_WV?$string_output_adapter@_W@__crt_stdio_output@@V?$format_validation_base@_WV?$string_output_adapter@_W@__crt_stdio_output@@@2@@__crt_stdio_output@@AEAA_NXZ 000000018004b6e4     libucrtd:output.obj
 0002:000106e4       $unwind$??R<lambda_d22e02de4d14401f49897516b29a2b7c>@@QEBAXXZ 000000018004b6e4     libucrtd:onexit.obj
 0002:000106e4       $unwind$?type_case_p@?$output_processor@_WV?$string_output_adapter@_W@__crt_stdio_output@@V?$format_validation_base@_WV?$string_output_adapter@_W@__crt_stdio_output@@@2@@__crt_stdio_output@@AEAA_NXZ 000000018004b6e4     libucrtd:output.obj
 0002:000106e4       $unwind$??$count@D@formatting_buffer@__crt_stdio_output@@QEBA_KXZ 000000018004b6e4     libucrtd:output.obj
 0002:000106e4       $unwind$??0big_integer@__crt_strtox@@QEAA@XZ 000000018004b6e4     libucrtd:cfout.obj
 0002:000106e4       $unwind$_guard_check_icall 000000018004b6e4     LIBCMTD:checkcfg.obj
 0002:000106e4       $unwind$??R<lambda_1d10a5a8ccb596b49763520e59d5af47>@@QEBAXXZ 000000018004b6e4     libucrtd:mbctype.obj
 0002:000106e4       $unwind$malloc             000000018004b6e4     libucrtd:malloc.obj
 0002:000106e4       $unwind$??R<lambda_b0d8f1f77f5878de4f648f281b223c15>@@QEBAXXZ 000000018004b6e4     libucrtd:onexit.obj
 0002:000106e4       $unwind$??R<lambda_2ce24b26f23dade10250ef086380d911>@@QEBAXXZ 000000018004b6e4     libucrtd:commit.obj
 0002:000106e4       $unwind$??1?$format_validation_base@_WV?$string_output_adapter@_W@__crt_stdio_output@@@__crt_stdio_output@@QEAA@XZ 000000018004b6e4     libucrtd:output.obj
 0002:000106e4       $unwind$__raise_securityfailure 000000018004b6e4     LIBCMTD:gs_report.obj
 0002:000106e4       $unwind$??R<lambda_6262c464c96e4c69799ed44814c7c457>@@QEBAXXZ 000000018004b6e4     libucrtd:commit.obj
 0002:000106e4       $unwind$??1?$__crt_unique_heap_ptr@U__crt_multibyte_data@@U__crt_internal_free_policy@@@@QEAA@XZ 000000018004b6e4     libucrtd:mbctype.obj
 0002:000106e4       $unwind$??$__crt_fast_encode_pointer@P6AHXZ@@YAP6AHXZQ6AHXZ@Z 000000018004b6e4     libucrtd:onexit.obj
 0002:000106e4       $unwind$??1?$__crt_unique_heap_ptr@P6AXXZU__crt_internal_free_policy@@@@QEAA@XZ 000000018004b6e4     libucrtd:onexit.obj
 0002:000106e4       $unwind$??1?$output_processor@_WV?$string_output_adapter@_W@__crt_stdio_output@@V?$format_validation_base@_WV?$string_output_adapter@_W@__crt_stdio_output@@@2@@__crt_stdio_output@@QEAA@XZ 000000018004b6e4     libucrtd:output.obj
 0002:000106e4       $unwind$__acrt_locale_free_lc_time_if_unreferenced 000000018004b6e4     libucrtd:locale_refcounting.obj
 0002:000106e4       $unwind$??$?BP6AXXZ@__crt_fast_encoded_nullptr_t@@QEBAPEAP6AXXZXZ 000000018004b6e4     libucrtd:onexit.obj
 0002:000106e4       $unwind$??1bad_exception@std@@UEAA@XZ 000000018004b6e4     libvcruntimed:frame.obj
 0002:000106e4       $unwind$_crt_atexit        000000018004b6e4     libucrtd:onexit.obj
 0002:000106e4       $unwind$??0bad_exception@std@@QEAA@XZ 000000018004b6e4     libvcruntimed:frame.obj
 0002:000106e4       $unwind$??R<lambda_4466841279450cc726390878d4a41900>@@QEBAXXZ 000000018004b6e4     libucrtd:per_thread_data.obj
 0002:000106e4       $unwind$??B?$__crt_unique_heap_ptr@U__crt_multibyte_data@@U__crt_internal_free_policy@@@@QEBA_NXZ 000000018004b6e4     libucrtd:mbctype.obj
 0002:000106e4       $unwind$??R<lambda_2f900415df1f7f624cdaaefe86d0b1c0>@@QEBAXXZ 000000018004b6e4     libucrtd:mbctype.obj
 0002:000106e4       $unwind$?value@?$dual_state_global@J@__crt_state_management@@QEAAAEAJXZ 000000018004b6e4     libucrtd:new_mode.obj
 0002:000106e4       $unwind$??1exception@std@@UEAA@XZ 000000018004b6e4     libvcruntimed:frame.obj
 0002:000106e4       $unwind$??1__crt_scoped_get_last_error_reset@@QEAA@XZ 000000018004b6e4     libucrtd:per_thread_data.obj
 0002:000106e4       $unwind$??R<lambda_441f2315ac0f593d45428a8fceb6abe6>@@QEBAXXZ 000000018004b6e4     libucrtd:mbctype.obj
 0002:000106e4       $unwind$__acrt_initialize_new_handler 000000018004b6e4     libucrtd:new_handler.obj
 0002:000106e4       $unwind$__acrt_initialize_user_matherr 000000018004b6e4     libucrtd:matherr.obj
 0002:000106e4       $unwind$?has_big_buffer@__crt_stdio_stream@@QEBA_NXZ 000000018004b6e4     libucrtd:fflush.obj
 0002:000106e4       $unwind$?destroy_fls@@YAXPEAX@Z 000000018004b6e4     libucrtd:per_thread_data.obj
 0002:000106e4       $unwind$?value@?$dual_state_global@P6AH_K@Z@__crt_state_management@@QEAAAEAP6AH_K@ZXZ 000000018004b6e4     libucrtd:new_handler.obj
 0002:000106e4       $unwind$?value@?$dual_state_global@P6AHPEAU_exception@@@Z@__crt_state_management@@QEAAAEAP6AHPEAU_exception@@@ZXZ 000000018004b6e4     libucrtd:matherr.obj
 0002:000106e4       $unwind$??$__crt_fast_decode_pointer@P6AH_K@Z@@YAP6AH_K@ZQ6AH0@Z@Z 000000018004b6e4     libucrtd:new_handler.obj
 0002:000106e4       $unwind$??0formatting_buffer@__crt_stdio_output@@QEAA@XZ 000000018004b6e4     libucrtd:output.obj
 0002:000106e4       $unwind$??$__crt_fast_decode_pointer@P6AHPEAU_exception@@@Z@@YAP6AHPEAU_exception@@@ZQ6AH0@Z@Z 000000018004b6e4     libucrtd:matherr.obj
 0002:000106e4       $unwind$fegetenv           000000018004b6e4     libucrtd:fegetenv.obj
 0002:000106e4       $unwind$?lowio_handle@__crt_stdio_stream@@QEBAHXZ 000000018004b6e4     libucrtd:fileno.obj
 0002:000106e4       $unwind$_msize             000000018004b6e4     libucrtd:msize.obj
 0002:000106e4       $unwind$??R<lambda_4f1f1a84956f0d44b74de224c960ff76>@@QEBAXXZ 000000018004b6e4     libucrtd:close.obj
 0002:000106e4       $unwind$??R<lambda_f6ca65dda28655a1cf758c1c4e38e52a>@@QEBAXXZ 000000018004b6e4     libucrtd:close.obj
 0002:000106e4       $unwind$??R<lambda_7adb6fc9c0d6a5bd4e2d9c212ec7cdcc>@@QEBAXXZ 000000018004b6e4     libucrtd:onexit.obj
 0002:000106ec       $unwind$?_mbstowcs_l_helper@@YA_KPEA_WPEBD_KPEAU__crt_locale_pointers@@@Z 000000018004b6ec     libucrtd:mbstowcs.obj
 0002:000106ec       $unwind$_mbstowcs_s_l      000000018004b6ec     libucrtd:mbstowcs.obj
 0002:000106ec       $unwind$?__acrt_LCMapStringA_stat@@YAHPEAU__crt_locale_pointers@@PEB_WKPEBDHPEADHHH@Z 000000018004b6ec     libucrtd:lcmapstringa.obj
 0002:000106f4       $unwind$?try_cor_exit_process@@YAXI@Z 000000018004b6f4     libucrtd:exit.obj
 0002:000106f4       $unwind$_isatty            000000018004b6f4     libucrtd:isatty.obj
 0002:000106f4       $unwind$_set_error_mode    000000018004b6f4     libucrtd:set_error_mode.obj
 0002:000106f4       $unwind$__vcrt_uninitialize_winapi_thunks 000000018004b6f4     libvcruntimed:winapi_downlevel.obj
 0002:000106f4       $unwind$__acrt_uninitialize_winapi_thunks 000000018004b6f4     libucrtd:winapi_thunks.obj
 0002:000106f4       $unwind$?write_requires_double_translation_nolock@@YA_NH@Z 000000018004b6f4     libucrtd:write.obj
 0002:000106f4       $unwind$_get_osfhandle     000000018004b6f4     libucrtd:osfinfo.obj
 0002:000106fc       $unwind$__acrt_lowio_ensure_fh_exists 000000018004b6fc     libucrtd:osfinfo.obj
 0002:0001071c       $unwind$common_flush_all   000000018004b71c     libucrtd:fflush.obj
 0002:0001074c       $unwind$strtol             000000018004b74c     libucrtd:strtox.obj
 0002:0001074c       $unwind$??$make_c_string_character_source@DPEAPEAD@__crt_strtox@@YA?AV?$c_string_character_source@D@0@QEBDQEAPEAD@Z 000000018004b74c     libucrtd:strtox.obj
 0002:0001074c       $unwind$wcstol             000000018004b74c     libucrtd:strtox.obj
 0002:0001074c       $unwind$??$make_c_string_character_source@_WPEAPEA_W@__crt_strtox@@YA?AV?$c_string_character_source@_W@0@QEB_WQEAPEA_W@Z 000000018004b74c     libucrtd:strtox.obj
 0002:0001074c       $unwind$??$get_module_file_name@AEAPEAUHINSTANCE__@@AEAY0BAF@DK@?$__crt_char_traits@D@@SAKAEAPEAUHINSTANCE__@@AEAY0BAF@D$$QEAK@Z 000000018004b74c     libucrtd:dbgrpt.obj
 0002:0001074c       $unwind$??$get_module_file_name@AEAPEAUHINSTANCE__@@AEAY0BAF@_WK@?$__crt_char_traits@_W@@SAKAEAPEAUHINSTANCE__@@AEAY0BAF@_W$$QEAK@Z 000000018004b74c     libucrtd:dbgrpt.obj
 0002:0001074c       $unwind$??$tcscpy_s@AEAY0BAF@_W_KPEB_W@?$__crt_char_traits@_W@@SAHAEAY0BAF@_W$$QEA_K$$QEAPEB_W@Z 000000018004b74c     libucrtd:dbgrpt.obj
 0002:0001074c       $unwind$__acrt_show_wide_message_box 000000018004b74c     libucrtd:crtmbox.obj
 0002:0001074c       $unwind$?_CallMemberFunction1@@YAXPEAXP6AX0@Z0@Z 000000018004b74c     libvcruntimed:frame.obj
 0002:0001074c       $unwind$?__wcsnicmp_ascii@@YAHPEB_W0_K@Z 000000018004b74c     libucrtd:lcidtoname_downlevel.obj
 0002:0001074c       $unwind$strcat_s           000000018004b74c     libucrtd:strcat_s.obj
 0002:0001074c       $unwind$mbtowc             000000018004b74c     libucrtd:mbtowc.obj
 0002:0001074c       $unwind$??$tcstol@PEB_WPEAPEA_WH@?$__crt_char_traits@_W@@SAJ$$QEAPEB_W$$QEAPEAPEA_W$$QEAH@Z 000000018004b74c     libucrtd:output.obj
 0002:0001074c       $unwind$strcpy_s           000000018004b74c     libucrtd:strcpy_s.obj
 0002:0001074c       $unwind$?__GetCurrentState@@YAHPEA_KPEAU_xDISPATCHER_CONTEXT@@PEBU_s_FuncInfo@@@Z 000000018004b74c     libvcruntimed:ehstate.obj
 0002:0001074c       $unwind$wcscat_s           000000018004b74c     libucrtd:wcscat_s.obj
 0002:0001074c       $unwind$??$tcstol@PEBDPEAPEADH@?$__crt_char_traits@D@@SAJ$$QEAPEBD$$QEAPEAPEAD$$QEAH@Z 000000018004b74c     libucrtd:output.obj
 0002:0001074c       $unwind$wcscpy_s           000000018004b74c     libucrtd:wcscpy_s.obj
 0002:0001074c       $unwind$??$tcscpy_s@AEAY0BAF@D_KPEBD@?$__crt_char_traits@D@@SAHAEAY0BAF@D$$QEA_K$$QEAPEBD@Z 000000018004b74c     libucrtd:dbgrpt.obj
 0002:00010754       $unwind$??$common_tcsncpy_s@_W@@YAHQEA_W_KQEB_W1@Z 000000018004b754     libucrtd:wcsncpy_s.obj
 0002:0001075c       $unwind$??$common_xtox_s@K_W@@YAHKQEA_W_KI_N@Z 000000018004b75c     libucrtd:xtoa.obj
 0002:0001075c       $unwind$??$common_xtox_s@KD@@YAHKQEAD_KI_N@Z 000000018004b75c     libucrtd:xtoa.obj
 0002:00010764       $unwind$__acrt_fltout      000000018004b764     libucrtd:cfout.obj
 0002:00010764       $unwind$??$common_xtox@KD@@YAHKQEAD_KI_N@Z 000000018004b764     libucrtd:xtoa.obj
 0002:00010764       $unwind$?_TlgEnableCallback@__vcrt_trace_logging_provider@@YAXPEBU_GUID@@KE_K1PEAU_EVENT_FILTER_DESCRIPTOR@@PEAX@Z 000000018004b764     libvcruntimed:telemetry.obj
 0002:00010764       $unwind$??$common_xtox@K_W@@YAHKQEA_W_KI_N@Z 000000018004b764     libucrtd:xtoa.obj
 0002:00010764       $unwind$__acrt_LCMapStringEx 000000018004b764     libucrtd:winapi_thunks.obj
 0002:0001076c       $unwind$?_wcstombs_l_helper@@YA_KPEADPEB_W_KPEAU__crt_locale_pointers@@@Z 000000018004b76c     libucrtd:wcstombs.obj
 0002:00010780       $stateUnwindMap$?_wcstombs_l_helper@@YA_KPEADPEB_W_KPEAU__crt_locale_pointers@@@Z 000000018004b780     libucrtd:wcstombs.obj
 0002:00010790       $ip2state$?_wcstombs_l_helper@@YA_KPEADPEB_W_KPEAU__crt_locale_pointers@@@Z 000000018004b790     libucrtd:wcstombs.obj
 0002:00010898       $unwind$??$common_tcscat_s@D@@YAHQEAD_KQEBD@Z 000000018004b898     libucrtd:strcat_s.obj
 0002:00010898       $unwind$??$common_tcscat_s@_W@@YAHQEA_W_KQEB_W@Z 000000018004b898     libucrtd:wcscat_s.obj
 0002:000108a0       $unwind$?make_big_integer@__crt_strtox@@YA?AUbig_integer@1@_K@Z 000000018004b8a0     libucrtd:cfout.obj
 0002:000108b0       $unwind$?make_big_integer_power_of_two@__crt_strtox@@YA?AUbig_integer@1@I@Z 000000018004b8b0     libucrtd:cfout.obj
 0002:000108c0       $unwind$?shift_left@__crt_strtox@@YA_NAEAUbig_integer@1@I@Z 000000018004b8c0     libucrtd:cfout.obj
 0002:000108d0       $unwind$?add_multiply_carry@__crt_strtox@@YAIAEAIIII@Z 000000018004b8d0     libucrtd:cfout.obj
 0002:000108d8       $unwind$?multiply@__crt_strtox@@YA_NAEAUbig_integer@1@I@Z 000000018004b8d8     libucrtd:cfout.obj
 0002:000108e8       $unwind$?multiply@__crt_strtox@@YA_NAEAUbig_integer@1@AEBU21@@Z 000000018004b8e8     libucrtd:cfout.obj
 0002:000108f8       $unwind$?multiply_by_power_of_ten@__crt_strtox@@YA_NAEAUbig_integer@1@I@Z 000000018004b8f8     libucrtd:cfout.obj
 0002:00010908       $unwind$?divide@__crt_strtox@@YA_KAEAUbig_integer@1@AEBU21@@Z 000000018004b908     libucrtd:cfout.obj
 0002:00010918       $unwind$??$convert_to_fos_high_precision@N@@YAXNIQEAHQEAD_K@Z 000000018004b918     libucrtd:cfout.obj
 0002:00010928       $unwind$_fcloseall         000000018004b928     libucrtd:closeall.obj
 0002:00010948       $unwind$_handle_nanf       000000018004b948     libucrtd:libm_error.obj
 0002:00010948       $unwind$?is_block_type_valid@@YA_NH@Z 000000018004b948     libucrtd:debug_heap.obj
 0002:00010948       $unwind$?CPtoLocaleName@@YAPEB_WH@Z 000000018004b948     libucrtd:mbctype.obj
 0002:00010948       $unwind$?bit_scan_reverse@__crt_strtox@@YAII@Z 000000018004b948     libucrtd:cfout.obj
 0002:00010948       $unwind$_abstract_cw       000000018004b948     libucrtd:ieee.obj
 0002:00010948       $unwind$__get_machine_status 000000018004b948     libucrtd:_fenvutils.obj
 0002:00010948       $unwind$__acrt_errno_from_os_error 000000018004b948     libucrtd:errno.obj
 0002:00010948       $unwind$HRESULT_FROM_WIN32 000000018004b948     libvcruntimed:telemetry.obj
 0002:00010948       $unwind$_hw_cw             000000018004b948     libucrtd:ieee.obj
 0002:00010948       $unwind$?count_sequential_high_zeroes@__crt_strtox@@YAII@Z 000000018004b948     libucrtd:cfout.obj
 0002:00010948       $unwind$_abstract_sw       000000018004b948     libucrtd:ieee.obj
 0002:00010948       $unwind$?get_std_handle_id@@YAKH@Z 000000018004b948     libucrtd:ioinit.obj
 0002:00010948       $unwind$?to_integer_size@__crt_stdio_output@@YA_KW4length_modifier@1@@Z 000000018004b948     libucrtd:output.obj
 0002:00010950       $unwind$common_control87   000000018004b950     libucrtd:ieee.obj
 0002:00010970       $unwind$?filt$0@?0??dllmain_dispatch@@YAHQEAUHINSTANCE__@@KQEAX@Z@4HA 000000018004b970     LIBCMTD:dll_dllmain.obj
 0002:00010970       $unwind$_write$fin$0       000000018004b970     libucrtd:write.obj
 0002:00010970       $unwind$_msize_dbg$fin$0   000000018004b970     libucrtd:debug_heap.obj
 0002:00010970       $unwind$common_control87$filt$0 000000018004b970     libucrtd:ieee.obj
 0002:00010970       $unwind$raise$fin$0        000000018004b970     libucrtd:signal.obj
 0002:00010970       $unwind$?fin$0@?0??validate_heap_if_required_nolock@@YAXXZ@4HA 000000018004b970     libucrtd:debug_heap.obj
 0002:00010970       $unwind$__acrt_lowio_ensure_fh_exists$fin$0 000000018004b970     libucrtd:osfinfo.obj
 0002:00010970       $unwind$fclose$fin$0       000000018004b970     libucrtd:fclose.obj
 0002:00010970       $unwind$_CrtMemDumpAllObjectsSince$fin$0 000000018004b970     libucrtd:debug_heap.obj
 0002:00010970       $unwind$_CrtCheckMemory$fin$0 000000018004b970     libucrtd:debug_heap.obj
 0002:00010970       $unwind$_CrtSetDbgFlag$fin$0 000000018004b970     libucrtd:debug_heap.obj
 0002:00010970       $unwind$_realloc_dbg$fin$0 000000018004b970     libucrtd:debug_heap.obj
 0002:00010978       $xdatasym                  000000018004b978     libucrtd:fpsr.obj
 0002:00010980       $unwind$??$?RV<lambda_2ce24b26f23dade10250ef086380d911>@@AEAV<lambda_e9ab68cc08dfd839979545c079379e6e>@@V<lambda_6262c464c96e4c69799ed44814c7c457>@@@?$__crt_seh_guarded_call@H@@QEAAH$$QEAV<lambda_2ce24b26f23dade10250ef086380d911>@@AEAV<lambda_e9ab68cc08dfd839979545c079379e6e>@@$$QEAV<lambda_6262c464c96e4c69799ed44814c7c457>@@@Z 000000018004b980     libucrtd:commit.obj
 0002:000109a0       $unwind$_write             000000018004b9a0     libucrtd:write.obj
 0002:000109c0       $unwind$_write_nolock      000000018004b9c0     libucrtd:write.obj
 0002:000109d4       $unwind$?write_double_translated_ansi_nolock@@YA?AUwrite_result@?A0x4392dfaa@@HQEBDI@Z 000000018004b9d4     libucrtd:write.obj
 0002:000109e8       $unwind$?write_text_utf16le_nolock@@YA?AUwrite_result@?A0x4392dfaa@@HQEBDI@Z 000000018004b9e8     libucrtd:write.obj
 0002:000109e8       $unwind$?write_text_ansi_nolock@@YA?AUwrite_result@?A0x4392dfaa@@HQEBDI@Z 000000018004b9e8     libucrtd:write.obj
 0002:000109fc       $unwind$?write_text_utf8_nolock@@YA?AUwrite_result@?A0x4392dfaa@@HQEBDI@Z 000000018004b9fc     libucrtd:write.obj
 0002:00010a10       $unwind$?write_binary_nolock@@YA?AUwrite_result@?A0x4392dfaa@@HQEBDI@Z 000000018004ba10     libucrtd:write.obj
 0002:00010a28       $xdatasym                  000000018004ba28     libucrtd:log10.obj
 0002:00010a34       $unwind$ceil               000000018004ba34     libucrtd:ceil.obj
 0002:00010a3c       $unwind$fclose             000000018004ba3c     libucrtd:fclose.obj
 0002:00010a5c       $unwind$__acrt_initialize_fma3 000000018004ba5c     libucrtd:fma3_available.obj
 0002:00010a6c       $unwind$_log_special_common 000000018004ba6c     libucrtd:log_special.obj
 0002:00010a7c       $unwind$_log10_special     000000018004ba7c     libucrtd:log_special.obj
 0002:00010a84       $unwind$_commit            000000018004ba84     libucrtd:commit.obj
 0002:00010a84       $unwind$?try_get_module@@YAPEAUHINSTANCE__@@W4module_id@?A0x1dd686d3@@@Z 000000018004ba84     libucrtd:winapi_thunks.obj
 0002:00010a84       $unwind$_close             000000018004ba84     libucrtd:close.obj
 0002:00010a84       $unwind$?try_get_module@@YAPEAUHINSTANCE__@@W4module_id@?A0xece66f1d@@@Z 000000018004ba84     libvcruntimed:winapi_downlevel.obj
 0002:00010a8c       $unwind$??$?RV<lambda_4f1f1a84956f0d44b74de224c960ff76>@@AEAV<lambda_a8f98972ebaa5f7148d35bffe53bd70d>@@V<lambda_f6ca65dda28655a1cf758c1c4e38e52a>@@@?$__crt_seh_guarded_call@H@@QEAAH$$QEAV<lambda_4f1f1a84956f0d44b74de224c960ff76>@@AEAV<lambda_a8f98972ebaa5f7148d35bffe53bd70d>@@$$QEAV<lambda_f6ca65dda28655a1cf758c1c4e38e52a>@@@Z 000000018004ba8c     libucrtd:close.obj
 0002:00010aac       $unwind$__security_init_cookie 000000018004baac     LIBCMTD:gs_support.obj
 0002:00010aac       $unwind$?initialize_stdio_handles_nolock@@YAXXZ 000000018004baac     libucrtd:ioinit.obj
 0002:00010aac       $unwind$__dcrt_lowio_initialize_console_output 000000018004baac     libucrtd:initcon.obj
 0002:00010aac       $unwind$__scrt_acquire_startup_lock 000000018004baac     LIBCMTD:utility.obj
 0002:00010aac       $unwind$?internal_getptd_noexit@@YAPEAU__acrt_ptd@@XZ 000000018004baac     libucrtd:per_thread_data.obj
 0002:00010aac       $unwind$?is_lfh_enabled@@YA_NXZ 000000018004baac     libucrtd:expand.obj
 0002:00010ab4       $unwind$_IsNonwritableInCurrentImage 000000018004bab4     LIBCMTD:pesect.obj
 0002:00010ad8       $xdatasym                  000000018004bad8     LIBCMTD:_chkstk_.obj
 0002:00010ae0       $xdatasym                  000000018004bae0     libvcruntimed:memcpy.obj
 0002:00010ae8       $xdatasym                  000000018004bae8     libvcruntimed:memset.obj
 0002:00010af0       $xdatasym                  000000018004baf0     libvcruntimed:memcmp.obj
 0002:00010af4       $unwind$strrchr            000000018004baf4     libvcruntimed:strrchr.obj
 0002:00010afc       $unwind$?find_next_state@?$output_processor@_WV?$string_output_adapter@_W@__crt_stdio_output@@V?$format_validation_base@_WV?$string_output_adapter@_W@__crt_stdio_output@@@2@@__crt_stdio_output@@AEBA?AW4state@2@_WW432@@Z 000000018004bafc     libucrtd:output.obj
 0002:00010afc       $unwind$?__FrameUnwindToEmptyState@@YAXPEA_KPEAU_xDISPATCHER_CONTEXT@@PEBU_s_FuncInfo@@@Z 000000018004bafc     libvcruntimed:trnsctrl.obj
 0002:00010b04       $unwind$_CallSETranslator  000000018004bb04     libvcruntimed:trnsctrl.obj
 0002:00010b24       $unwind$_UnwindNestedFrames 000000018004bb24     libvcruntimed:trnsctrl.obj
 0002:00010b38       $unwind$?CatchIt@@YAXPEAUEHExceptionRecord@@PEA_KPEAU_CONTEXT@@PEAU_xDISPATCHER_CONTEXT@@PEBU_s_FuncInfo@@PEBU_s_HandlerType@@PEBU_s_CatchableType@@PEBU_s_TryBlockMapEntry@@H1EE@Z 000000018004bb38     libvcruntimed:frame.obj
 0002:00010b38       $unwind$__CxxFrameHandler3 000000018004bb38     libvcruntimed:trnsctrl.obj
 0002:00010b40       $unwind$_vsnprintf_s_l     000000018004bb40     libucrtd:dbgrptt.obj
 0002:00010b40       $unwind$_recalloc_dbg      000000018004bb40     libucrtd:debug_heap.obj
 0002:00010b40       $unwind$_vsnwprintf_s_l    000000018004bb40     libucrtd:dbgrpt.obj
 0002:00010b40       $unwind$?write_string@?$string_output_adapter@_W@__crt_stdio_output@@QEBAXQEB_WHQEAH1@Z 000000018004bb40     libucrtd:output.obj
 0002:00010b40       $unwind$??$type_case_integer_parse_into_buffer@_K@?$output_processor@_WV?$string_output_adapter@_W@__crt_stdio_output@@V?$format_validation_base@_WV?$string_output_adapter@_W@__crt_stdio_output@@@2@@__crt_stdio_output@@AEAAX_KI_N@Z 000000018004bb40     libucrtd:output.obj
 0002:00010b40       $unwind$_invalid_parameter 000000018004bb40     libucrtd:invalid_parameter.obj
 0002:00010b40       $unwind$?_GetEstablisherFrame@@YAPEA_KPEA_KPEAU_xDISPATCHER_CONTEXT@@PEBU_s_FuncInfo@@0@Z 000000018004bb40     libvcruntimed:trnsctrl.obj
 0002:00010b40       $unwind$?__SehTransFilter@@YAHPEAU_EXCEPTION_POINTERS@@PEAUEHExceptionRecord@@PEA_KPEAU_CONTEXT@@PEAU_xDISPATCHER_CONTEXT@@PEBU_s_FuncInfo@@PEAH@Z 000000018004bb40     libvcruntimed:trnsctrl.obj
 0002:00010b40       $unwind$_raise_exc_ex      000000018004bb40     libucrtd:fpexcept.obj
 0002:00010b40       $unwind$??$type_case_integer_parse_into_buffer@_K@?$output_processor@DV?$string_output_adapter@D@__crt_stdio_output@@V?$format_validation_base@DV?$string_output_adapter@D@__crt_stdio_output@@@2@@__crt_stdio_output@@AEAAX_KI_N@Z 000000018004bb40     libucrtd:output.obj
 0002:00010b40       $unwind$?write_string@?$string_output_adapter@D@__crt_stdio_output@@QEBAXQEBDHQEAH1@Z 000000018004bb40     libucrtd:output.obj
 0002:00010b48       $unwind$wcstombs_s         000000018004bb48     libucrtd:wcstombs.obj
 0002:00010b48       $unwind$__vcrt_EventRegister 000000018004bb48     libvcruntimed:winapi_downlevel.obj
 0002:00010b48       $unwind$??0?$output_processor@DV?$string_output_adapter@D@__crt_stdio_output@@V?$format_validation_base@DV?$string_output_adapter@D@__crt_stdio_output@@@2@@__crt_stdio_output@@QEAA@AEBV?$string_output_adapter@D@1@_KQEBDQEAU__crt_locale_pointers@@QEAD@Z 000000018004bb48     libucrtd:output.obj
 0002:00010b48       $unwind$mbstowcs_s         000000018004bb48     libucrtd:mbstowcs.obj
 0002:00010b48       $unwind$??$?0AEBV?$string_output_adapter@D@__crt_stdio_output@@AEB_KAEBQEBDAEBQEAU__crt_locale_pointers@@AEBQEAD@?$format_validation_base@DV?$string_output_adapter@D@__crt_stdio_output@@@__crt_stdio_output@@IEAA@AEBV?$string_output_adapter@D@1@AEB_KAEBQEBDAEBQEAU__crt_locale_pointers@@AEBQEAD@Z 000000018004bb48     libucrtd:output.obj
 0002:00010b48       $unwind$??$?0AEBV?$string_output_adapter@_W@__crt_stdio_output@@AEB_KAEBQEB_WAEBQEAU__crt_locale_pointers@@AEBQEAD@?$standard_base@_WV?$string_output_adapter@_W@__crt_stdio_output@@@__crt_stdio_output@@IEAA@AEBV?$string_output_adapter@_W@1@AEB_KAEBQEB_WAEBQEAU__crt_locale_pointers@@AEBQEAD@Z 000000018004bb48     libucrtd:output.obj
 0002:00010b48       $unwind$_vsnwprintf_s      000000018004bb48     libucrtd:dbgrptt.obj
 0002:00010b48       $unwind$_vsnprintf_s       000000018004bb48     libucrtd:dbgrptt.obj
 0002:00010b48       $unwind$??$?0AEBV?$string_output_adapter@_W@__crt_stdio_output@@AEB_KAEBQEB_WAEBQEAU__crt_locale_pointers@@AEBQEAD@?$format_validation_base@_WV?$string_output_adapter@_W@__crt_stdio_output@@@__crt_stdio_output@@IEAA@AEBV?$string_output_adapter@_W@1@AEB_KAEBQEB_WAEBQEAU__crt_locale_pointers@@AEBQEAD@Z 000000018004bb48     libucrtd:output.obj
 0002:00010b48       $unwind$_calloc_dbg        000000018004bb48     libucrtd:debug_heap.obj
 0002:00010b48       $unwind$__stdio_common_vsprintf_s 000000018004bb48     libucrtd:output.obj
 0002:00010b48       $unwind$?__SetUnwindTryBlock@@YAXPEA_KPEAU_xDISPATCHER_CONTEXT@@PEBU_s_FuncInfo@@H@Z 000000018004bb48     libvcruntimed:ehstate.obj
 0002:00010b48       $unwind$__acrt_MessageBoxW 000000018004bb48     libucrtd:winapi_thunks.obj
 0002:00010b48       $unwind$??0?$output_processor@_WV?$string_output_adapter@_W@__crt_stdio_output@@V?$format_validation_base@_WV?$string_output_adapter@_W@__crt_stdio_output@@@2@@__crt_stdio_output@@QEAA@AEBV?$string_output_adapter@_W@1@_KQEB_WQEAU__crt_locale_pointers@@QEAD@Z 000000018004bb48     libucrtd:output.obj
 0002:00010b48       $unwind$??$?0AEBV?$string_output_adapter@D@__crt_stdio_output@@AEB_KAEBQEBDAEBQEAU__crt_locale_pointers@@AEBQEAD@?$standard_base@DV?$string_output_adapter@D@__crt_stdio_output@@@__crt_stdio_output@@IEAA@AEBV?$string_output_adapter@D@1@AEB_KAEBQEBDAEBQEAU__crt_locale_pointers@@AEBQEAD@Z 000000018004bb48     libucrtd:output.obj
 0002:00010b50       $unwind$__CxxCallCatchBlock 000000018004bb50     libvcruntimed:frame.obj
 0002:00010b80       $unwind$??0exception@std@@QEAA@QEBDH@Z 000000018004bb80     libvcruntimed:frame.obj
 0002:00010b88       $unwind$??0exception@std@@QEAA@AEBV01@@Z 000000018004bb88     libvcruntimed:frame.obj
 0002:00010b90       $unwind$__FrameUnwindToState 000000018004bb90     libvcruntimed:frame.obj
 0002:00010bc0       $unwind$?FindHandler@@YAXPEAUEHExceptionRecord@@PEA_KPEAU_CONTEXT@@PEAU_xDISPATCHER_CONTEXT@@PEBU_s_FuncInfo@@EH1@Z 000000018004bbc0     libvcruntimed:frame.obj
 0002:00010bc8       $unwind$__BuildCatchObject 000000018004bbc8     libvcruntimed:frame.obj
 0002:00010be8       $unwind$?initialize@?$dual_state_global@P6AH_K@Z@__crt_state_management@@QEAAXQ6AH_K@Z@Z 000000018004bbe8     libucrtd:new_handler.obj
 0002:00010be8       $unwind$?initialize@?$dual_state_global@P6AXH@Z@__crt_state_management@@QEAAXQ6AXH@Z@Z 000000018004bbe8     libucrtd:signal.obj
 0002:00010be8       $unwind$__strncnt          000000018004bbe8     libucrtd:strncnt.obj
 0002:00010be8       $unwind$??8__crt_strtox@@YA_NAEBUbig_integer@0@0@Z 000000018004bbe8     libucrtd:cfout.obj
 0002:00010be8       $unwind$?initialize@?$dual_state_global@P6AHPEAU_exception@@@Z@__crt_state_management@@QEAAXQ6AHPEAU_exception@@@Z@Z 000000018004bbe8     libucrtd:matherr.obj
 0002:00010be8       $unwind$?initialize@?$dual_state_global@PEAU__crt_locale_data@@@__crt_state_management@@QEAAXQEAU__crt_locale_data@@@Z 000000018004bbe8     libucrtd:initialization.obj
 0002:00010be8       $unwind$?compare_equals@?$__crt_simd_traits@$0A@G@@SA?AT__m128i@@T2@0@Z 000000018004bbe8     libucrtd:strnlen.obj
 0002:00010be8       $unwind$?c2MulmvT@@YA?AUc2v@@Uc2m@@U1@@Z 000000018004bbe8     gamecode.obj
 0002:00010be8       $unwind$?compare_equals@?$__crt_simd_traits@$0A@E@@SA?AT__m128i@@T2@0@Z 000000018004bbe8     libucrtd:strnlen.obj
 0002:00010be8       $unwind$?wcsncnt@@YA_KPEB_W_K@Z 000000018004bbe8     libucrtd:wcstombs.obj
 0002:00010be8       $unwind$__AdjustPointer    000000018004bbe8     libvcruntimed:frame.obj
 0002:00010be8       $unwind$?c2MulrrT@@YA?AUc2r@@U1@0@Z 000000018004bbe8     gamecode.obj
 0002:00010be8       $unwind$??$common_strnlen_c@G@@YA_KQEBG_K@Z 000000018004bbe8     libucrtd:strnlen.obj
 0002:00010be8       $unwind$??$common_strnlen_c@E@@YA_KQEBE_K@Z 000000018004bbe8     libucrtd:strnlen.obj
 0002:00010be8       $unwind$?initialize@?$dual_state_global@P6AXPEB_W00I_K@Z@__crt_state_management@@QEAAXQ6AXPEB_W00I_K@Z@Z 000000018004bbe8     libucrtd:invalid_parameter.obj
 0002:00010be8       $unwind$?_TlgKeywordOn@__vcrt_trace_logging_provider@@YAEPEBU_TlgProvider_t@1@_K@Z 000000018004bbe8     libvcruntimed:telemetry.obj
 0002:00010be8       $unwind$?RectanglesIntersect@@YAHUrectangle2@@0@Z 000000018004bbe8     gamecode.obj
 0002:00010bf0       $unwind$??$parse_integer@KV?$c_string_character_source@D@__crt_strtox@@@__crt_strtox@@YAKQEAU__crt_locale_pointers@@V?$c_string_character_source@D@0@H_N@Z 000000018004bbf0     libucrtd:atox.obj
 0002:00010bf0       $unwind$_wcstombs_s_l      000000018004bbf0     libucrtd:wcstombs.obj
 0002:00010bf0       $unwind$??$parse_integer@KV?$c_string_character_source@_W@__crt_strtox@@@__crt_strtox@@YAKQEAU__crt_locale_pointers@@V?$c_string_character_source@_W@0@H_N@Z 000000018004bbf0     libucrtd:atox.obj
 0002:00010bf0       $unwind$?FindHandlerForForeignException@@YAXPEAUEHExceptionRecord@@PEA_KPEAU_CONTEXT@@PEAU_xDISPATCHER_CONTEXT@@PEBU_s_FuncInfo@@HH1@Z 000000018004bbf0     libvcruntimed:frame.obj
 0002:00010bf8       $unwind$__DestructExceptionObject 000000018004bbf8     libvcruntimed:frame.obj
 0002:00010c18       $unwind$__BuildCatchObjectHelper 000000018004bc18     libvcruntimed:frame.obj
 0002:00010c38       $xdatasym                  000000018004bc38     libvcruntimed:handlers.obj
 0002:00010c40       $unwind$_CxxThrowException 000000018004bc40     libvcruntimed:throw.obj
 0002:00010ce0       .edata                     000000018004bce0     gamecode.exp
 0002:00010d08       rgpv                       000000018004bd08     gamecode.exp
 0002:00010d0c       rgszName                   000000018004bd0c     gamecode.exp
 0002:00010d10       rgwOrd                     000000018004bd10     gamecode.exp
 0002:00010d12       szName                     000000018004bd12     gamecode.exp
 0002:00010d1f       $N00001                    000000018004bd1f     gamecode.exp
 0002:00011140       .idata$6                   000000018004c140     kernel32:KERNEL32.dll
 0002:00011538       .idata$6                   000000018004c538     advapi32:ADVAPI32.dll
 0003:00000030       ?_Tlg_Microsoft_CRTProviderProv@@3U_TlgProvider_t@__vcrt_trace_logging_provider@@A 000000018004d030     libvcruntimed:telemetry.obj
 0003:00000080       ?__vcrt_flsindex@@3KA      000000018004d080     libvcruntimed:per_thread_data.obj
 0003:00000090       __acrt_current_request_number 000000018004d090     libucrtd:debug_heap.obj
 0003:000000a4       __acrt_flsindex            000000018004d0a4     libucrtd:per_thread_data.obj
 0003:000002e0       __rgctypeflag              000000018004d2e0     libucrtd:mbctype.obj
 0003:000002f0       __rgcode_page_info         000000018004d2f0     libucrtd:mbctype.obj
 0003:0000075c       errno_no_memory            000000018004d75c     libucrtd:errno.obj
 0003:00000760       doserrno_no_memory         000000018004d760     libucrtd:errno.obj
 0003:00000770       __acrt_debug_fill_threshold 000000018004d770     libucrtd:debug_fill_threshold.obj
 0003:000008b8       ?dazSupported@?1??_ctrlfp@@9@9 000000018004d8b8     libucrtd:fpctrl.obj
 0003:00000968       ?dazSupported@?1??common_control87@@9@9 000000018004d968     libucrtd:ieee.obj
 0003:000009f0       ?__proc_attached@@3HA      000000018004d9f0     LIBCMTD:dll_dllmain.obj
 0003:00000a00       GS_ExceptionRecord         000000018004da00     LIBCMTD:gs_report.obj
 0003:00000aa0       GS_ContextRecord           000000018004daa0     LIBCMTD:gs_report.obj
 0003:00000f70       ?module_local_atexit_table@@3U_onexit_table_t@@A 000000018004df70     LIBCMTD:utility.obj
 0003:00000f88       ?module_local_at_quick_exit_table@@3U_onexit_table_t@@A 000000018004df88     LIBCMTD:utility.obj
 0003:00000fb0       ?is_initialized_as_dll@@3_NA 000000018004dfb0     LIBCMTD:utility.obj
 0003:00000ff0       ?module_handles@@3PAPEAUHINSTANCE__@@A 000000018004dff0     libvcruntimed:winapi_downlevel.obj
 0003:00001010       ?encoded_function_pointers@@3PAPEAXA 000000018004e010     libvcruntimed:winapi_downlevel.obj
 0003:00001060       ?__vcrt_startup_thread_ptd@@3U__vcrt_ptd@@A 000000018004e060     libvcruntimed:per_thread_data.obj
 0003:000010d8       __vcrt_lock_table          000000018004e0d8     libvcruntimed:locks.obj
 0003:00001100       __vcrt_locks_initialized   000000018004e100     libvcruntimed:locks.obj
 0003:00001158       ?heap@@3V_HeapManager@@A   000000018004e158     libvcruntimed:undname.obj
 0003:00001180       c_termination_complete     000000018004e180     libucrtd:exit.obj
 0003:00001188       thread_local_exit_callback_func 000000018004e188     libucrtd:exit.obj
 0003:00001190       ?c_exit_complete@?5??common_exit@@YAXHW4_crt_exit_cleanup_mode@@W4_crt_exit_return_mode@@@Z@4_NA 000000018004e190     libucrtd:exit.obj
 0003:000011e8       heap_validation_pending    000000018004e1e8     libucrtd:debug_heap.obj
 0003:000011f0       __acrt_first_block         000000018004e1f0     libucrtd:debug_heap.obj
 0003:000011f8       __acrt_last_block          000000018004e1f8     libucrtd:debug_heap.obj
 0003:00001200       __acrt_total_allocations   000000018004e200     libucrtd:debug_heap.obj
 0003:00001208       __acrt_current_allocations 000000018004e208     libucrtd:debug_heap.obj
 0003:00001210       __acrt_max_allocations     000000018004e210     libucrtd:debug_heap.obj
 0003:00001218       __acrt_check_frequency     000000018004e218     libucrtd:debug_heap.obj
 0003:0000121c       __acrt_check_counter       000000018004e21c     libucrtd:debug_heap.obj
 0003:00001230       __acrt_lock_table          000000018004e230     libucrtd:locks.obj
 0003:00001438       __acrt_locks_initialized   000000018004e438     libucrtd:locks.obj
 0003:00001440       module_handles             000000018004e440     libucrtd:winapi_thunks.obj
 0003:000014e0       encoded_function_pointers  000000018004e4e0     libucrtd:winapi_thunks.obj
 0003:000015e0       ?state_cache@?1??__acrt_is_packaged_app@@9@4JA 000000018004e5e0     libucrtd:winapi_thunks.obj
 0003:000015e8       __acrt_invalid_parameter_handler 000000018004e5e8     libucrtd:invalid_parameter.obj
 0003:00001604       fSystemSet                 000000018004e604     libucrtd:mbctype.obj
 0003:00001610       ?initialized@?1??__acrt_initialize_multibyte@@9@4_NA 000000018004e610     libucrtd:mbctype.obj
 0003:00001a48       __acrt_new_handler         000000018004ea48     libucrtd:new_handler.obj
 0003:00001a50       ctrlc_action               000000018004ea50     libucrtd:signal.obj
 0003:00001a58       ctrlbreak_action           000000018004ea58     libucrtd:signal.obj
 0003:00001a60       abort_action               000000018004ea60     libucrtd:signal.obj
 0003:00001a68       term_action                000000018004ea68     libucrtd:signal.obj
 0003:00001a70       user_matherr               000000018004ea70     libucrtd:matherr.obj
 0003:00001a90       __acrt_global_new_mode     000000018004ea90     libucrtd:new_mode.obj
 0003:00001ab0       __acrt_app_type            000000018004eab0     libucrtd:report_runtime_error.obj
 0003:00001ac0       ?outmsg@?9??__acrt_report_runtime_error@@9@4PA_WA 000000018004eac0     libucrtd:report_runtime_error.obj
 0003:000020f8       enable_percent_n           000000018004f0f8     libucrtd:printf_count_output.obj
 0003:00002108       __acrt_error_mode          000000018004f108     libucrtd:set_error_mode.obj
 0004:00000000       $pdata$?TraceLoggingRegister@__vcrt_trace_logging_provider@@YAJPEBU_TlgProvider_t@1@PEBU_GUID@@P6AX1KE_K2PEAU_EVENT_FILTER_DESCRIPTOR@@PEAX@Z4@Z 0000000180050000     libvcruntimed:telemetry.obj
 0004:0000000c       $pdata$?TraceLoggingSetInformation@__vcrt_trace_logging_provider@@YAJPEBU_TlgProvider_t@1@W4_EVENT_INFO_CLASS@@PEAXK@Z 000000018005000c     libvcruntimed:telemetry.obj
 0004:00000018       $pdata$?TraceLoggingUnregister@__vcrt_trace_logging_provider@@YAXPEBU_TlgProvider_t@1@@Z 0000000180050018     libvcruntimed:telemetry.obj
 0004:00000024       $pdata$?_TlgCreateSz@__vcrt_trace_logging_provider@@YAXPEAU_EVENT_DATA_DESCRIPTOR@@PEBD@Z 0000000180050024     libvcruntimed:telemetry.obj
 0004:00000030       $pdata$?_TlgCreateWsz@__vcrt_trace_logging_provider@@YAXPEAU_EVENT_DATA_DESCRIPTOR@@PEB_W@Z 0000000180050030     libvcruntimed:telemetry.obj
 0004:0000003c       $pdata$?_TlgEnableCallback@__vcrt_trace_logging_provider@@YAXPEBU_GUID@@KE_K1PEAU_EVENT_FILTER_DESCRIPTOR@@PEAX@Z 000000018005003c     libvcruntimed:telemetry.obj
 0004:00000048       $pdata$?_TlgKeywordOn@__vcrt_trace_logging_provider@@YAEPEBU_TlgProvider_t@1@_K@Z 0000000180050048     libvcruntimed:telemetry.obj
 0004:00000054       $pdata$?_TlgWrite@__vcrt_trace_logging_provider@@YAJPEBU_TlgProvider_t@1@PEFBXPEBU_GUID@@2IPEAU_EVENT_DATA_DESCRIPTOR@@@Z 0000000180050054     libvcruntimed:telemetry.obj
 0004:00000060       $pdata$?c2CircletoCircle@@YAHUc2Circle@@0@Z 0000000180050060     gamecode.obj
 0004:0000006c       $pdata$?c2CircletoAABB@@YAHUc2Circle@@Uc2AABB@@@Z 000000018005006c     gamecode.obj
 0004:00000078       $pdata$?c2CircletoCapsule@@YAHUc2Circle@@Uc2Capsule@@@Z 0000000180050078     gamecode.obj
 0004:00000084       $pdata$?c2AABBtoAABB@@YAHUc2AABB@@0@Z 0000000180050084     gamecode.obj
 0004:00000090       $pdata$?c2AABBtoCapsule@@YAHUc2AABB@@Uc2Capsule@@@Z 0000000180050090     gamecode.obj
 0004:0000009c       $pdata$?c2CapsuletoCapsule@@YAHUc2Capsule@@0@Z 000000018005009c     gamecode.obj
 0004:000000a8       $pdata$?c2CircletoPoly@@YAHUc2Circle@@PEBUc2Poly@@PEBUc2x@@@Z 00000001800500a8     gamecode.obj
 0004:000000b4       $pdata$?c2AABBtoPoly@@YAHUc2AABB@@PEBUc2Poly@@PEBUc2x@@@Z 00000001800500b4     gamecode.obj
 0004:000000c0       $pdata$?c2CapsuletoPoly@@YAHUc2Capsule@@PEBUc2Poly@@PEBUc2x@@@Z 00000001800500c0     gamecode.obj
 0004:000000cc       $pdata$?c2PolytoPoly@@YAHPEBUc2Poly@@PEBUc2x@@01@Z 00000001800500cc     gamecode.obj
 0004:000000d8       $pdata$?c2RaytoCircle@@YAHUc2Ray@@Uc2Circle@@PEAUc2Raycast@@@Z 00000001800500d8     gamecode.obj
 0004:000000e4       $pdata$?c2RaytoAABB@@YAHUc2Ray@@Uc2AABB@@PEAUc2Raycast@@@Z 00000001800500e4     gamecode.obj
 0004:000000f0       $pdata$?c2RaytoCapsule@@YAHUc2Ray@@Uc2Capsule@@PEAUc2Raycast@@@Z 00000001800500f0     gamecode.obj
 0004:000000fc       $pdata$?c2RaytoPoly@@YAHUc2Ray@@PEBUc2Poly@@PEBUc2x@@PEAUc2Raycast@@@Z 00000001800500fc     gamecode.obj
 0004:00000108       $pdata$?c2CircletoCircleManifold@@YAXUc2Circle@@0PEAUc2Manifold@@@Z 0000000180050108     gamecode.obj
 0004:00000114       $pdata$?c2CircletoAABBManifold@@YAXUc2Circle@@Uc2AABB@@PEAUc2Manifold@@@Z 0000000180050114     gamecode.obj
 0004:00000120       $pdata$?c2CircletoCapsuleManifold@@YAXUc2Circle@@Uc2Capsule@@PEAUc2Manifold@@@Z 0000000180050120     gamecode.obj
 0004:0000012c       $pdata$?c2AABBtoAABBManifold@@YAXUc2AABB@@0PEAUc2Manifold@@@Z 000000018005012c     gamecode.obj
 0004:00000138       $pdata$?c2AABBtoCapsuleManifold@@YAXUc2AABB@@Uc2Capsule@@PEAUc2Manifold@@@Z 0000000180050138     gamecode.obj
 0004:00000144       $pdata$?c2CapsuletoCapsuleManifold@@YAXUc2Capsule@@0PEAUc2Manifold@@@Z 0000000180050144     gamecode.obj
 0004:00000150       $pdata$?c2CircletoPolyManifold@@YAXUc2Circle@@PEBUc2Poly@@PEBUc2x@@PEAUc2Manifold@@@Z 0000000180050150     gamecode.obj
 0004:0000015c       $pdata$?c2AABBtoPolyManifold@@YAXUc2AABB@@PEBUc2Poly@@PEBUc2x@@PEAUc2Manifold@@@Z 000000018005015c     gamecode.obj
 0004:00000168       $pdata$?c2CapsuletoPolyManifold@@YAXUc2Capsule@@PEBUc2Poly@@PEBUc2x@@PEAUc2Manifold@@@Z 0000000180050168     gamecode.obj
 0004:00000174       $pdata$?c2PolytoPolyManifold@@YAXPEBUc2Poly@@PEBUc2x@@01PEAUc2Manifold@@@Z 0000000180050174     gamecode.obj
 0004:00000180       $pdata$?c2GJK@@YAMPEBXW4C2_TYPE@@PEBUc2x@@012PEAUc2v@@3H@Z 0000000180050180     gamecode.obj
 0004:0000018c       $pdata$?c2Hull@@YAHPEAUc2v@@H@Z 000000018005018c     gamecode.obj
 0004:00000198       $pdata$?c2Norms@@YAXPEAUc2v@@0H@Z 0000000180050198     gamecode.obj
 0004:000001a4       $pdata$?c2MakePoly@@YAXPEAUc2Poly@@@Z 00000001800501a4     gamecode.obj
 0004:000001b0       $pdata$?c2Collided@@YAHPEBXPEBUc2x@@W4C2_TYPE@@012@Z 00000001800501b0     gamecode.obj
 0004:000001bc       $pdata$?c2Collide@@YAXPEBXPEBUc2x@@W4C2_TYPE@@012PEAUc2Manifold@@@Z 00000001800501bc     gamecode.obj
 0004:000001c8       $pdata$?c2MakeProxy@@YAXPEBXW4C2_TYPE@@PEAUc2Proxy@@@Z 00000001800501c8     gamecode.obj
 0004:000001d4       $pdata$?c2Support@@YAHPEBUc2v@@HU1@@Z 00000001800501d4     gamecode.obj
 0004:000001e0       $pdata$?c2L@@YA?AUc2v@@PEAUc2Simplex@@@Z 00000001800501e0     gamecode.obj
 0004:000001ec       $pdata$?c2Witness@@YAXPEAUc2Simplex@@PEAUc2v@@1@Z 00000001800501ec     gamecode.obj
 0004:000001f8       $pdata$?c2D@@YA?AUc2v@@PEAUc2Simplex@@@Z 00000001800501f8     gamecode.obj
 0004:00000204       $pdata$?c22@@YAXPEAUc2Simplex@@@Z 0000000180050204     gamecode.obj
 0004:00000210       $pdata$?c23@@YAXPEAUc2Simplex@@@Z 0000000180050210     gamecode.obj
 0004:0000021c       $pdata$?c2Clip@@YAHPEAUc2v@@Uc2h@@@Z 000000018005021c     gamecode.obj
 0004:00000228       $pdata$?c2SidePlanes@@YAHPEAUc2v@@Uc2x@@PEBUc2Poly@@HPEAUc2h@@@Z 0000000180050228     gamecode.obj
 0004:00000234       $pdata$?c2KeepDeep@@YAXPEAUc2v@@Uc2h@@PEAUc2Manifold@@@Z 0000000180050234     gamecode.obj
 0004:00000240       $pdata$?c2CapsuleSupport@@YA?AUc2v@@Uc2Capsule@@U1@@Z 0000000180050240     gamecode.obj
 0004:0000024c       $pdata$?c2AntinormalFace@@YAXUc2Capsule@@PEBUc2Poly@@Uc2x@@PEAHPEAUc2v@@@Z 000000018005024c     gamecode.obj
 0004:00000258       $pdata$?c2CheckFaces@@YAMPEBUc2Poly@@Uc2x@@01PEAH@Z 0000000180050258     gamecode.obj
 0004:00000264       $pdata$?c2Incident@@YAXPEAUc2v@@PEBUc2Poly@@Uc2x@@12H@Z 0000000180050264     gamecode.obj
 0004:00000270       $pdata$?MinkowskiSum@@YA?AUminkowskirect@@PEAUentity@@0@Z 0000000180050270     gamecode.obj
 0004:0000027c       $pdata$?CheckCollision@@YAHPEAUentity@@0@Z 000000018005027c     gamecode.obj
 0004:00000288       $pdata$?DrawPixel@@YAXPEAUgame_offscreen_buffer@@MMMMMM@Z 0000000180050288     gamecode.obj
 0004:00000294       $pdata$?DrawRectangle@@YAXUrectangle2i@@Tv2@@1PEAUgame_offscreen_buffer@@MMMM@Z 0000000180050294     gamecode.obj
 0004:000002a0       $pdata$?DrawFilledCircle@@YAXMMMPEAUgame_offscreen_buffer@@MMMM@Z 00000001800502a0     gamecode.obj
 0004:000002ac       $pdata$?CreateEntity@@YAPEAUentity@@PEAUgame_state@@W4entity_flag@@@Z 00000001800502ac     gamecode.obj
 0004:000002b8       $pdata$?InitializeWall@@YAXPEAUentity@@MMMM@Z 00000001800502b8     gamecode.obj
 0004:000002c4       $pdata$?RenderEntity@@YAXPEAUentity@@Urectangle2i@@PEAUgame_offscreen_buffer@@@Z 00000001800502c4     gamecode.obj
 0004:000002d0       $pdata$?MoveEntity@@YA?ATv2@@PEAUentity@@PEAUgame_input@@@Z 00000001800502d0     gamecode.obj
 0004:000002dc       $pdata$GameUpdateAndRender 00000001800502dc     gamecode.obj
 0004:000002e8       $pdata$GameGetSoundSamples 00000001800502e8     gamecode.obj
 0004:000002f4       $pdata$??G@YA?ATv2@@T0@0@Z 00000001800502f4     gamecode.obj
 0004:00000300       $pdata$??H@YA?ATv2@@T0@0@Z 0000000180050300     gamecode.obj
 0004:0000030c       $pdata$?AbsoluteValue@@YAMM@Z 000000018005030c     gamecode.obj
 0004:00000318       $pdata$?Intersect@@YA?AUrectangle2i@@U1@0@Z 0000000180050318     gamecode.obj
 0004:00000324       $pdata$?RectCenterHalfDim@@YA?AUrectangle2@@Tv2@@0@Z 0000000180050324     gamecode.obj
 0004:00000330       $pdata$?RectanglesIntersect@@YAHUrectangle2@@0@Z 0000000180050330     gamecode.obj
 0004:0000033c       $pdata$?RoundReal32ToInt32@@YAHM@Z 000000018005033c     gamecode.obj
 0004:00000348       $pdata$?RoundReal32ToUInt32@@YAIM@Z 0000000180050348     gamecode.obj
 0004:00000354       $pdata$?SignOf@@YAMM@Z     0000000180050354     gamecode.obj
 0004:00000360       $pdata$?c2Absv@@YA?AUc2v@@U1@@Z 0000000180050360     gamecode.obj
 0004:0000036c       $pdata$?c2BBVerts@@YAXPEAUc2v@@PEAUc2AABB@@@Z 000000018005036c     gamecode.obj
 0004:00000378       $pdata$?c2CCW90@@YA?AUc2v@@U1@@Z 0000000180050378     gamecode.obj
 0004:00000384       $pdata$?c2Clampv@@YA?AUc2v@@U1@00@Z 0000000180050384     gamecode.obj
 0004:00000390       $pdata$?c2Dist@@YAMUc2h@@Uc2v@@@Z 0000000180050390     gamecode.obj
 0004:0000039c       $pdata$?c2Div@@YA?AUc2v@@U1@M@Z 000000018005039c     gamecode.obj
 0004:000003a8       $pdata$?c2Hmax@@YAMUc2v@@@Z 00000001800503a8     gamecode.obj
 0004:000003b4       $pdata$?c2Hmin@@YAMUc2v@@@Z 00000001800503b4     gamecode.obj
 0004:000003c0       $pdata$?c2Len@@YAMUc2v@@@Z 00000001800503c0     gamecode.obj
 0004:000003cc       $pdata$?c2Lerp@@YA?AUc2v@@U1@0M@Z 00000001800503cc     gamecode.obj
 0004:000003d8       $pdata$?c2Maxv@@YA?AUc2v@@U1@0@Z 00000001800503d8     gamecode.obj
 0004:000003e4       $pdata$?c2Minv@@YA?AUc2v@@U1@0@Z 00000001800503e4     gamecode.obj
 0004:000003f0       $pdata$?c2MulmvT@@YA?AUc2v@@Uc2m@@U1@@Z 00000001800503f0     gamecode.obj
 0004:000003fc       $pdata$?c2MulrrT@@YA?AUc2r@@U1@0@Z 00000001800503fc     gamecode.obj
 0004:00000408       $pdata$?c2Mulrv@@YA?AUc2v@@Uc2r@@U1@@Z 0000000180050408     gamecode.obj
 0004:00000414       $pdata$?c2MulrvT@@YA?AUc2v@@Uc2r@@U1@@Z 0000000180050414     gamecode.obj
 0004:00000420       $pdata$?c2Mulxh@@YA?AUc2h@@Uc2x@@U1@@Z 0000000180050420     gamecode.obj
 0004:0000042c       $pdata$?c2Mulxv@@YA?AUc2v@@Uc2x@@U1@@Z 000000018005042c     gamecode.obj
 0004:00000438       $pdata$?c2MulxvT@@YA?AUc2v@@Uc2x@@U1@@Z 0000000180050438     gamecode.obj
 0004:00000444       $pdata$?c2MulxxT@@YA?AUc2x@@U1@0@Z 0000000180050444     gamecode.obj
 0004:00000450       $pdata$?c2Neg@@YA?AUc2v@@U1@@Z 0000000180050450     gamecode.obj
 0004:0000045c       $pdata$?c2Norm@@YA?AUc2v@@U1@@Z 000000018005045c     gamecode.obj
 0004:00000468       $pdata$?c2Origin@@YA?AUc2v@@Uc2h@@@Z 0000000180050468     gamecode.obj
 0004:00000474       $pdata$?c2Parallel@@YAHUc2v@@0M@Z 0000000180050474     gamecode.obj
 0004:00000480       $pdata$?c2Project@@YA?AUc2v@@Uc2h@@U1@@Z 0000000180050480     gamecode.obj
 0004:0000048c       $pdata$?c2RotIdentity@@YA?AUc2r@@XZ 000000018005048c     gamecode.obj
 0004:00000498       $pdata$?c2Skew@@YA?AUc2v@@U1@@Z 0000000180050498     gamecode.obj
 0004:000004a4       $pdata$?c2V@@YA?AUc2v@@MM@Z 00000001800504a4     gamecode.obj
 0004:000004b0       $pdata$?c2xIdentity@@YA?AUc2x@@XZ 00000001800504b0     gamecode.obj
 0004:000004bc       $pdata$__GSHandlerCheck    00000001800504bc     LIBCMTD:_gshandler_.obj
 0004:000004c8       $pdata$__GSHandlerCheckCommon 00000001800504c8     LIBCMTD:_gshandler_.obj
 0004:000004e0       $pdata$?dllmain_crt_dispatch@@YAHQEAUHINSTANCE__@@KQEAX@Z 00000001800504e0     LIBCMTD:dll_dllmain.obj
 0004:000004ec       $pdata$?dllmain_crt_process_attach@@YAHQEAUHINSTANCE__@@QEAX@Z 00000001800504ec     LIBCMTD:dll_dllmain.obj
 0004:000004f8       $pdata$?dllmain_crt_process_detach@@YAH_N@Z 00000001800504f8     LIBCMTD:dll_dllmain.obj
 0004:00000504       $pdata$?dllmain_dispatch@@YAHQEAUHINSTANCE__@@KQEAX@Z 0000000180050504     LIBCMTD:dll_dllmain.obj
 0004:00000510       $pdata$?dllmain_raw@@YAHQEAUHINSTANCE__@@KQEAX@Z 0000000180050510     LIBCMTD:dll_dllmain.obj
 0004:0000051c       $pdata$_DllMainCRTStartup  000000018005051c     LIBCMTD:dll_dllmain.obj
 0004:00000528       $pdata$__raise_securityfailure 0000000180050528     LIBCMTD:gs_report.obj
 0004:00000534       $pdata$__report_gsfailure  0000000180050534     LIBCMTD:gs_report.obj
 0004:00000540       $pdata$__report_rangecheckfailure 0000000180050540     LIBCMTD:gs_report.obj
 0004:0000054c       $pdata$__report_securityfailure 000000018005054c     LIBCMTD:gs_report.obj
 0004:00000558       $pdata$capture_previous_context 0000000180050558     LIBCMTD:gs_report.obj
 0004:00000564       $pdata$??$__crt_fast_encode_pointer@PEAX@@YAPEAXQEAX@Z 0000000180050564     libvcruntimed:winapi_downlevel.obj
 0004:00000564       $pdata$??$__crt_fast_encode_pointer@P6AXH@Z@@YAP6AXH@ZQ6AXH@Z@Z 0000000180050564     libucrtd:signal.obj
 0004:00000564       $pdata$??$__crt_fast_encode_pointer@P6AXPEAXK0@Z@@YAP6AXPEAXK0@ZQ6AX0K0@Z@Z 0000000180050564     libucrtd:exit.obj
 0004:00000564       $pdata$??$__crt_fast_encode_pointer@P6AXXZ@@YAP6AXXZQ6AXXZ@Z 0000000180050564     libvcruntimed:purevirt_data.obj
 0004:00000564       $pdata$??$__crt_fast_encode_pointer@P6AHXZ@@YAP6AHXZQ6AHXZ@Z 0000000180050564     libucrtd:onexit.obj
 0004:00000564       $pdata$??$__crt_fast_encode_pointer@PEAP6AXXZ@@YAPEAP6AXXZQEAP6AXXZ@Z 0000000180050564     LIBCMTD:utility.obj
 0004:00000570       $pdata$?find_pe_section@@YAPEAU_IMAGE_SECTION_HEADER@@QEAE_K@Z 0000000180050570     LIBCMTD:utility.obj
 0004:0000057c       $pdata$?is_potentially_valid_image_base@@YA_NQEAX@Z 000000018005057c     LIBCMTD:utility.obj
 0004:00000588       $pdata$__scrt_acquire_startup_lock 0000000180050588     LIBCMTD:utility.obj
 0004:00000594       $pdata$__scrt_dllmain_after_initialize_c 0000000180050594     LIBCMTD:utility.obj
 0004:000005a0       $pdata$__scrt_dllmain_before_initialize_c 00000001800505a0     LIBCMTD:utility.obj
 0004:000005ac       $pdata$__scrt_dllmain_crt_thread_attach 00000001800505ac     LIBCMTD:utility.obj
 0004:000005b8       $pdata$__scrt_dllmain_crt_thread_detach 00000001800505b8     LIBCMTD:utility.obj
 0004:000005c4       $pdata$__scrt_dllmain_exception_filter 00000001800505c4     LIBCMTD:utility.obj
 0004:000005d0       $pdata$__scrt_dllmain_uninitialize_c 00000001800505d0     LIBCMTD:utility.obj
 0004:000005dc       $pdata$__scrt_dllmain_uninitialize_critical 00000001800505dc     LIBCMTD:utility.obj
 0004:000005e8       $pdata$__scrt_initialize_crt 00000001800505e8     LIBCMTD:utility.obj
 0004:000005f4       $pdata$__scrt_initialize_onexit_tables 00000001800505f4     LIBCMTD:utility.obj
 0004:00000600       $pdata$__scrt_is_nonwritable_in_current_image 0000000180050600     LIBCMTD:utility.obj
 0004:0000060c       $pdata$__scrt_release_startup_lock 000000018005060c     LIBCMTD:utility.obj
 0004:00000618       $pdata$__scrt_uninitialize_crt 0000000180050618     LIBCMTD:utility.obj
 0004:00000624       $pdata$_onexit             0000000180050624     LIBCMTD:utility.obj
 0004:00000630       $pdata$atexit              0000000180050630     LIBCMTD:utility.obj
 0004:0000063c       $pdata$__security_init_cookie 000000018005063c     LIBCMTD:gs_support.obj
 0004:00000648       $pdata$?__scrt_initialize_type_info@@YAXXZ 0000000180050648     LIBCMTD:tncleanup.obj
 0004:00000654       $pdata$?__scrt_uninitialize_type_info@@YAXXZ 0000000180050654     LIBCMTD:tncleanup.obj
 0004:00000660       $pdata$__scrt_initialize_default_local_stdio_options 0000000180050660     LIBCMTD:default_local_stdio_options.obj
 0004:0000066c       $pdata$__scrt_fastfail     000000018005066c     LIBCMTD:utility_desktop.obj
 0004:00000678       $pdata$_RTC_Initialize     0000000180050678     LIBCMTD:_initsect_.obj
 0004:00000684       $pdata$0$_RTC_Initialize   0000000180050684     LIBCMTD:_initsect_.obj
 0004:00000690       $pdata$1$_RTC_Initialize   0000000180050690     LIBCMTD:_initsect_.obj
 0004:0000069c       $pdata$_RTC_Terminate      000000018005069c     LIBCMTD:_initsect_.obj
 0004:000006a8       $pdata$0$_RTC_Terminate    00000001800506a8     LIBCMTD:_initsect_.obj
 0004:000006b4       $pdata$1$_RTC_Terminate    00000001800506b4     LIBCMTD:_initsect_.obj
 0004:000006c0       $pdata$_guard_check_icall  00000001800506c0     LIBCMTD:checkcfg.obj
 0004:000006cc       $pdata$__isa_available_init 00000001800506cc     LIBCMTD:_cpu_disp_.obj
 0004:000006d8       $pdata$__scrt_is_ucrt_dll_in_use 00000001800506d8     LIBCMTD:ucrt_detection.obj
 0004:000006e4       $pdata$_guard_icall_checks_enforced 00000001800506e4     LIBCMTD:guard_support.obj
 0004:000006f0       $pdata$?__telemetry_getfilename@@YAXPEAUHINSTANCE__@@PEA_WK@Z 00000001800506f0     libvcruntimed:telemetry.obj
 0004:000006fc       $pdata$HRESULT_FROM_WIN32  00000001800506fc     libvcruntimed:telemetry.obj
 0004:00000708       $pdata$__telemetry_main_invoke_trigger 0000000180050708     libvcruntimed:telemetry.obj
 0004:00000714       $pdata$__telemetry_main_return_trigger 0000000180050714     libvcruntimed:telemetry.obj
 0004:00000720       $pdata$__vcrt_initialize_telemetry_provider 0000000180050720     libvcruntimed:telemetry.obj
 0004:0000072c       $pdata$__vcrt_uninitialize_telemetry_provider 000000018005072c     libvcruntimed:telemetry.obj
 0004:00000738       $pdata$__C_specific_handler 0000000180050738     libvcruntimed:_chandler_.obj
 0004:00000744       $pdata$__vcrt_initialize   0000000180050744     libvcruntimed:initialization.obj
 0004:00000750       $pdata$__vcrt_thread_attach 0000000180050750     libvcruntimed:initialization.obj
 0004:0000075c       $pdata$__vcrt_thread_detach 000000018005075c     libvcruntimed:initialization.obj
 0004:00000768       $pdata$__vcrt_uninitialize 0000000180050768     libvcruntimed:initialization.obj
 0004:00000774       $pdata$__vcrt_uninitialize_critical 0000000180050774     libvcruntimed:initialization.obj
 0004:00000780       $pdata$__std_type_info_compare 0000000180050780     libvcruntimed:std_type_info.obj
 0004:0000078c       $pdata$__std_type_info_destroy_list 000000018005078c     libvcruntimed:std_type_info.obj
 0004:00000798       $pdata$??$__crt_interlocked_compare_exchange_pointer@X$$T$$T@@YAPEAXPEDSEAX$$T1@Z 0000000180050798     libvcruntimed:winapi_downlevel.obj
 0004:00000798       $pdata$??$__crt_interlocked_compare_exchange_pointer@UHINSTANCE__@@$$T$$T@@YAPEAUHINSTANCE__@@PEDSEAU0@$$T1@Z 0000000180050798     libvcruntimed:winapi_downlevel.obj
 0004:000007a4       $pdata$??$__crt_interlocked_read_pointer@X@@YAPEAXPEDSEAX@Z 00000001800507a4     libvcruntimed:winapi_downlevel.obj
 0004:000007a4       $pdata$??$__crt_interlocked_read_pointer@UHINSTANCE__@@@@YAPEAUHINSTANCE__@@PEDSEAU0@@Z 00000001800507a4     libvcruntimed:winapi_downlevel.obj
 0004:000007b0       $pdata$?__crt_fast_encode_pointer@@YA?AU__crt_fast_encoded_nullptr_t@@$$T@Z 00000001800507b0     libvcruntimed:winapi_downlevel.obj
 0004:000007bc       $pdata$?try_get_EventRegister@@YAP6AKPEBU_GUID@@P6AX0KE_K1PEAU_EVENT_FILTER_DESCRIPTOR@@PEAX@Z3PEA_K@ZXZ 00000001800507bc     libvcruntimed:winapi_downlevel.obj
 0004:000007c8       $pdata$?try_get_EventSetInformation@@YAP6AK_KW4_EVENT_INFO_CLASS@@PEAXK@ZXZ 00000001800507c8     libvcruntimed:winapi_downlevel.obj
 0004:000007d4       $pdata$?try_get_EventUnregister@@YAP6AK_K@ZXZ 00000001800507d4     libvcruntimed:winapi_downlevel.obj
 0004:000007e0       $pdata$?try_get_EventWriteTransfer@@YAP6AK_KPEBU_EVENT_DESCRIPTOR@@PEBU_GUID@@2KPEAU_EVENT_DATA_DESCRIPTOR@@@ZXZ 00000001800507e0     libvcruntimed:winapi_downlevel.obj
 0004:000007ec       $pdata$?try_get_FlsAlloc@@YAP6AKP6AXPEAX@Z@ZXZ 00000001800507ec     libvcruntimed:winapi_downlevel.obj
 0004:000007f8       $pdata$?try_get_FlsFree@@YAP6AHK@ZXZ 00000001800507f8     libvcruntimed:winapi_downlevel.obj
 0004:00000804       $pdata$?try_get_FlsGetValue@@YAP6APEAXK@ZXZ 0000000180050804     libvcruntimed:winapi_downlevel.obj
 0004:00000810       $pdata$?try_get_FlsSetValue@@YAP6AHKPEAX@ZXZ 0000000180050810     libvcruntimed:winapi_downlevel.obj
 0004:0000081c       $pdata$?try_get_InitializeCriticalSectionEx@@YAP6AHPEAU_RTL_CRITICAL_SECTION@@KK@ZXZ 000000018005081c     libvcruntimed:winapi_downlevel.obj
 0004:00000828       $pdata$?try_get_first_available_module@@YAPEAUHINSTANCE__@@QEBW4module_id@?A0xece66f1d@@0@Z 0000000180050828     libvcruntimed:winapi_downlevel.obj
 0004:00000834       $pdata$?try_get_function@@YAPEAXW4function_id@?A0xece66f1d@@QEBDQEBW4module_id@2@2@Z 0000000180050834     libvcruntimed:winapi_downlevel.obj
 0004:00000840       $pdata$?try_get_module@@YAPEAUHINSTANCE__@@W4module_id@?A0xece66f1d@@@Z 0000000180050840     libvcruntimed:winapi_downlevel.obj
 0004:0000084c       $pdata$?try_get_proc_address_from_first_available_module@@YAPEAXQEBDQEBW4module_id@?A0xece66f1d@@1@Z 000000018005084c     libvcruntimed:winapi_downlevel.obj
 0004:00000858       $pdata$?try_load_library_from_system_directory@@YAPEAUHINSTANCE__@@QEB_W@Z 0000000180050858     libucrtd:winapi_thunks.obj
 0004:00000858       $pdata$?try_load_library_from_system_directory@@YAPEAUHINSTANCE__@@QEB_W@Z 0000000180050858     libvcruntimed:winapi_downlevel.obj
 0004:00000864       $pdata$__vcrt_EventRegister 0000000180050864     libvcruntimed:winapi_downlevel.obj
 0004:00000870       $pdata$__vcrt_EventSetInformation 0000000180050870     libvcruntimed:winapi_downlevel.obj
 0004:0000087c       $pdata$__vcrt_EventUnregister 000000018005087c     libvcruntimed:winapi_downlevel.obj
 0004:00000888       $pdata$__vcrt_EventWriteTransfer 0000000180050888     libvcruntimed:winapi_downlevel.obj
 0004:00000894       $pdata$__vcrt_FlsAlloc     0000000180050894     libvcruntimed:winapi_downlevel.obj
 0004:000008a0       $pdata$__vcrt_FlsFree      00000001800508a0     libvcruntimed:winapi_downlevel.obj
 0004:000008ac       $pdata$__vcrt_FlsGetValue  00000001800508ac     libvcruntimed:winapi_downlevel.obj
 0004:000008b8       $pdata$__vcrt_FlsSetValue  00000001800508b8     libvcruntimed:winapi_downlevel.obj
 0004:000008c4       $pdata$__vcrt_InitializeCriticalSectionEx 00000001800508c4     libvcruntimed:winapi_downlevel.obj
 0004:000008d0       $pdata$__vcrt_initialize_winapi_thunks 00000001800508d0     libvcruntimed:winapi_downlevel.obj
 0004:000008dc       $pdata$__vcrt_uninitialize_winapi_thunks 00000001800508dc     libvcruntimed:winapi_downlevel.obj
 0004:00000918       $pdata$__except_validate_context_record 0000000180050918     libvcruntimed:jbcxrval.obj
 0004:00000924       $pdata$??$?RU__crt_multibyte_data@@@__crt_internal_free_policy@@QEBAXQEBU__crt_multibyte_data@@@Z 0000000180050924     libucrtd:mbctype.obj
 0004:00000924       $pdata$??$?RP6AXXZ@__crt_internal_free_policy@@QEBAXQEBQ6AXXZ@Z 0000000180050924     libucrtd:onexit.obj
 0004:00000924       $pdata$??$?RU__crt_lowio_handle_data@@@__crt_internal_free_policy@@QEBAXQEBU__crt_lowio_handle_data@@@Z 0000000180050924     libucrtd:osfinfo.obj
 0004:00000924       $pdata$??$?RD@__crt_internal_free_policy@@QEBAXQEBD@Z 0000000180050924     libvcruntimed:std_type_info.obj
 0004:00000924       $pdata$??$?RU__acrt_ptd@@@__crt_internal_free_policy@@QEBAXQEBU__acrt_ptd@@@Z 0000000180050924     libucrtd:per_thread_data.obj
 0004:00000924       $pdata$??$?RPEAU__crt_stdio_stream_data@@@__crt_internal_free_policy@@QEBAXQEBQEAU__crt_stdio_stream_data@@@Z 0000000180050924     libucrtd:_file.obj
 0004:00000924       $pdata$??$?RU__vcrt_ptd@@@__crt_internal_free_policy@@QEBAXQEBU__vcrt_ptd@@@Z 0000000180050924     libvcruntimed:per_thread_data.obj
 0004:00000930       $pdata$??1?$__crt_unique_heap_ptr@DU__crt_internal_free_policy@@@@QEAA@XZ 0000000180050930     libvcruntimed:std_type_info.obj
 0004:00000930       $pdata$??1?$__crt_unique_heap_ptr@U__vcrt_ptd@@U__crt_internal_free_policy@@@@QEAA@XZ 0000000180050930     libvcruntimed:per_thread_data.obj
 0004:0000093c       $pdata$?detach@?$__crt_unique_heap_ptr@DU__crt_public_free_policy@@@@QEAAPEADXZ 000000018005093c     libvcruntimed:std_exception.obj
 0004:0000093c       $pdata$?detach@?$__crt_unique_heap_ptr@PEAU__crt_stdio_stream_data@@U__crt_internal_free_policy@@@@QEAAPEAPEAU__crt_stdio_stream_data@@XZ 000000018005093c     libucrtd:_file.obj
 0004:0000093c       $pdata$?detach@?$__crt_unique_heap_ptr@U__acrt_ptd@@U__crt_internal_free_policy@@@@QEAAPEAU__acrt_ptd@@XZ 000000018005093c     libucrtd:per_thread_data.obj
 0004:0000093c       $pdata$?detach@?$__crt_unique_heap_ptr@U__vcrt_ptd@@U__crt_internal_free_policy@@@@QEAAPEAU__vcrt_ptd@@XZ 000000018005093c     libvcruntimed:per_thread_data.obj
 0004:0000093c       $pdata$?detach@?$__crt_unique_heap_ptr@P6AXXZU__crt_internal_free_policy@@@@QEAAPEAP6AXXZXZ 000000018005093c     libucrtd:onexit.obj
 0004:0000093c       $pdata$?detach@?$__crt_unique_heap_ptr@U__crt_lowio_handle_data@@U__crt_internal_free_policy@@@@QEAAPEAU__crt_lowio_handle_data@@XZ 000000018005093c     libucrtd:osfinfo.obj
 0004:0000093c       $pdata$?detach@?$__crt_unique_heap_ptr@U__crt_multibyte_data@@U__crt_internal_free_policy@@@@QEAAPEAU__crt_multibyte_data@@XZ 000000018005093c     libucrtd:mbctype.obj
 0004:00000948       $pdata$?release@?$__crt_unique_heap_ptr@U__vcrt_ptd@@U__crt_internal_free_policy@@@@QEAAXXZ 0000000180050948     libvcruntimed:per_thread_data.obj
 0004:00000948       $pdata$?release@?$__crt_unique_heap_ptr@DU__crt_internal_free_policy@@@@QEAAXXZ 0000000180050948     libvcruntimed:std_type_info.obj
 0004:00000954       $pdata$?store_and_initialize_ptd@@YA_NQEAU__vcrt_ptd@@@Z 0000000180050954     libvcruntimed:per_thread_data.obj
 0004:00000960       $pdata$__vcrt_freefls      0000000180050960     libvcruntimed:per_thread_data.obj
 0004:0000096c       $pdata$__vcrt_freeptd      000000018005096c     libvcruntimed:per_thread_data.obj
 0004:00000978       $pdata$__vcrt_getptd       0000000180050978     libvcruntimed:per_thread_data.obj
 0004:00000984       $pdata$__vcrt_getptd_noexit 0000000180050984     libvcruntimed:per_thread_data.obj
 0004:00000990       $pdata$__vcrt_initialize_ptd 0000000180050990     libvcruntimed:per_thread_data.obj
 0004:0000099c       $pdata$__vcrt_uninitialize_ptd 000000018005099c     libvcruntimed:per_thread_data.obj
 0004:000009a8       $pdata$__vcrt_initialize_locks 00000001800509a8     libvcruntimed:locks.obj
 0004:000009b4       $pdata$__vcrt_uninitialize_locks 00000001800509b4     libvcruntimed:locks.obj
 0004:000009c0       $pdata$__vcrt_initialize_pure_virtual_call_handler 00000001800509c0     libvcruntimed:purevirt_data.obj
 0004:000009cc       $pdata$_vsprintf_s_l       00000001800509cc     libvcruntimed:undname.obj
 0004:000009d8       $pdata$sprintf_s           00000001800509d8     libvcruntimed:undname.obj
 0004:000009e4       $pdata$roundf              00000001800509e4     libucrtd:roundf.obj
 0004:000009f0       $pdata$sqrtf               00000001800509f0     libucrtd:sqrtf.obj
 0004:000009fc       $pdata$_initterm           00000001800509fc     libucrtd:initterm.obj
 0004:00000a08       $pdata$_initterm_e         0000000180050a08     libucrtd:initterm.obj
 0004:00000a14       $pdata$?xcptlookup@@YAPEAU__crt_signal_action_t@@KQEAU1@@Z 0000000180050a14     libucrtd:exception_filter.obj
 0004:00000a20       $pdata$_seh_filter_dll     0000000180050a20     libucrtd:exception_filter.obj
 0004:00000a2c       $pdata$_seh_filter_exe     0000000180050a2c     libucrtd:exception_filter.obj
 0004:00000a38       $pdata$??$__crt_get_proc_address@P6AXI@Z@@YAP6AXI@ZQEAUHINSTANCE__@@QEBD@Z 0000000180050a38     libucrtd:exit.obj
 0004:00000a44       $pdata$??$__crt_interlocked_read@J@@YAJPEDJ@Z 0000000180050a44     libucrtd:exit.obj
 0004:00000a50       $pdata$??1?$__crt_unique_handle_t@U__crt_hmodule_traits@@@@QEAA@XZ 0000000180050a50     libucrtd:exit.obj
 0004:00000a5c       $pdata$?__crt_interlocked_read_32@@YAHPEDH@Z 0000000180050a5c     libucrtd:exit.obj
 0004:00000a68       $pdata$?close@?$__crt_unique_handle_t@U__crt_hmodule_traits@@@@QEAAXXZ 0000000180050a68     libucrtd:exit.obj
 0004:00000a74       $pdata$?close@__crt_hmodule_traits@@SA_NPEAUHINSTANCE__@@@Z 0000000180050a74     libucrtd:exit.obj
 0004:00000a80       $pdata$?common_exit@@YAXHW4_crt_exit_cleanup_mode@@W4_crt_exit_return_mode@@@Z 0000000180050a80     libucrtd:exit.obj
 0004:00000a8c       $pdata$?exit_or_terminate_process@@YAXI@Z 0000000180050a8c     libucrtd:exit.obj
 0004:00000a98       $pdata$?is_managed_app@@YA_NXZ 0000000180050a98     libucrtd:exit.obj
 0004:00000aa4       $pdata$?should_call_terminate_process@@YA_NXZ 0000000180050aa4     libucrtd:exit.obj
 0004:00000ab0       $pdata$?try_cor_exit_process@@YAXI@Z 0000000180050ab0     libucrtd:exit.obj
 0004:00000abc       $pdata$_cexit              0000000180050abc     libucrtd:exit.obj
 0004:00000ac8       $pdata$_exit               0000000180050ac8     libucrtd:exit.obj
 0004:00000ad4       $pdata$_is_c_termination_complete 0000000180050ad4     libucrtd:exit.obj
 0004:00000ae0       $pdata$??$common_initialize_environment_nolock@D@@YAHXZ 0000000180050ae0     libucrtd:environment_initialization.obj
 0004:00000aec       $pdata$??$create_environment@D@@YAQEAPEADQEAD@Z 0000000180050aec     libucrtd:environment_initialization.obj
 0004:00000af8       $pdata$??$free_environment@D@@YAXQEAPEAD@Z 0000000180050af8     libucrtd:environment_initialization.obj
 0004:00000af8       $pdata$??$free_environment@_W@@YAXQEAPEA_W@Z 0000000180050af8     libucrtd:environment_initialization.obj
 0004:00000b04       $pdata$??$uninitialize_environment_internal@D@@YAXAEAPEAPEAD@Z 0000000180050b04     libucrtd:environment_initialization.obj
 0004:00000b10       $pdata$??$uninitialize_environment_internal@_W@@YAXAEAPEAPEA_W@Z 0000000180050b10     libucrtd:environment_initialization.obj
 0004:00000b1c       $pdata$__dcrt_uninitialize_environments_nolock 0000000180050b1c     libucrtd:environment_initialization.obj
 0004:00000b28       $pdata$_invoke_watson_if_error 0000000180050b28     libucrtd:environment_initialization.obj
 0004:00000b34       $pdata$??$?BX@__crt_fast_encoded_nullptr_t@@QEBAPEAXXZ 0000000180050b34     libvcruntimed:winapi_downlevel.obj
 0004:00000b34       $pdata$??$?B$$A6AXXZ@__crt_fast_encoded_nullptr_t@@QEBAP6AXXZXZ 0000000180050b34     libvcruntimed:purevirt_data.obj
 0004:00000b34       $pdata$??$?B$$A6AXH@Z@__crt_fast_encoded_nullptr_t@@QEBAP6AXH@ZXZ 0000000180050b34     libucrtd:signal.obj
 0004:00000b34       $pdata$??$?BP6AXXZ@__crt_fast_encoded_nullptr_t@@QEBAPEAP6AXXZXZ 0000000180050b34     libucrtd:onexit.obj
 0004:00000b34       $pdata$??$?B$$A6AXPEAXK0@Z@__crt_fast_encoded_nullptr_t@@QEBAP6AXPEAXK0@ZXZ 0000000180050b34     libucrtd:exit.obj
 0004:00000b40       $pdata$??$?RV<lambda_b0d8f1f77f5878de4f648f281b223c15>@@AEAV<lambda_942beefa13ab35ff55f86422493ffd6a>@@V<lambda_7adb6fc9c0d6a5bd4e2d9c212ec7cdcc>@@@?$__crt_seh_guarded_call@H@@QEAAH$$QEAV<lambda_b0d8f1f77f5878de4f648f281b223c15>@@AEAV<lambda_942beefa13ab35ff55f86422493ffd6a>@@$$QEAV<lambda_7adb6fc9c0d6a5bd4e2d9c212ec7cdcc>@@@Z 0000000180050b40     libucrtd:onexit.obj
 0004:00000b4c       $pdata$??$?RV<lambda_d22e02de4d14401f49897516b29a2b7c>@@AEAV<lambda_e971338317bfa523bb8920b43d823727>@@V<lambda_b0b8599c9027f5b14541fbbd6863d1f1>@@@?$__crt_seh_guarded_call@H@@QEAAH$$QEAV<lambda_d22e02de4d14401f49897516b29a2b7c>@@AEAV<lambda_e971338317bfa523bb8920b43d823727>@@$$QEAV<lambda_b0b8599c9027f5b14541fbbd6863d1f1>@@@Z 0000000180050b4c     libucrtd:onexit.obj
 0004:00000b58       $pdata$??$__acrt_lock_and_call@V<lambda_942beefa13ab35ff55f86422493ffd6a>@@@@YAHW4__acrt_lock_id@@$$QEAV<lambda_942beefa13ab35ff55f86422493ffd6a>@@@Z 0000000180050b58     libucrtd:onexit.obj
 0004:00000b64       $pdata$??$__acrt_lock_and_call@V<lambda_e971338317bfa523bb8920b43d823727>@@@@YAHW4__acrt_lock_id@@$$QEAV<lambda_e971338317bfa523bb8920b43d823727>@@@Z 0000000180050b64     libucrtd:onexit.obj
 0004:00000b70       $pdata$??R<lambda_942beefa13ab35ff55f86422493ffd6a>@@QEBAHXZ 0000000180050b70     libucrtd:onexit.obj
 0004:00000b7c       $pdata$??R<lambda_e971338317bfa523bb8920b43d823727>@@QEBAHXZ 0000000180050b7c     libucrtd:onexit.obj
 0004:00000b88       $pdata$_crt_atexit         0000000180050b88     libucrtd:onexit.obj
 0004:00000b94       $pdata$_execute_onexit_table 0000000180050b94     libucrtd:onexit.obj
 0004:00000ba0       $pdata$_initialize_onexit_table 0000000180050ba0     libucrtd:onexit.obj
 0004:00000bac       $pdata$_register_onexit_function 0000000180050bac     libucrtd:onexit.obj
 0004:00000bb8       $pdata$initialize_global_variables 0000000180050bb8     libucrtd:initialization.obj
 0004:00000bc4       $pdata$initialize_c        0000000180050bc4     libucrtd:initialization.obj
 0004:00000bd0       $pdata$uninitialize_environment 0000000180050bd0     libucrtd:initialization.obj
 0004:00000bdc       $pdata$initialize_pointers 0000000180050bdc     libucrtd:initialization.obj
 0004:00000be8       $pdata$uninitialize_vcruntime 0000000180050be8     libucrtd:initialization.obj
 0004:00000bf4       $pdata$uninitialize_allocated_memory 0000000180050bf4     libucrtd:initialization.obj
 0004:00000c00       $pdata$report_memory_leaks 0000000180050c00     libucrtd:initialization.obj
 0004:00000c0c       $pdata$__acrt_initialize   0000000180050c0c     libucrtd:initialization.obj
 0004:00000c18       $pdata$__acrt_thread_attach 0000000180050c18     libucrtd:initialization.obj
 0004:00000c24       $pdata$__acrt_thread_detach 0000000180050c24     libucrtd:initialization.obj
 0004:00000c30       $pdata$__acrt_uninitialize 0000000180050c30     libucrtd:initialization.obj
 0004:00000c3c       $pdata$__acrt_uninitialize_critical 0000000180050c3c     libucrtd:initialization.obj
 0004:00000c48       $pdata$terminate           0000000180050c48     libucrtd:terminate.obj
 0004:00000c54       $pdata$wcslen              0000000180050c54     libucrtd:wcslen.obj
 0004:00000c6c       $pdata$??0_LocaleUpdate@@QEAA@QEAU__crt_locale_pointers@@@Z 0000000180050c6c     libucrtd:debug_heap.obj
 0004:00000c78       $pdata$?check_block@@YA_NQEAU_CrtMemBlockHeader@@@Z 0000000180050c78     libucrtd:debug_heap.obj
 0004:00000c84       $pdata$?check_bytes@@YA_NQEBEE_K@Z 0000000180050c84     libucrtd:debug_heap.obj
 0004:00000c90       $pdata$?dump_all_object_since_nolock@@YAXQEBU_CrtMemState@@@Z 0000000180050c90     libucrtd:debug_heap.obj
 0004:00000c9c       $pdata$?free_dbg_nolock@@YAXQEAXH@Z 0000000180050c9c     libucrtd:debug_heap.obj
 0004:00000ca8       $pdata$?heap_alloc_dbg@@YAPEAX_KHQEBDH@Z 0000000180050ca8     libucrtd:debug_heap.obj
 0004:00000cb4       $pdata$?heap_alloc_dbg_internal@@YAPEAX_KHQEBDH@Z 0000000180050cb4     libucrtd:debug_heap.obj
 0004:00000cc0       $pdata$?is_bad_read_pointer@@YA_NQEBX_K@Z 0000000180050cc0     libucrtd:debug_heap.obj
 0004:00000ccc       $pdata$?is_block_an_aligned_allocation@@YA_NQEBX@Z 0000000180050ccc     libucrtd:debug_heap.obj
 0004:00000cd8       $pdata$?is_block_type_valid@@YA_NH@Z 0000000180050cd8     libucrtd:debug_heap.obj
 0004:00000ce4       $pdata$?print_block_data@@YAXQEAU__crt_locale_pointers@@QEAU_CrtMemBlockHeader@@@Z 0000000180050ce4     libucrtd:debug_heap.obj
 0004:00000cf0       $pdata$?realloc_dbg_nolock@@YAPEAXQEAXQEA_KHQEBDH_N@Z 0000000180050cf0     libucrtd:debug_heap.obj
 0004:00000cfc       $pdata$?validate_heap_if_required_nolock@@YAXXZ 0000000180050cfc     libucrtd:debug_heap.obj
 0004:00000d08       $pdata$_CrtCheckMemory     0000000180050d08     libucrtd:debug_heap.obj
 0004:00000d14       $pdata$_CrtDumpMemoryLeaks 0000000180050d14     libucrtd:debug_heap.obj
 0004:00000d20       $pdata$_CrtIsValidHeapPointer 0000000180050d20     libucrtd:debug_heap.obj
 0004:00000d2c       $pdata$_CrtIsValidPointer  0000000180050d2c     libucrtd:debug_heap.obj
 0004:00000d38       $pdata$_CrtMemCheckpoint   0000000180050d38     libucrtd:debug_heap.obj
 0004:00000d44       $pdata$_CrtMemDumpAllObjectsSince 0000000180050d44     libucrtd:debug_heap.obj
 0004:00000d50       $pdata$_CrtSetDbgFlag      0000000180050d50     libucrtd:debug_heap.obj
 0004:00000d5c       $pdata$_CrtSetDumpClient   0000000180050d5c     libucrtd:debug_heap.obj
 0004:00000d68       $pdata$__acrt_get_locale_data_prefix 0000000180050d68     libucrtd:debug_heap.obj
 0004:00000d74       $pdata$__acrt_locale_changed 0000000180050d74     libucrtd:debug_heap.obj
 0004:00000d80       $pdata$_calloc_dbg         0000000180050d80     libucrtd:debug_heap.obj
 0004:00000d8c       $pdata$_chvalidchk_l       0000000180050d8c     libucrtd:debug_heap.obj
 0004:00000d98       $pdata$_free_dbg           0000000180050d98     libucrtd:debug_heap.obj
 0004:00000da4       $pdata$_invoke_watson_if_oneof 0000000180050da4     libucrtd:debug_heap.obj
 0004:00000db0       $pdata$_ischartype_l       0000000180050db0     libucrtd:debug_heap.obj
 0004:00000dbc       $pdata$_malloc_dbg         0000000180050dbc     libucrtd:debug_heap.obj
 0004:00000dc8       $pdata$_msize_dbg          0000000180050dc8     libucrtd:debug_heap.obj
 0004:00000dd4       $pdata$_realloc_dbg        0000000180050dd4     libucrtd:debug_heap.obj
 0004:00000de0       $pdata$_recalloc_dbg       0000000180050de0     libucrtd:debug_heap.obj
 0004:00000dec       $pdata$??$common_tcscpy_s@D@@YAHQEAD_KQEBD@Z 0000000180050dec     libucrtd:strcpy_s.obj
 0004:00000df8       $pdata$strcpy_s            0000000180050df8     libucrtd:strcpy_s.obj
 0004:00000e10       $pdata$??$common_message_window@D@@YAHHQEAXQEBD111@Z 0000000180050e10     libucrtd:dbgrpt.obj
 0004:00000e1c       $pdata$??$common_message_window@_W@@YAHHQEAXQEB_W111@Z 0000000180050e1c     libucrtd:dbgrpt.obj
 0004:00000e28       $pdata$??$get_module_file_name@AEAPEAUHINSTANCE__@@AEAY0BAF@DK@?$__crt_char_traits@D@@SAKAEAPEAUHINSTANCE__@@AEAY0BAF@D$$QEAK@Z 0000000180050e28     libucrtd:dbgrpt.obj
 0004:00000e34       $pdata$??$get_module_file_name@AEAPEAUHINSTANCE__@@AEAY0BAF@_WK@?$__crt_char_traits@_W@@SAKAEAPEAUHINSTANCE__@@AEAY0BAF@_W$$QEAK@Z 0000000180050e34     libucrtd:dbgrpt.obj
 0004:00000e40       $pdata$??$tcscpy_s@AEAY0BAF@D_KPEBD@?$__crt_char_traits@D@@SAHAEAY0BAF@D$$QEA_K$$QEAPEBD@Z 0000000180050e40     libucrtd:dbgrpt.obj
 0004:00000e4c       $pdata$??$tcscpy_s@AEAY0BAF@_W_KPEB_W@?$__crt_char_traits@_W@@SAHAEAY0BAF@_W$$QEA_K$$QEAPEB_W@Z 0000000180050e4c     libucrtd:dbgrpt.obj
 0004:00000e58       $pdata$??$tcslen@AEAY0BAF@D@?$__crt_char_traits@D@@SA_KAEAY0BAF@D@Z 0000000180050e58     libucrtd:dbgrpt.obj
 0004:00000e64       $pdata$??$tcslen@AEAY0BAF@_W@?$__crt_char_traits@_W@@SA_KAEAY0BAF@_W@Z 0000000180050e64     libucrtd:dbgrpt.obj
 0004:00000e70       $pdata$??$tcslen@AEBQEBD@?$__crt_char_traits@D@@SA_KAEBQEBD@Z 0000000180050e70     libucrtd:dbgrpt.obj
 0004:00000e7c       $pdata$??$tcslen@AEBQEB_W@?$__crt_char_traits@_W@@SA_KAEBQEB_W@Z 0000000180050e7c     libucrtd:dbgrpt.obj
 0004:00000e88       $pdata$_CrtDbgReport       0000000180050e88     libucrtd:dbgrpt.obj
 0004:00000e94       $pdata$_CrtDbgReportW      0000000180050e94     libucrtd:dbgrpt.obj
 0004:00000ea0       $pdata$__acrt_MessageWindowA 0000000180050ea0     libucrtd:dbgrpt.obj
 0004:00000eac       $pdata$__acrt_MessageWindowW 0000000180050eac     libucrtd:dbgrpt.obj
 0004:00000eb8       $pdata$_snwprintf_s        0000000180050eb8     libucrtd:dbgrpt.obj
 0004:00000ec4       $pdata$_vsnwprintf_s_l     0000000180050ec4     libucrtd:dbgrpt.obj
 0004:00000ed0       $pdata$abort               0000000180050ed0     libucrtd:abort.obj
 0004:00000edc       $pdata$??$?0AEBV?$string_output_adapter@D@__crt_stdio_output@@AEB_KAEBQEBDAEBQEAU__crt_locale_pointers@@AEBQEAD@?$format_validation_base@DV?$string_output_adapter@D@__crt_stdio_output@@@__crt_stdio_output@@IEAA@AEBV?$string_output_adapter@D@1@AEB_KAEBQEBDAEBQEAU__crt_locale_pointers@@AEBQEAD@Z 0000000180050edc     libucrtd:output.obj
 0004:00000ee8       $pdata$??$?0AEBV?$string_output_adapter@D@__crt_stdio_output@@AEB_KAEBQEBDAEBQEAU__crt_locale_pointers@@AEBQEAD@?$standard_base@DV?$string_output_adapter@D@__crt_stdio_output@@@__crt_stdio_output@@IEAA@AEBV?$string_output_adapter@D@1@AEB_KAEBQEBDAEBQEAU__crt_locale_pointers@@AEBQEAD@Z 0000000180050ee8     libucrtd:output.obj
 0004:00000ef4       $pdata$??$?0AEBV?$string_output_adapter@_W@__crt_stdio_output@@AEB_KAEBQEB_WAEBQEAU__crt_locale_pointers@@AEBQEAD@?$format_validation_base@_WV?$string_output_adapter@_W@__crt_stdio_output@@@__crt_stdio_output@@IEAA@AEBV?$string_output_adapter@_W@1@AEB_KAEBQEB_WAEBQEAU__crt_locale_pointers@@AEBQEAD@Z 0000000180050ef4     libucrtd:output.obj
 0004:00000f00       $pdata$??$?0AEBV?$string_output_adapter@_W@__crt_stdio_output@@AEB_KAEBQEB_WAEBQEAU__crt_locale_pointers@@AEBQEAD@?$standard_base@_WV?$string_output_adapter@_W@__crt_stdio_output@@@__crt_stdio_output@@IEAA@AEBV?$string_output_adapter@_W@1@AEB_KAEBQEB_WAEBQEAU__crt_locale_pointers@@AEBQEAD@Z 0000000180050f00     libucrtd:output.obj
 0004:00000f0c       $pdata$??$common_vsnprintf_s@D@@YAH_KQEAD00QEBDQEAU__crt_locale_pointers@@1@Z 0000000180050f0c     libucrtd:output.obj
 0004:00000f18       $pdata$??$common_vsnprintf_s@_W@@YAH_KQEA_W00QEB_WQEAU__crt_locale_pointers@@QEAD@Z 0000000180050f18     libucrtd:output.obj
 0004:00000f24       $pdata$??$common_vsprintf@Vformat_validation_base@__crt_stdio_output@@D@@YAH_KQEAD0QEBDQEAU__crt_locale_pointers@@1@Z 0000000180050f24     libucrtd:output.obj
 0004:00000f30       $pdata$??$common_vsprintf@Vformat_validation_base@__crt_stdio_output@@_W@@YAH_KQEA_W0QEB_WQEAU__crt_locale_pointers@@QEAD@Z 0000000180050f30     libucrtd:output.obj
 0004:00000f3c       $pdata$??$common_vsprintf_s@D@@YAH_KQEAD0QEBDQEAU__crt_locale_pointers@@1@Z 0000000180050f3c     libucrtd:output.obj
 0004:00000f48       $pdata$??$count@D@formatting_buffer@__crt_stdio_output@@QEBA_KXZ 0000000180050f48     libucrtd:output.obj
 0004:00000f54       $pdata$??$data@_W@formatting_buffer@__crt_stdio_output@@QEAAPEA_WXZ 0000000180050f54     libucrtd:output.obj
 0004:00000f54       $pdata$??$data@D@formatting_buffer@__crt_stdio_output@@QEAAPEADXZ 0000000180050f54     libucrtd:output.obj
 0004:00000f60       $pdata$??$ensure_buffer_is_big_enough@D@formatting_buffer@__crt_stdio_output@@QEAA_N_K@Z 0000000180050f60     libucrtd:output.obj
 0004:00000f6c       $pdata$??$extract_argument_from_va_list@C_J@?$standard_base@DV?$string_output_adapter@D@__crt_stdio_output@@@__crt_stdio_output@@IEAA_NAEA_J@Z 0000000180050f6c     libucrtd:output.obj
 0004:00000f6c       $pdata$??$extract_argument_from_va_list@C_J@?$standard_base@_WV?$string_output_adapter@_W@__crt_stdio_output@@@__crt_stdio_output@@IEAA_NAEA_J@Z 0000000180050f6c     libucrtd:output.obj
 0004:00000f78       $pdata$??$extract_argument_from_va_list@E_J@?$standard_base@DV?$string_output_adapter@D@__crt_stdio_output@@@__crt_stdio_output@@IEAA_NAEA_J@Z 0000000180050f78     libucrtd:output.obj
 0004:00000f78       $pdata$??$extract_argument_from_va_list@E_J@?$standard_base@_WV?$string_output_adapter@_W@__crt_stdio_output@@@__crt_stdio_output@@IEAA_NAEA_J@Z 0000000180050f78     libucrtd:output.obj
 0004:00000f84       $pdata$??$extract_argument_from_va_list@F_J@?$standard_base@_WV?$string_output_adapter@_W@__crt_stdio_output@@@__crt_stdio_output@@IEAA_NAEA_J@Z 0000000180050f84     libucrtd:output.obj
 0004:00000f84       $pdata$??$extract_argument_from_va_list@F_J@?$standard_base@DV?$string_output_adapter@D@__crt_stdio_output@@@__crt_stdio_output@@IEAA_NAEA_J@Z 0000000180050f84     libucrtd:output.obj
 0004:00000f90       $pdata$??$extract_argument_from_va_list@GD@?$standard_base@DV?$string_output_adapter@D@__crt_stdio_output@@@__crt_stdio_output@@IEAA_NAEAD@Z 0000000180050f90     libucrtd:output.obj
 0004:00000f9c       $pdata$??$extract_argument_from_va_list@G_J@?$standard_base@_WV?$string_output_adapter@_W@__crt_stdio_output@@@__crt_stdio_output@@IEAA_NAEA_J@Z 0000000180050f9c     libucrtd:output.obj
 0004:00000f9c       $pdata$??$extract_argument_from_va_list@G_J@?$standard_base@DV?$string_output_adapter@D@__crt_stdio_output@@@__crt_stdio_output@@IEAA_NAEA_J@Z 0000000180050f9c     libucrtd:output.obj
 0004:00000fa8       $pdata$??$extract_argument_from_va_list@H_J@?$standard_base@_WV?$string_output_adapter@_W@__crt_stdio_output@@@__crt_stdio_output@@IEAA_NAEA_J@Z 0000000180050fa8     libucrtd:output.obj
 0004:00000fa8       $pdata$??$extract_argument_from_va_list@H_J@?$standard_base@DV?$string_output_adapter@D@__crt_stdio_output@@@__crt_stdio_output@@IEAA_NAEA_J@Z 0000000180050fa8     libucrtd:output.obj
 0004:00000fb4       $pdata$??$extract_argument_from_va_list@I_J@?$standard_base@_WV?$string_output_adapter@_W@__crt_stdio_output@@@__crt_stdio_output@@IEAA_NAEA_J@Z 0000000180050fb4     libucrtd:output.obj
 0004:00000fb4       $pdata$??$extract_argument_from_va_list@I_J@?$standard_base@DV?$string_output_adapter@D@__crt_stdio_output@@@__crt_stdio_output@@IEAA_NAEA_J@Z 0000000180050fb4     libucrtd:output.obj
 0004:00000fc0       $pdata$??$extract_argument_from_va_list@U_CRT_DOUBLE@@U1@@?$standard_base@_WV?$string_output_adapter@_W@__crt_stdio_output@@@__crt_stdio_output@@IEAA_NAEAU_CRT_DOUBLE@@@Z 0000000180050fc0     libucrtd:output.obj
 0004:00000fc0       $pdata$??$extract_argument_from_va_list@U_CRT_DOUBLE@@U1@@?$standard_base@DV?$string_output_adapter@D@__crt_stdio_output@@@__crt_stdio_output@@IEAA_NAEAU_CRT_DOUBLE@@@Z 0000000180050fc0     libucrtd:output.obj
 0004:00000fcc       $pdata$??$extract_argument_from_va_list@PEAXPEAX@?$standard_base@_WV?$string_output_adapter@_W@__crt_stdio_output@@@__crt_stdio_output@@IEAA_NAEAPEAX@Z 0000000180050fcc     libucrtd:output.obj
 0004:00000fcc       $pdata$??$extract_argument_from_va_list@PEADPEAD@?$standard_base@_WV?$string_output_adapter@_W@__crt_stdio_output@@@__crt_stdio_output@@IEAA_NAEAPEAD@Z 0000000180050fcc     libucrtd:output.obj
 0004:00000fcc       $pdata$??$extract_argument_from_va_list@PEAXPEAX@?$standard_base@DV?$string_output_adapter@D@__crt_stdio_output@@@__crt_stdio_output@@IEAA_NAEAPEAX@Z 0000000180050fcc     libucrtd:output.obj
 0004:00000fcc       $pdata$??$extract_argument_from_va_list@PEAUansi_string@?1??type_case_Z@?$output_processor@_WV?$string_output_adapter@_W@__crt_stdio_output@@V?$format_validation_base@_WV?$string_output_adapter@_W@__crt_stdio_output@@@2@@__crt_stdio_output@@AEAA_NXZ@PEAU1?1??234@AEAA_NXZ@@?$standard_base@_WV?$string_output_adapter@_W@__crt_stdio_output@@@__crt_stdio_output@@IEAA_NAEAPEAUansi_string@?1??type_case_Z@?$output_processor@_WV?$string_output_adapter@_W@__crt_stdio_output@@V?$format_validation_base@_WV?$string_output_adapter@_W@__crt_stdio_output@@@2@@1@AEAA_NXZ@@Z 0000000180050fcc     libucrtd:output.obj
 0004:00000fcc       $pdata$??$extract_argument_from_va_list@PEAUansi_string@?1??type_case_Z@?$output_processor@DV?$string_output_adapter@D@__crt_stdio_output@@V?$format_validation_base@DV?$string_output_adapter@D@__crt_stdio_output@@@2@@__crt_stdio_output@@AEAA_NXZ@PEAU1?1??234@AEAA_NXZ@@?$standard_base@DV?$string_output_adapter@D@__crt_stdio_output@@@__crt_stdio_output@@IEAA_NAEAPEAUansi_string@?1??type_case_Z@?$output_processor@DV?$string_output_adapter@D@__crt_stdio_output@@V?$format_validation_base@DV?$string_output_adapter@D@__crt_stdio_output@@@2@@1@AEAA_NXZ@@Z 0000000180050fcc     libucrtd:output.obj
 0004:00000fcc       $pdata$??$extract_argument_from_va_list@_J_J@?$standard_base@_WV?$string_output_adapter@_W@__crt_stdio_output@@@__crt_stdio_output@@IEAA_NAEA_J@Z 0000000180050fcc     libucrtd:output.obj
 0004:00000fcc       $pdata$??$extract_argument_from_va_list@_K_J@?$standard_base@_WV?$string_output_adapter@_W@__crt_stdio_output@@@__crt_stdio_output@@IEAA_NAEA_J@Z 0000000180050fcc     libucrtd:output.obj
 0004:00000fcc       $pdata$??$extract_argument_from_va_list@_J_J@?$standard_base@DV?$string_output_adapter@D@__crt_stdio_output@@@__crt_stdio_output@@IEAA_NAEA_J@Z 0000000180050fcc     libucrtd:output.obj
 0004:00000fcc       $pdata$??$extract_argument_from_va_list@_K_J@?$standard_base@DV?$string_output_adapter@D@__crt_stdio_output@@@__crt_stdio_output@@IEAA_NAEA_J@Z 0000000180050fcc     libucrtd:output.obj
 0004:00000fcc       $pdata$??$extract_argument_from_va_list@PEADPEAD@?$standard_base@DV?$string_output_adapter@D@__crt_stdio_output@@@__crt_stdio_output@@IEAA_NAEAPEAD@Z 0000000180050fcc     libucrtd:output.obj
 0004:00000fd8       $pdata$??$extract_argument_from_va_list@_W_W@?$standard_base@_WV?$string_output_adapter@_W@__crt_stdio_output@@@__crt_stdio_output@@IEAA_NAEA_W@Z 0000000180050fd8     libucrtd:output.obj
 0004:00000fd8       $pdata$??$extract_argument_from_va_list@_W_W@?$standard_base@DV?$string_output_adapter@D@__crt_stdio_output@@@__crt_stdio_output@@IEAA_NAEA_W@Z 0000000180050fd8     libucrtd:output.obj
 0004:00000fe4       $pdata$??$is_wide_character_specifier@D@__crt_stdio_output@@YA_N_KDW4length_modifier@0@@Z 0000000180050fe4     libucrtd:output.obj
 0004:00000ff0       $pdata$??$is_wide_character_specifier@_W@__crt_stdio_output@@YA_N_K_WW4length_modifier@0@@Z 0000000180050ff0     libucrtd:output.obj
 0004:00000ffc       $pdata$??$read_va_arg@C@__crt_stdio_output@@YACAEAPEAD@Z 0000000180050ffc     libucrtd:output.obj
 0004:00000ffc       $pdata$??$read_va_arg@E@__crt_stdio_output@@YAEAEAPEAD@Z 0000000180050ffc     libucrtd:output.obj
 0004:00001008       $pdata$??$read_va_arg@G@__crt_stdio_output@@YAGAEAPEAD@Z 0000000180051008     libucrtd:output.obj
 0004:00001008       $pdata$??$read_va_arg@_W@__crt_stdio_output@@YA_WAEAPEAD@Z 0000000180051008     libucrtd:output.obj
 0004:00001008       $pdata$??$read_va_arg@F@__crt_stdio_output@@YAFAEAPEAD@Z 0000000180051008     libucrtd:output.obj
 0004:00001014       $pdata$??$read_va_arg@I@__crt_stdio_output@@YAIAEAPEAD@Z 0000000180051014     libucrtd:output.obj
 0004:00001014       $pdata$??$read_va_arg@H@__crt_stdio_output@@YAHAEAPEAD@Z 0000000180051014     libucrtd:output.obj
 0004:00001020       $pdata$??$read_va_arg@PEAUansi_string@?1??type_case_Z@?$output_processor@DV?$string_output_adapter@D@__crt_stdio_output@@V?$format_validation_base@DV?$string_output_adapter@D@__crt_stdio_output@@@2@@__crt_stdio_output@@AEAA_NXZ@@__crt_stdio_output@@YAPEAUansi_string@?1??type_case_Z@?$output_processor@DV?$string_output_adapter@D@__crt_stdio_output@@V?$format_validation_base@DV?$string_output_adapter@D@__crt_stdio_output@@@2@@0@AEAA_NXZ@AEAPEAD@Z 0000000180051020     libucrtd:output.obj
 0004:00001020       $pdata$??$read_va_arg@_J@__crt_stdio_output@@YA_JAEAPEAD@Z 0000000180051020     libucrtd:output.obj
 0004:00001020       $pdata$??$read_va_arg@PEAD@__crt_stdio_output@@YAPEADAEAPEAD@Z 0000000180051020     libucrtd:output.obj
 0004:00001020       $pdata$??$read_va_arg@_K@__crt_stdio_output@@YA_KAEAPEAD@Z 0000000180051020     libucrtd:output.obj
 0004:00001020       $pdata$??$read_va_arg@PEAUansi_string@?1??type_case_Z@?$output_processor@_WV?$string_output_adapter@_W@__crt_stdio_output@@V?$format_validation_base@_WV?$string_output_adapter@_W@__crt_stdio_output@@@2@@__crt_stdio_output@@AEAA_NXZ@@__crt_stdio_output@@YAPEAUansi_string@?1??type_case_Z@?$output_processor@_WV?$string_output_adapter@_W@__crt_stdio_output@@V?$format_validation_base@_WV?$string_output_adapter@_W@__crt_stdio_output@@@2@@0@AEAA_NXZ@AEAPEAD@Z 0000000180051020     libucrtd:output.obj
 0004:00001020       $pdata$??$read_va_arg@U_CRT_DOUBLE@@@__crt_stdio_output@@YA?AU_CRT_DOUBLE@@AEAPEAD@Z 0000000180051020     libucrtd:output.obj
 0004:00001020       $pdata$??$read_va_arg@PEAX@__crt_stdio_output@@YAPEAXAEAPEAD@Z 0000000180051020     libucrtd:output.obj
 0004:0000102c       $pdata$??$scratch_count@D@formatting_buffer@__crt_stdio_output@@QEBA_KXZ 000000018005102c     libucrtd:output.obj
 0004:00001038       $pdata$??$scratch_data@D@formatting_buffer@__crt_stdio_output@@QEAAPEADXZ 0000000180051038     libucrtd:output.obj
 0004:00001044       $pdata$??$tcstol@PEBDPEAPEADH@?$__crt_char_traits@D@@SAJ$$QEAPEBD$$QEAPEAPEAD$$QEAH@Z 0000000180051044     libucrtd:output.obj
 0004:00001050       $pdata$??$tcstol@PEB_WPEAPEA_WH@?$__crt_char_traits@_W@@SAJ$$QEAPEB_W$$QEAPEAPEA_W$$QEAH@Z 0000000180051050     libucrtd:output.obj
 0004:0000105c       $pdata$??$type_case_integer_parse_into_buffer@I@?$output_processor@DV?$string_output_adapter@D@__crt_stdio_output@@V?$format_validation_base@DV?$string_output_adapter@D@__crt_stdio_output@@@2@@__crt_stdio_output@@AEAAXII_N@Z 000000018005105c     libucrtd:output.obj
 0004:00001068       $pdata$??$type_case_integer_parse_into_buffer@I@?$output_processor@_WV?$string_output_adapter@_W@__crt_stdio_output@@V?$format_validation_base@_WV?$string_output_adapter@_W@__crt_stdio_output@@@2@@__crt_stdio_output@@AEAAXII_N@Z 0000000180051068     libucrtd:output.obj
 0004:00001074       $pdata$??$type_case_integer_parse_into_buffer@_K@?$output_processor@DV?$string_output_adapter@D@__crt_stdio_output@@V?$format_validation_base@DV?$string_output_adapter@D@__crt_stdio_output@@@2@@__crt_stdio_output@@AEAAX_KI_N@Z 0000000180051074     libucrtd:output.obj
 0004:00001080       $pdata$??$type_case_integer_parse_into_buffer@_K@?$output_processor@_WV?$string_output_adapter@_W@__crt_stdio_output@@V?$format_validation_base@_WV?$string_output_adapter@_W@__crt_stdio_output@@@2@@__crt_stdio_output@@AEAAX_KI_N@Z 0000000180051080     libucrtd:output.obj
 0004:0000108c       $pdata$??$write_multiple_characters@V?$string_output_adapter@D@__crt_stdio_output@@D@__crt_stdio_output@@YAXAEBV?$string_output_adapter@D@0@DHQEAH@Z 000000018005108c     libucrtd:output.obj
 0004:00001098       $pdata$??$write_multiple_characters@V?$string_output_adapter@_W@__crt_stdio_output@@D@__crt_stdio_output@@YAXAEBV?$string_output_adapter@_W@0@DHQEAH@Z 0000000180051098     libucrtd:output.obj
 0004:000010a4       $pdata$??0?$common_data@D@__crt_stdio_output@@IEAA@XZ 00000001800510a4     libucrtd:output.obj
 0004:000010b0       $pdata$??0?$common_data@_W@__crt_stdio_output@@IEAA@XZ 00000001800510b0     libucrtd:output.obj
 0004:000010bc       $pdata$??0?$output_adapter_data@DV?$string_output_adapter@D@__crt_stdio_output@@@__crt_stdio_output@@IEAA@AEBV?$string_output_adapter@D@1@_KQEBDQEAU__crt_locale_pointers@@QEAD@Z 00000001800510bc     libucrtd:output.obj
 0004:000010c8       $pdata$??0?$output_adapter_data@_WV?$string_output_adapter@_W@__crt_stdio_output@@@__crt_stdio_output@@IEAA@AEBV?$string_output_adapter@_W@1@_KQEB_WQEAU__crt_locale_pointers@@QEAD@Z 00000001800510c8     libucrtd:output.obj
 0004:000010d4       $pdata$??0?$output_processor@DV?$string_output_adapter@D@__crt_stdio_output@@V?$format_validation_base@DV?$string_output_adapter@D@__crt_stdio_output@@@2@@__crt_stdio_output@@QEAA@AEBV?$string_output_adapter@D@1@_KQEBDQEAU__crt_locale_pointers@@QEAD@Z 00000001800510d4     libucrtd:output.obj
 0004:000010e0       $pdata$??0?$output_processor@_WV?$string_output_adapter@_W@__crt_stdio_output@@V?$format_validation_base@_WV?$string_output_adapter@_W@__crt_stdio_output@@@2@@__crt_stdio_output@@QEAA@AEBV?$string_output_adapter@_W@1@_KQEB_WQEAU__crt_locale_pointers@@QEAD@Z 00000001800510e0     libucrtd:output.obj
 0004:000010ec       $pdata$??0formatting_buffer@__crt_stdio_output@@QEAA@XZ 00000001800510ec     libucrtd:output.obj
 0004:000010f8       $pdata$??1?$common_data@D@__crt_stdio_output@@QEAA@XZ 00000001800510f8     libucrtd:output.obj
 0004:000010f8       $pdata$??1?$common_data@_W@__crt_stdio_output@@QEAA@XZ 00000001800510f8     libucrtd:output.obj
 0004:00001104       $pdata$??1?$format_validation_base@DV?$string_output_adapter@D@__crt_stdio_output@@@__crt_stdio_output@@QEAA@XZ 0000000180051104     libucrtd:output.obj
 0004:00001104       $pdata$??1?$format_validation_base@_WV?$string_output_adapter@_W@__crt_stdio_output@@@__crt_stdio_output@@QEAA@XZ 0000000180051104     libucrtd:output.obj
 0004:00001110       $pdata$??1?$output_adapter_data@DV?$string_output_adapter@D@__crt_stdio_output@@@__crt_stdio_output@@QEAA@XZ 0000000180051110     libucrtd:output.obj
 0004:00001110       $pdata$??1?$output_adapter_data@_WV?$string_output_adapter@_W@__crt_stdio_output@@@__crt_stdio_output@@QEAA@XZ 0000000180051110     libucrtd:output.obj
 0004:0000111c       $pdata$??1?$output_processor@_WV?$string_output_adapter@_W@__crt_stdio_output@@V?$format_validation_base@_WV?$string_output_adapter@_W@__crt_stdio_output@@@2@@__crt_stdio_output@@QEAA@XZ 000000018005111c     libucrtd:output.obj
 0004:0000111c       $pdata$??1?$output_processor@DV?$string_output_adapter@D@__crt_stdio_output@@V?$format_validation_base@DV?$string_output_adapter@D@__crt_stdio_output@@@2@@__crt_stdio_output@@QEAA@XZ 000000018005111c     libucrtd:output.obj
 0004:00001128       $pdata$??1?$standard_base@_WV?$string_output_adapter@_W@__crt_stdio_output@@@__crt_stdio_output@@QEAA@XZ 0000000180051128     libucrtd:output.obj
 0004:00001128       $pdata$??1?$standard_base@DV?$string_output_adapter@D@__crt_stdio_output@@@__crt_stdio_output@@QEAA@XZ 0000000180051128     libucrtd:output.obj
 0004:00001134       $pdata$??1formatting_buffer@__crt_stdio_output@@QEAA@XZ 0000000180051134     libucrtd:output.obj
 0004:00001140       $pdata$??4?$__crt_unique_heap_ptr@DU__crt_internal_free_policy@@@@QEAAAEAV0@$$QEAV0@@Z 0000000180051140     libucrtd:output.obj
 0004:0000114c       $pdata$?adjust_hexit@?$output_processor@DV?$string_output_adapter@D@__crt_stdio_output@@V?$format_validation_base@DV?$string_output_adapter@D@__crt_stdio_output@@@2@@__crt_stdio_output@@CADH_N@Z 000000018005114c     libucrtd:output.obj
 0004:0000114c       $pdata$?adjust_hexit@?$output_processor@_WV?$string_output_adapter@_W@__crt_stdio_output@@V?$format_validation_base@_WV?$string_output_adapter@_W@__crt_stdio_output@@@2@@__crt_stdio_output@@CADH_N@Z 000000018005114c     libucrtd:output.obj
 0004:00001158       $pdata$?advance_to_next_pass@?$standard_base@_WV?$string_output_adapter@_W@__crt_stdio_output@@@__crt_stdio_output@@IEAA_NXZ 0000000180051158     libucrtd:output.obj
 0004:00001158       $pdata$?advance_to_next_pass@?$standard_base@DV?$string_output_adapter@D@__crt_stdio_output@@@__crt_stdio_output@@IEAA_NXZ 0000000180051158     libucrtd:output.obj
 0004:00001164       $pdata$?crop_zeroes@__crt_stdio_output@@YAXPEADQEAU__crt_locale_pointers@@@Z 0000000180051164     libucrtd:output.obj
 0004:00001170       $pdata$?find_next_state@?$output_processor@DV?$string_output_adapter@D@__crt_stdio_output@@V?$format_validation_base@DV?$string_output_adapter@D@__crt_stdio_output@@@2@@__crt_stdio_output@@AEBA?AW4state@2@DW432@@Z 0000000180051170     libucrtd:output.obj
 0004:0000117c       $pdata$?find_next_state@?$output_processor@_WV?$string_output_adapter@_W@__crt_stdio_output@@V?$format_validation_base@_WV?$string_output_adapter@_W@__crt_stdio_output@@@2@@__crt_stdio_output@@AEBA?AW4state@2@_WW432@@Z 000000018005117c     libucrtd:output.obj
 0004:00001188       $pdata$?force_decimal_point@__crt_stdio_output@@YAXPEADQEAU__crt_locale_pointers@@@Z 0000000180051188     libucrtd:output.obj
 0004:00001194       $pdata$?get_flags@__crt_stdio_stream@@QEBAJXZ 0000000180051194     libucrtd:output.obj
 0004:000011a0       $pdata$?has_flag@?$output_processor@DV?$string_output_adapter@D@__crt_stdio_output@@V?$format_validation_base@DV?$string_output_adapter@D@__crt_stdio_output@@@2@@__crt_stdio_output@@AEBA_NI@Z 00000001800511a0     libucrtd:output.obj
 0004:000011a0       $pdata$?has_flag@?$output_processor@_WV?$string_output_adapter@_W@__crt_stdio_output@@V?$format_validation_base@_WV?$string_output_adapter@_W@__crt_stdio_output@@@2@@__crt_stdio_output@@AEBA_NI@Z 00000001800511a0     libucrtd:output.obj
 0004:000011ac       $pdata$?is_string_backed@__crt_stdio_stream@@QEBA_NXZ 00000001800511ac     libucrtd:output.obj
 0004:000011b8       $pdata$?parse_int_from_format_string@?$output_processor@DV?$string_output_adapter@D@__crt_stdio_output@@V?$format_validation_base@DV?$string_output_adapter@D@__crt_stdio_output@@@2@@__crt_stdio_output@@AEAA_NQEAH@Z 00000001800511b8     libucrtd:output.obj
 0004:000011c4       $pdata$?parse_int_from_format_string@?$output_processor@_WV?$string_output_adapter@_W@__crt_stdio_output@@V?$format_validation_base@_WV?$string_output_adapter@_W@__crt_stdio_output@@@2@@__crt_stdio_output@@AEAA_NQEAH@Z 00000001800511c4     libucrtd:output.obj
 0004:000011d0       $pdata$?process@?$output_processor@DV?$string_output_adapter@D@__crt_stdio_output@@V?$format_validation_base@DV?$string_output_adapter@D@__crt_stdio_output@@@2@@__crt_stdio_output@@QEAAHXZ 00000001800511d0     libucrtd:output.obj
 0004:000011dc       $pdata$?process@?$output_processor@_WV?$string_output_adapter@_W@__crt_stdio_output@@V?$format_validation_base@_WV?$string_output_adapter@_W@__crt_stdio_output@@@2@@__crt_stdio_output@@QEAAHXZ 00000001800511dc     libucrtd:output.obj
 0004:000011e8       $pdata$?state_case_flag@?$output_processor@DV?$string_output_adapter@D@__crt_stdio_output@@V?$format_validation_base@DV?$string_output_adapter@D@__crt_stdio_output@@@2@@__crt_stdio_output@@AEAA_NXZ 00000001800511e8     libucrtd:output.obj
 0004:000011f4       $pdata$?state_case_flag@?$output_processor@_WV?$string_output_adapter@_W@__crt_stdio_output@@V?$format_validation_base@_WV?$string_output_adapter@_W@__crt_stdio_output@@@2@@__crt_stdio_output@@AEAA_NXZ 00000001800511f4     libucrtd:output.obj
 0004:00001200       $pdata$?state_case_normal@?$output_processor@DV?$string_output_adapter@D@__crt_stdio_output@@V?$format_validation_base@DV?$string_output_adapter@D@__crt_stdio_output@@@2@@__crt_stdio_output@@AEAA_NXZ 0000000180051200     libucrtd:output.obj
 0004:0000120c       $pdata$?state_case_normal@?$output_processor@_WV?$string_output_adapter@_W@__crt_stdio_output@@V?$format_validation_base@_WV?$string_output_adapter@_W@__crt_stdio_output@@@2@@__crt_stdio_output@@AEAA_NXZ 000000018005120c     libucrtd:output.obj
 0004:00001218       $pdata$?state_case_normal_common@?$output_processor@DV?$string_output_adapter@D@__crt_stdio_output@@V?$format_validation_base@DV?$string_output_adapter@D@__crt_stdio_output@@@2@@__crt_stdio_output@@AEAA_NXZ 0000000180051218     libucrtd:output.obj
 0004:00001224       $pdata$?state_case_normal_common@?$output_processor@_WV?$string_output_adapter@_W@__crt_stdio_output@@V?$format_validation_base@_WV?$string_output_adapter@_W@__crt_stdio_output@@@2@@__crt_stdio_output@@AEAA_NXZ 0000000180051224     libucrtd:output.obj
 0004:00001230       $pdata$?state_case_normal_tchar@?$output_processor@DV?$string_output_adapter@D@__crt_stdio_output@@V?$format_validation_base@DV?$string_output_adapter@D@__crt_stdio_output@@@2@@__crt_stdio_output@@AEAA_ND@Z 0000000180051230     libucrtd:output.obj
 0004:0000123c       $pdata$?state_case_precision@?$output_processor@DV?$string_output_adapter@D@__crt_stdio_output@@V?$format_validation_base@DV?$string_output_adapter@D@__crt_stdio_output@@@2@@__crt_stdio_output@@AEAA_NXZ 000000018005123c     libucrtd:output.obj
 0004:00001248       $pdata$?state_case_precision@?$output_processor@_WV?$string_output_adapter@_W@__crt_stdio_output@@V?$format_validation_base@_WV?$string_output_adapter@_W@__crt_stdio_output@@@2@@__crt_stdio_output@@AEAA_NXZ 0000000180051248     libucrtd:output.obj
 0004:00001254       $pdata$?state_case_size@?$output_processor@DV?$string_output_adapter@D@__crt_stdio_output@@V?$format_validation_base@DV?$string_output_adapter@D@__crt_stdio_output@@@2@@__crt_stdio_output@@AEAA_NXZ 0000000180051254     libucrtd:output.obj
 0004:00001260       $pdata$?state_case_size@?$output_processor@_WV?$string_output_adapter@_W@__crt_stdio_output@@V?$format_validation_base@_WV?$string_output_adapter@_W@__crt_stdio_output@@@2@@__crt_stdio_output@@AEAA_NXZ 0000000180051260     libucrtd:output.obj
 0004:0000126c       $pdata$?state_case_type@?$output_processor@DV?$string_output_adapter@D@__crt_stdio_output@@V?$format_validation_base@DV?$string_output_adapter@D@__crt_stdio_output@@@2@@__crt_stdio_output@@AEAA_NXZ 000000018005126c     libucrtd:output.obj
 0004:00001278       $pdata$?state_case_type@?$output_processor@_WV?$string_output_adapter@_W@__crt_stdio_output@@V?$format_validation_base@_WV?$string_output_adapter@_W@__crt_stdio_output@@@2@@__crt_stdio_output@@AEAA_NXZ 0000000180051278     libucrtd:output.obj
 0004:00001284       $pdata$?state_case_width@?$output_processor@DV?$string_output_adapter@D@__crt_stdio_output@@V?$format_validation_base@DV?$string_output_adapter@D@__crt_stdio_output@@@2@@__crt_stdio_output@@AEAA_NXZ 0000000180051284     libucrtd:output.obj
 0004:00001290       $pdata$?state_case_width@?$output_processor@_WV?$string_output_adapter@_W@__crt_stdio_output@@V?$format_validation_base@_WV?$string_output_adapter@_W@__crt_stdio_output@@@2@@__crt_stdio_output@@AEAA_NXZ 0000000180051290     libucrtd:output.obj
 0004:0000129c       $pdata$?to_integer_size@__crt_stdio_output@@YA_KW4length_modifier@1@@Z 000000018005129c     libucrtd:output.obj
 0004:000012a8       $pdata$?type_case_X@?$output_processor@DV?$string_output_adapter@D@__crt_stdio_output@@V?$format_validation_base@DV?$string_output_adapter@D@__crt_stdio_output@@@2@@__crt_stdio_output@@AEAA_NXZ 00000001800512a8     libucrtd:output.obj
 0004:000012b4       $pdata$?type_case_X@?$output_processor@_WV?$string_output_adapter@_W@__crt_stdio_output@@V?$format_validation_base@_WV?$string_output_adapter@_W@__crt_stdio_output@@@2@@__crt_stdio_output@@AEAA_NXZ 00000001800512b4     libucrtd:output.obj
 0004:000012c0       $pdata$?type_case_Z@?$output_processor@DV?$string_output_adapter@D@__crt_stdio_output@@V?$format_validation_base@DV?$string_output_adapter@D@__crt_stdio_output@@@2@@__crt_stdio_output@@AEAA_NXZ 00000001800512c0     libucrtd:output.obj
 0004:000012cc       $pdata$?type_case_Z@?$output_processor@_WV?$string_output_adapter@_W@__crt_stdio_output@@V?$format_validation_base@_WV?$string_output_adapter@_W@__crt_stdio_output@@@2@@__crt_stdio_output@@AEAA_NXZ 00000001800512cc     libucrtd:output.obj
 0004:000012d8       $pdata$?type_case_a@?$output_processor@DV?$string_output_adapter@D@__crt_stdio_output@@V?$format_validation_base@DV?$string_output_adapter@D@__crt_stdio_output@@@2@@__crt_stdio_output@@AEAA_NXZ 00000001800512d8     libucrtd:output.obj
 0004:000012e4       $pdata$?type_case_a@?$output_processor@_WV?$string_output_adapter@_W@__crt_stdio_output@@V?$format_validation_base@_WV?$string_output_adapter@_W@__crt_stdio_output@@@2@@__crt_stdio_output@@AEAA_NXZ 00000001800512e4     libucrtd:output.obj
 0004:000012f0       $pdata$?type_case_c@?$output_processor@DV?$string_output_adapter@D@__crt_stdio_output@@V?$format_validation_base@DV?$string_output_adapter@D@__crt_stdio_output@@@2@@__crt_stdio_output@@AEAA_NXZ 00000001800512f0     libucrtd:output.obj
 0004:000012fc       $pdata$?type_case_c@?$output_processor@_WV?$string_output_adapter@_W@__crt_stdio_output@@V?$format_validation_base@_WV?$string_output_adapter@_W@__crt_stdio_output@@@2@@__crt_stdio_output@@AEAA_NXZ 00000001800512fc     libucrtd:output.obj
 0004:00001308       $pdata$?type_case_c_tchar@?$output_processor@DV?$string_output_adapter@D@__crt_stdio_output@@V?$format_validation_base@DV?$string_output_adapter@D@__crt_stdio_output@@@2@@__crt_stdio_output@@AEAA_ND@Z 0000000180051308     libucrtd:output.obj
 0004:00001314       $pdata$?type_case_c_tchar@?$output_processor@_WV?$string_output_adapter@_W@__crt_stdio_output@@V?$format_validation_base@_WV?$string_output_adapter@_W@__crt_stdio_output@@@2@@__crt_stdio_output@@AEAA_N_W@Z 0000000180051314     libucrtd:output.obj
 0004:00001320       $pdata$?type_case_d@?$output_processor@DV?$string_output_adapter@D@__crt_stdio_output@@V?$format_validation_base@DV?$string_output_adapter@D@__crt_stdio_output@@@2@@__crt_stdio_output@@AEAA_NXZ 0000000180051320     libucrtd:output.obj
 0004:0000132c       $pdata$?type_case_d@?$output_processor@_WV?$string_output_adapter@_W@__crt_stdio_output@@V?$format_validation_base@_WV?$string_output_adapter@_W@__crt_stdio_output@@@2@@__crt_stdio_output@@AEAA_NXZ 000000018005132c     libucrtd:output.obj
 0004:00001338       $pdata$?type_case_integer@?$output_processor@DV?$string_output_adapter@D@__crt_stdio_output@@V?$format_validation_base@DV?$string_output_adapter@D@__crt_stdio_output@@@2@@__crt_stdio_output@@AEAA_NI_N@Z 0000000180051338     libucrtd:output.obj
 0004:00001344       $pdata$?type_case_integer@?$output_processor@_WV?$string_output_adapter@_W@__crt_stdio_output@@V?$format_validation_base@_WV?$string_output_adapter@_W@__crt_stdio_output@@@2@@__crt_stdio_output@@AEAA_NI_N@Z 0000000180051344     libucrtd:output.obj
 0004:00001350       $pdata$?type_case_n@?$output_processor@DV?$string_output_adapter@D@__crt_stdio_output@@V?$format_validation_base@DV?$string_output_adapter@D@__crt_stdio_output@@@2@@__crt_stdio_output@@AEAA_NXZ 0000000180051350     libucrtd:output.obj
 0004:0000135c       $pdata$?type_case_n@?$output_processor@_WV?$string_output_adapter@_W@__crt_stdio_output@@V?$format_validation_base@_WV?$string_output_adapter@_W@__crt_stdio_output@@@2@@__crt_stdio_output@@AEAA_NXZ 000000018005135c     libucrtd:output.obj
 0004:00001368       $pdata$?type_case_o@?$output_processor@DV?$string_output_adapter@D@__crt_stdio_output@@V?$format_validation_base@DV?$string_output_adapter@D@__crt_stdio_output@@@2@@__crt_stdio_output@@AEAA_NXZ 0000000180051368     libucrtd:output.obj
 0004:00001374       $pdata$?type_case_o@?$output_processor@_WV?$string_output_adapter@_W@__crt_stdio_output@@V?$format_validation_base@_WV?$string_output_adapter@_W@__crt_stdio_output@@@2@@__crt_stdio_output@@AEAA_NXZ 0000000180051374     libucrtd:output.obj
 0004:00001380       $pdata$?type_case_p@?$output_processor@DV?$string_output_adapter@D@__crt_stdio_output@@V?$format_validation_base@DV?$string_output_adapter@D@__crt_stdio_output@@@2@@__crt_stdio_output@@AEAA_NXZ 0000000180051380     libucrtd:output.obj
 0004:0000138c       $pdata$?type_case_p@?$output_processor@_WV?$string_output_adapter@_W@__crt_stdio_output@@V?$format_validation_base@_WV?$string_output_adapter@_W@__crt_stdio_output@@@2@@__crt_stdio_output@@AEAA_NXZ 000000018005138c     libucrtd:output.obj
 0004:00001398       $pdata$?type_case_s@?$output_processor@DV?$string_output_adapter@D@__crt_stdio_output@@V?$format_validation_base@DV?$string_output_adapter@D@__crt_stdio_output@@@2@@__crt_stdio_output@@AEAA_NXZ 0000000180051398     libucrtd:output.obj
 0004:000013a4       $pdata$?type_case_s@?$output_processor@_WV?$string_output_adapter@_W@__crt_stdio_output@@V?$format_validation_base@_WV?$string_output_adapter@_W@__crt_stdio_output@@@2@@__crt_stdio_output@@AEAA_NXZ 00000001800513a4     libucrtd:output.obj
 0004:000013b0       $pdata$?type_case_s_compute_narrow_string_length@?$output_processor@DV?$string_output_adapter@D@__crt_stdio_output@@V?$format_validation_base@DV?$string_output_adapter@D@__crt_stdio_output@@@2@@__crt_stdio_output@@AEBAHHD@Z 00000001800513b0     libucrtd:output.obj
 0004:000013bc       $pdata$?type_case_s_compute_narrow_string_length@?$output_processor@_WV?$string_output_adapter@_W@__crt_stdio_output@@V?$format_validation_base@_WV?$string_output_adapter@_W@__crt_stdio_output@@@2@@__crt_stdio_output@@AEBAHH_W@Z 00000001800513bc     libucrtd:output.obj
 0004:000013c8       $pdata$?type_case_u@?$output_processor@DV?$string_output_adapter@D@__crt_stdio_output@@V?$format_validation_base@DV?$string_output_adapter@D@__crt_stdio_output@@@2@@__crt_stdio_output@@AEAA_NXZ 00000001800513c8     libucrtd:output.obj
 0004:000013d4       $pdata$?type_case_u@?$output_processor@_WV?$string_output_adapter@_W@__crt_stdio_output@@V?$format_validation_base@_WV?$string_output_adapter@_W@__crt_stdio_output@@@2@@__crt_stdio_output@@AEAA_NXZ 00000001800513d4     libucrtd:output.obj
 0004:000013e0       $pdata$?type_case_x@?$output_processor@DV?$string_output_adapter@D@__crt_stdio_output@@V?$format_validation_base@DV?$string_output_adapter@D@__crt_stdio_output@@@2@@__crt_stdio_output@@AEAA_NXZ 00000001800513e0     libucrtd:output.obj
 0004:000013ec       $pdata$?type_case_x@?$output_processor@_WV?$string_output_adapter@_W@__crt_stdio_output@@V?$format_validation_base@_WV?$string_output_adapter@_W@__crt_stdio_output@@@2@@__crt_stdio_output@@AEAA_NXZ 00000001800513ec     libucrtd:output.obj
 0004:000013f8       $pdata$?update_field_width@?$standard_base@DV?$string_output_adapter@D@__crt_stdio_output@@@__crt_stdio_output@@IEAA_NXZ 00000001800513f8     libucrtd:output.obj
 0004:000013f8       $pdata$?update_field_width@?$standard_base@_WV?$string_output_adapter@_W@__crt_stdio_output@@@__crt_stdio_output@@IEAA_NXZ 00000001800513f8     libucrtd:output.obj
 0004:00001404       $pdata$?update_precision@?$standard_base@_WV?$string_output_adapter@_W@__crt_stdio_output@@@__crt_stdio_output@@IEAA_NXZ 0000000180051404     libucrtd:output.obj
 0004:00001404       $pdata$?update_precision@?$standard_base@DV?$string_output_adapter@D@__crt_stdio_output@@@__crt_stdio_output@@IEAA_NXZ 0000000180051404     libucrtd:output.obj
 0004:00001410       $pdata$?validate@?$string_output_adapter@D@__crt_stdio_output@@QEBA_NXZ 0000000180051410     libucrtd:output.obj
 0004:0000141c       $pdata$?validate@?$string_output_adapter@_W@__crt_stdio_output@@QEBA_NXZ 000000018005141c     libucrtd:output.obj
 0004:00001428       $pdata$?validate_and_update_state_at_end_of_format_string@?$format_validation_base@DV?$string_output_adapter@D@__crt_stdio_output@@@__crt_stdio_output@@IEBA_NXZ 0000000180051428     libucrtd:output.obj
 0004:00001434       $pdata$?validate_and_update_state_at_end_of_format_string@?$format_validation_base@_WV?$string_output_adapter@_W@__crt_stdio_output@@@__crt_stdio_output@@IEBA_NXZ 0000000180051434     libucrtd:output.obj
 0004:00001440       $pdata$?write_stored_string_tchar@?$output_processor@DV?$string_output_adapter@D@__crt_stdio_output@@V?$format_validation_base@DV?$string_output_adapter@D@__crt_stdio_output@@@2@@__crt_stdio_output@@AEAA_ND@Z 0000000180051440     libucrtd:output.obj
 0004:0000144c       $pdata$?write_stored_string_tchar@?$output_processor@_WV?$string_output_adapter@_W@__crt_stdio_output@@V?$format_validation_base@_WV?$string_output_adapter@_W@__crt_stdio_output@@@2@@__crt_stdio_output@@AEAA_N_W@Z 000000018005144c     libucrtd:output.obj
 0004:00001458       $pdata$?write_string@?$string_output_adapter@D@__crt_stdio_output@@QEBAXQEBDHQEAH1@Z 0000000180051458     libucrtd:output.obj
 0004:00001464       $pdata$?write_string@?$string_output_adapter@_W@__crt_stdio_output@@QEBAXQEB_WHQEAH1@Z 0000000180051464     libucrtd:output.obj
 0004:00001470       $pdata$__stdio_common_vsnprintf_s 0000000180051470     libucrtd:output.obj
 0004:0000147c       $pdata$__stdio_common_vsnwprintf_s 000000018005147c     libucrtd:output.obj
 0004:00001488       $pdata$__stdio_common_vsprintf_s 0000000180051488     libucrtd:output.obj
 0004:00001494       $pdata$??$is_overflow_condition@K@__crt_strtox@@YA_NIK@Z 0000000180051494     libucrtd:atox.obj
 0004:000014a0       $pdata$??$parse_integer@KV?$c_string_character_source@D@__crt_strtox@@@__crt_strtox@@YAKQEAU__crt_locale_pointers@@V?$c_string_character_source@D@0@H_N@Z 00000001800514a0     libucrtd:atox.obj
 0004:000014ac       $pdata$??$parse_integer@KV?$c_string_character_source@_W@__crt_strtox@@@__crt_strtox@@YAKQEAU__crt_locale_pointers@@V?$c_string_character_source@_W@0@H_N@Z 00000001800514ac     libucrtd:atox.obj
 0004:000014b8       $pdata$?get@?$c_string_character_source@D@__crt_strtox@@QEAADXZ 00000001800514b8     libucrtd:atox.obj
 0004:000014c4       $pdata$?get@?$c_string_character_source@_W@__crt_strtox@@QEAA_WXZ 00000001800514c4     libucrtd:atox.obj
 0004:000014d0       $pdata$?is_space@__crt_strtox@@YA_NDQEAU__crt_locale_pointers@@@Z 00000001800514d0     libucrtd:atox.obj
 0004:000014dc       $pdata$?is_space@__crt_strtox@@YA_N_WPEAU__crt_locale_pointers@@@Z 00000001800514dc     libucrtd:atox.obj
 0004:000014e8       $pdata$?parse_digit@__crt_strtox@@YAI_W@Z 00000001800514e8     libucrtd:atox.obj
 0004:000014f4       $pdata$?unget@?$c_string_character_source@D@__crt_strtox@@QEAAXD@Z 00000001800514f4     libucrtd:atox.obj
 0004:00001500       $pdata$?unget@?$c_string_character_source@_W@__crt_strtox@@QEAAX_W@Z 0000000180051500     libucrtd:atox.obj
 0004:0000150c       $pdata$?validate@?$c_string_character_source@D@__crt_strtox@@QEBA_NXZ 000000018005150c     libucrtd:atox.obj
 0004:00001518       $pdata$?validate@?$c_string_character_source@_W@__crt_strtox@@QEBA_NXZ 0000000180051518     libucrtd:atox.obj
 0004:00001524       $pdata$_fd_int             0000000180051524     libucrtd:_test.obj
 0004:00001530       $pdata$_call_matherr       0000000180051530     libucrtd:libm_error.obj
 0004:0000153c       $pdata$_exception_enabled  000000018005153c     libucrtd:libm_error.obj
 0004:00001548       $pdata$_handle_error       0000000180051548     libucrtd:libm_error.obj
 0004:00001554       $pdata$_handle_errorf      0000000180051554     libucrtd:libm_error.obj
 0004:00001560       $pdata$_handle_nan         0000000180051560     libucrtd:libm_error.obj
 0004:0000156c       $pdata$_handle_nanf        000000018005156c     libucrtd:libm_error.obj
 0004:00001578       $pdata$??$?RV<lambda_5e887d1dcbef67a5eb4283622ba103bf>@@AEAV<lambda_4466841279450cc726390878d4a41900>@@V<lambda_341c25c0346d94847f1f3c463c57e077>@@@?$__crt_seh_guarded_call@X@@QEAAX$$QEAV<lambda_5e887d1dcbef67a5eb4283622ba103bf>@@AEAV<lambda_4466841279450cc726390878d4a41900>@@$$QEAV<lambda_341c25c0346d94847f1f3c463c57e077>@@@Z 0000000180051578     libucrtd:per_thread_data.obj
 0004:00001584       $pdata$??$?RV<lambda_72d1df2b273a38828b1ce30cbf4cdab5>@@AEAV<lambda_876a65b173b8412d3a47c70a915b0cf4>@@V<lambda_41932305e351933ebe8f8be3ed8bb5dc>@@@?$__crt_seh_guarded_call@X@@QEAAX$$QEAV<lambda_72d1df2b273a38828b1ce30cbf4cdab5>@@AEAV<lambda_876a65b173b8412d3a47c70a915b0cf4>@@$$QEAV<lambda_41932305e351933ebe8f8be3ed8bb5dc>@@@Z 0000000180051584     libucrtd:per_thread_data.obj
 0004:00001590       $pdata$??$?RV<lambda_8773731b9ba2edf4362dda13ebc82854>@@AEAV<lambda_6ac21da2756cd333d25ba1adc9a0001e>@@V<lambda_2c95662d60720604e97e3009a1ee1859>@@@?$__crt_seh_guarded_call@X@@QEAAX$$QEAV<lambda_8773731b9ba2edf4362dda13ebc82854>@@AEAV<lambda_6ac21da2756cd333d25ba1adc9a0001e>@@$$QEAV<lambda_2c95662d60720604e97e3009a1ee1859>@@@Z 0000000180051590     libucrtd:per_thread_data.obj
 0004:0000159c       $pdata$??$?RV<lambda_fb3a7dec4e47f37f22dae91bb15c9095>@@AEAV<lambda_698284760c8add0bfb0756c19673e34b>@@V<lambda_dfb8eca1e75fef3034a8fb18dd509707>@@@?$__crt_seh_guarded_call@X@@QEAAX$$QEAV<lambda_fb3a7dec4e47f37f22dae91bb15c9095>@@AEAV<lambda_698284760c8add0bfb0756c19673e34b>@@$$QEAV<lambda_dfb8eca1e75fef3034a8fb18dd509707>@@@Z 000000018005159c     libucrtd:per_thread_data.obj
 0004:000015a8       $pdata$??$__acrt_lock_and_call@V<lambda_4466841279450cc726390878d4a41900>@@@@YAXW4__acrt_lock_id@@$$QEAV<lambda_4466841279450cc726390878d4a41900>@@@Z 00000001800515a8     libucrtd:per_thread_data.obj
 0004:000015b4       $pdata$??$__acrt_lock_and_call@V<lambda_698284760c8add0bfb0756c19673e34b>@@@@YAXW4__acrt_lock_id@@$$QEAV<lambda_698284760c8add0bfb0756c19673e34b>@@@Z 00000001800515b4     libucrtd:per_thread_data.obj
 0004:000015c0       $pdata$??$__acrt_lock_and_call@V<lambda_6ac21da2756cd333d25ba1adc9a0001e>@@@@YAXW4__acrt_lock_id@@$$QEAV<lambda_6ac21da2756cd333d25ba1adc9a0001e>@@@Z 00000001800515c0     libucrtd:per_thread_data.obj
 0004:000015cc       $pdata$??$__acrt_lock_and_call@V<lambda_876a65b173b8412d3a47c70a915b0cf4>@@@@YAXW4__acrt_lock_id@@$$QEAV<lambda_876a65b173b8412d3a47c70a915b0cf4>@@@Z 00000001800515cc     libucrtd:per_thread_data.obj
 0004:000015d8       $pdata$??0__crt_scoped_get_last_error_reset@@QEAA@XZ 00000001800515d8     libucrtd:per_thread_data.obj
 0004:000015e4       $pdata$??1?$__crt_unique_heap_ptr@U__acrt_ptd@@U__crt_internal_free_policy@@@@QEAA@XZ 00000001800515e4     libucrtd:per_thread_data.obj
 0004:000015e4       $pdata$??1?$__crt_unique_heap_ptr@PEAU__crt_stdio_stream_data@@U__crt_internal_free_policy@@@@QEAA@XZ 00000001800515e4     libucrtd:_file.obj
 0004:000015e4       $pdata$??1?$__crt_unique_heap_ptr@U__crt_multibyte_data@@U__crt_internal_free_policy@@@@QEAA@XZ 00000001800515e4     libucrtd:mbctype.obj
 0004:000015e4       $pdata$??1?$__crt_unique_heap_ptr@U__crt_lowio_handle_data@@U__crt_internal_free_policy@@@@QEAA@XZ 00000001800515e4     libucrtd:osfinfo.obj
 0004:000015e4       $pdata$??1?$__crt_unique_heap_ptr@P6AXXZU__crt_internal_free_policy@@@@QEAA@XZ 00000001800515e4     libucrtd:onexit.obj
 0004:000015f0       $pdata$??1__crt_scoped_get_last_error_reset@@QEAA@XZ 00000001800515f0     libucrtd:per_thread_data.obj
 0004:000015fc       $pdata$??R<lambda_4466841279450cc726390878d4a41900>@@QEBAXXZ 00000001800515fc     libucrtd:per_thread_data.obj
 0004:00001608       $pdata$??R<lambda_698284760c8add0bfb0756c19673e34b>@@QEBAXXZ 0000000180051608     libucrtd:per_thread_data.obj
 0004:00001614       $pdata$??R<lambda_6ac21da2756cd333d25ba1adc9a0001e>@@QEBAXXZ 0000000180051614     libucrtd:per_thread_data.obj
 0004:00001620       $pdata$?construct_ptd@@YAXQEAU__acrt_ptd@@QEAPEAU__crt_locale_data@@@Z 0000000180051620     libucrtd:per_thread_data.obj
 0004:0000162c       $pdata$?construct_ptd_array@@YAXQEAU__acrt_ptd@@@Z 000000018005162c     libucrtd:per_thread_data.obj
 0004:00001638       $pdata$?destroy_fls@@YAXPEAX@Z 0000000180051638     libucrtd:per_thread_data.obj
 0004:00001644       $pdata$?destroy_ptd@@YAXQEAU__acrt_ptd@@@Z 0000000180051644     libucrtd:per_thread_data.obj
 0004:00001650       $pdata$?destroy_ptd_array@@YAXQEAU__acrt_ptd@@@Z 0000000180051650     libucrtd:per_thread_data.obj
 0004:0000165c       $pdata$?get_ptd_head@@YAPEAU__acrt_ptd@@XZ 000000018005165c     libucrtd:per_thread_data.obj
 0004:00001668       $pdata$?internal_getptd_noexit@@YAPEAU__acrt_ptd@@XZ 0000000180051668     libucrtd:per_thread_data.obj
 0004:00001674       $pdata$?release@?$__crt_unique_heap_ptr@PEAU__crt_stdio_stream_data@@U__crt_internal_free_policy@@@@QEAAXXZ 0000000180051674     libucrtd:_file.obj
 0004:00001674       $pdata$?release@?$__crt_unique_heap_ptr@U__crt_lowio_handle_data@@U__crt_internal_free_policy@@@@QEAAXXZ 0000000180051674     libucrtd:osfinfo.obj
 0004:00001674       $pdata$?release@?$__crt_unique_heap_ptr@U__acrt_ptd@@U__crt_internal_free_policy@@@@QEAAXXZ 0000000180051674     libucrtd:per_thread_data.obj
 0004:00001674       $pdata$?release@?$__crt_unique_heap_ptr@P6AXXZU__crt_internal_free_policy@@@@QEAAXXZ 0000000180051674     libucrtd:onexit.obj
 0004:00001674       $pdata$?release@?$__crt_unique_heap_ptr@U__crt_multibyte_data@@U__crt_internal_free_policy@@@@QEAAXXZ 0000000180051674     libucrtd:mbctype.obj
 0004:00001680       $pdata$?replace_current_thread_locale_nolock@@YAXQEAU__acrt_ptd@@QEAU__crt_locale_data@@@Z 0000000180051680     libucrtd:per_thread_data.obj
 0004:0000168c       $pdata$?try_get_ptd_head@@YAPEAU__acrt_ptd@@XZ 000000018005168c     libucrtd:per_thread_data.obj
 0004:00001698       $pdata$?value@?$dual_state_global@P6AH_K@Z@__crt_state_management@@QEAAAEAP6AH_K@ZXZ 0000000180051698     libucrtd:new_handler.obj
 0004:00001698       $pdata$?value@?$dual_state_global@P6AXH@Z@__crt_state_management@@QEAAAEAP6AXH@ZXZ 0000000180051698     libucrtd:signal.obj
 0004:00001698       $pdata$?value@?$dual_state_global@P6AXPEB_W00I_K@Z@__crt_state_management@@QEAAAEAP6AXPEB_W00I_K@ZXZ 0000000180051698     libucrtd:invalid_parameter.obj
 0004:00001698       $pdata$?value@?$dual_state_global@PEAU__crt_locale_data@@@__crt_state_management@@QEAAAEAPEAU__crt_locale_data@@XZ 0000000180051698     libucrtd:per_thread_data.obj
 0004:00001698       $pdata$?value@?$dual_state_global@P6AHPEAU_exception@@@Z@__crt_state_management@@QEAAAEAP6AHPEAU_exception@@@ZXZ 0000000180051698     libucrtd:matherr.obj
 0004:000016a4       $pdata$__acrt_freeptd      00000001800516a4     libucrtd:per_thread_data.obj
 0004:000016b0       $pdata$__acrt_getptd       00000001800516b0     libucrtd:per_thread_data.obj
 0004:000016bc       $pdata$__acrt_getptd_noexit 00000001800516bc     libucrtd:per_thread_data.obj
 0004:000016c8       $pdata$__acrt_initialize_ptd 00000001800516c8     libucrtd:per_thread_data.obj
 0004:000016d4       $pdata$__acrt_uninitialize_ptd 00000001800516d4     libucrtd:per_thread_data.obj
 0004:000016e0       $pdata$__acrt_initialize_locks 00000001800516e0     libucrtd:locks.obj
 0004:000016ec       $pdata$__acrt_lock         00000001800516ec     libucrtd:locks.obj
 0004:000016f8       $pdata$__acrt_uninitialize_locks 00000001800516f8     libucrtd:locks.obj
 0004:00001704       $pdata$__acrt_unlock       0000000180051704     libucrtd:locks.obj
 0004:00001710       $pdata$?try_get_FlsAlloc@@YAP6AKP6AXPEAX@Z@ZXZ 0000000180051710     libucrtd:winapi_thunks.obj
 0004:0000171c       $pdata$?try_get_FlsFree@@YAP6AHK@ZXZ 000000018005171c     libucrtd:winapi_thunks.obj
 0004:00001728       $pdata$?try_get_FlsGetValue@@YAP6APEAXK@ZXZ 0000000180051728     libucrtd:winapi_thunks.obj
 0004:00001734       $pdata$?try_get_FlsSetValue@@YAP6AHKPEAX@ZXZ 0000000180051734     libucrtd:winapi_thunks.obj
 0004:00001740       $pdata$?try_get_GetActiveWindow@@YAP6APEAUHWND__@@XZXZ 0000000180051740     libucrtd:winapi_thunks.obj
 0004:0000174c       $pdata$?try_get_GetCurrentPackageId@@YAP6AJPEAIPEAE@ZXZ 000000018005174c     libucrtd:winapi_thunks.obj
 0004:00001758       $pdata$?try_get_GetLastActivePopup@@YAP6APEAUHWND__@@PEAU1@@ZXZ 0000000180051758     libucrtd:winapi_thunks.obj
 0004:00001764       $pdata$?try_get_GetProcessWindowStation@@YAP6APEAUHWINSTA__@@XZXZ 0000000180051764     libucrtd:winapi_thunks.obj
 0004:00001770       $pdata$?try_get_GetUserObjectInformationW@@YAP6AHPEAXH0KPEAK@ZXZ 0000000180051770     libucrtd:winapi_thunks.obj
 0004:0000177c       $pdata$?try_get_InitializeCriticalSectionEx@@YAP6AHPEAU_RTL_CRITICAL_SECTION@@KK@ZXZ 000000018005177c     libucrtd:winapi_thunks.obj
 0004:00001788       $pdata$?try_get_LCMapStringEx@@YAP6AHPEB_WK0HPEA_WHPEAU_nlsversioninfo@@PEAX_J@ZXZ 0000000180051788     libucrtd:winapi_thunks.obj
 0004:00001794       $pdata$?try_get_LocaleNameToLCID@@YAP6AKPEB_WK@ZXZ 0000000180051794     libucrtd:winapi_thunks.obj
 0004:000017a0       $pdata$?try_get_MessageBoxA@@YAP6AHPEAUHWND__@@PEBD1I@ZXZ 00000001800517a0     libucrtd:winapi_thunks.obj
 0004:000017ac       $pdata$?try_get_MessageBoxW@@YAP6AHPEAUHWND__@@PEB_W1I@ZXZ 00000001800517ac     libucrtd:winapi_thunks.obj
 0004:000017b8       $pdata$?try_get_first_available_module@@YAPEAUHINSTANCE__@@QEBW4module_id@?A0x1dd686d3@@0@Z 00000001800517b8     libucrtd:winapi_thunks.obj
 0004:000017c4       $pdata$?try_get_function@@YAPEAXW4function_id@?A0x1dd686d3@@QEBDQEBW4module_id@2@2@Z 00000001800517c4     libucrtd:winapi_thunks.obj
 0004:000017d0       $pdata$?try_get_module@@YAPEAUHINSTANCE__@@W4module_id@?A0x1dd686d3@@@Z 00000001800517d0     libucrtd:winapi_thunks.obj
 0004:000017dc       $pdata$?try_get_proc_address_from_first_available_module@@YAPEAXQEBDQEBW4module_id@?A0x1dd686d3@@1@Z 00000001800517dc     libucrtd:winapi_thunks.obj
 0004:000017e8       $pdata$__acrt_FlsAlloc     00000001800517e8     libucrtd:winapi_thunks.obj
 0004:000017f4       $pdata$__acrt_FlsFree      00000001800517f4     libucrtd:winapi_thunks.obj
 0004:00001800       $pdata$__acrt_FlsGetValue  0000000180051800     libucrtd:winapi_thunks.obj
 0004:0000180c       $pdata$__acrt_FlsSetValue  000000018005180c     libucrtd:winapi_thunks.obj
 0004:00001818       $pdata$__acrt_InitializeCriticalSectionEx 0000000180051818     libucrtd:winapi_thunks.obj
 0004:00001824       $pdata$__acrt_LCMapStringEx 0000000180051824     libucrtd:winapi_thunks.obj
 0004:00001830       $pdata$__acrt_LocaleNameToLCID 0000000180051830     libucrtd:winapi_thunks.obj
 0004:0000183c       $pdata$__acrt_MessageBoxW  000000018005183c     libucrtd:winapi_thunks.obj
 0004:00001848       $pdata$__acrt_can_show_message_box 0000000180051848     libucrtd:winapi_thunks.obj
 0004:00001854       $pdata$__acrt_get_parent_window 0000000180051854     libucrtd:winapi_thunks.obj
 0004:00001860       $pdata$__acrt_initialize_winapi_thunks 0000000180051860     libucrtd:winapi_thunks.obj
 0004:0000186c       $pdata$__acrt_is_interactive 000000018005186c     libucrtd:winapi_thunks.obj
 0004:00001878       $pdata$__acrt_is_packaged_app 0000000180051878     libucrtd:winapi_thunks.obj
 0004:00001884       $pdata$__acrt_uninitialize_winapi_thunks 0000000180051884     libucrtd:winapi_thunks.obj
 0004:00001890       $pdata$capture_current_context 0000000180051890     LIBCMTD:gs_report.obj
 0004:00001890       $pdata$?capture_current_context@@YAXQEAU_CONTEXT@@@Z 0000000180051890     libucrtd:invalid_parameter.obj
 0004:0000189c       $pdata$__acrt_call_reportfault 000000018005189c     libucrtd:invalid_parameter.obj
 0004:000018a8       $pdata$__acrt_initialize_invalid_parameter_handler 00000001800518a8     libucrtd:invalid_parameter.obj
 0004:000018b4       $pdata$_invalid_parameter  00000001800518b4     libucrtd:invalid_parameter.obj
 0004:000018c0       $pdata$_invalid_parameter_noinfo 00000001800518c0     libucrtd:invalid_parameter.obj
 0004:000018cc       $pdata$_invoke_watson      00000001800518cc     libucrtd:invalid_parameter.obj
 0004:000018d8       $pdata$??$common_tcscpy_s@_W@@YAHQEA_W_KQEB_W@Z 00000001800518d8     libucrtd:wcscpy_s.obj
 0004:000018e4       $pdata$wcscpy_s            00000001800518e4     libucrtd:wcscpy_s.obj
 0004:000018f0       $pdata$??$?RV<lambda_441f2315ac0f593d45428a8fceb6abe6>@@AEAV<lambda_2f900415df1f7f624cdaaefe86d0b1c0>@@V<lambda_1d10a5a8ccb596b49763520e59d5af47>@@@?$__crt_seh_guarded_call@X@@QEAAX$$QEAV<lambda_441f2315ac0f593d45428a8fceb6abe6>@@AEAV<lambda_2f900415df1f7f624cdaaefe86d0b1c0>@@$$QEAV<lambda_1d10a5a8ccb596b49763520e59d5af47>@@@Z 00000001800518f0     libucrtd:mbctype.obj
 0004:000018fc       $pdata$??$__acrt_lock_and_call@V<lambda_2f900415df1f7f624cdaaefe86d0b1c0>@@@@YAXW4__acrt_lock_id@@$$QEAV<lambda_2f900415df1f7f624cdaaefe86d0b1c0>@@@Z 00000001800518fc     libucrtd:mbctype.obj
 0004:00001908       $pdata$??R<lambda_341c25c0346d94847f1f3c463c57e077>@@QEBAXXZ 0000000180051908     libucrtd:per_thread_data.obj
 0004:00001908       $pdata$??R<lambda_dc9d2797ccde5d239b4a0efae8ebd7db>@@QEBAXXZ 0000000180051908     libucrtd:signal.obj
 0004:00001908       $pdata$??R<lambda_dfb8eca1e75fef3034a8fb18dd509707>@@QEBAXXZ 0000000180051908     libucrtd:per_thread_data.obj
 0004:00001908       $pdata$??R<lambda_1d10a5a8ccb596b49763520e59d5af47>@@QEBAXXZ 0000000180051908     libucrtd:mbctype.obj
 0004:00001908       $pdata$??R<lambda_b0b8599c9027f5b14541fbbd6863d1f1>@@QEBAXXZ 0000000180051908     libucrtd:onexit.obj
 0004:00001908       $pdata$??R<lambda_7adb6fc9c0d6a5bd4e2d9c212ec7cdcc>@@QEBAXXZ 0000000180051908     libucrtd:onexit.obj
 0004:00001908       $pdata$??R<lambda_2c95662d60720604e97e3009a1ee1859>@@QEBAXXZ 0000000180051908     libucrtd:per_thread_data.obj
 0004:00001908       $pdata$??R<lambda_41932305e351933ebe8f8be3ed8bb5dc>@@QEBAXXZ 0000000180051908     libucrtd:per_thread_data.obj
 0004:00001914       $pdata$??R<lambda_2f900415df1f7f624cdaaefe86d0b1c0>@@QEBAXXZ 0000000180051914     libucrtd:mbctype.obj
 0004:00001920       $pdata$??R<lambda_72d1df2b273a38828b1ce30cbf4cdab5>@@QEBAXXZ 0000000180051920     libucrtd:per_thread_data.obj
 0004:00001920       $pdata$??R<lambda_d22e02de4d14401f49897516b29a2b7c>@@QEBAXXZ 0000000180051920     libucrtd:onexit.obj
 0004:00001920       $pdata$??R<lambda_441f2315ac0f593d45428a8fceb6abe6>@@QEBAXXZ 0000000180051920     libucrtd:mbctype.obj
 0004:00001920       $pdata$??R<lambda_b0d8f1f77f5878de4f648f281b223c15>@@QEBAXXZ 0000000180051920     libucrtd:onexit.obj
 0004:00001920       $pdata$??R<lambda_5e887d1dcbef67a5eb4283622ba103bf>@@QEBAXXZ 0000000180051920     libucrtd:per_thread_data.obj
 0004:00001920       $pdata$??R<lambda_8773731b9ba2edf4362dda13ebc82854>@@QEBAXXZ 0000000180051920     libucrtd:per_thread_data.obj
 0004:00001920       $pdata$??R<lambda_c36588078e9f5dfd39652860aa6b3aaf>@@QEBAXXZ 0000000180051920     libucrtd:signal.obj
 0004:00001920       $pdata$??R<lambda_fb3a7dec4e47f37f22dae91bb15c9095>@@QEBAXXZ 0000000180051920     libucrtd:per_thread_data.obj
 0004:0000192c       $pdata$?CPtoLocaleName@@YAPEB_WH@Z 000000018005192c     libucrtd:mbctype.obj
 0004:00001938       $pdata$?getSystemCP@@YAHH@Z 0000000180051938     libucrtd:mbctype.obj
 0004:00001944       $pdata$?valid@__crt_stdio_stream@@QEBA_NXZ 0000000180051944     libucrtd:output.obj
 0004:00001944       $pdata$??B?$__crt_scoped_stack_ptr@_W@@QEBA_NXZ 0000000180051944     libucrtd:lcmapstringa.obj
 0004:00001944       $pdata$?is_valid@?$__crt_unique_heap_ptr@U__vcrt_ptd@@U__crt_internal_free_policy@@@@QEBA_NXZ 0000000180051944     libvcruntimed:per_thread_data.obj
 0004:00001944       $pdata$?is_valid@?$__crt_unique_heap_ptr@U__crt_multibyte_data@@U__crt_internal_free_policy@@@@QEBA_NXZ 0000000180051944     libucrtd:mbctype.obj
 0004:00001944       $pdata$?is_valid@?$__crt_unique_heap_ptr@U__acrt_ptd@@U__crt_internal_free_policy@@@@QEBA_NXZ 0000000180051944     libucrtd:per_thread_data.obj
 0004:00001944       $pdata$?is_valid@?$__crt_unique_heap_ptr@U__crt_lowio_handle_data@@U__crt_internal_free_policy@@@@QEBA_NXZ 0000000180051944     libucrtd:osfinfo.obj
 0004:00001944       $pdata$?is_valid@?$__crt_unique_heap_ptr@DU__crt_internal_free_policy@@@@QEBA_NXZ 0000000180051944     libvcruntimed:std_type_info.obj
 0004:00001944       $pdata$?is_valid@?$__crt_unique_heap_ptr@DU__crt_public_free_policy@@@@QEBA_NXZ 0000000180051944     libvcruntimed:std_exception.obj
 0004:00001950       $pdata$?setSBCS@@YAXPEAU__crt_multibyte_data@@@Z 0000000180051950     libucrtd:mbctype.obj
 0004:0000195c       $pdata$?setSBUpLow@@YAXPEAU__crt_multibyte_data@@@Z 000000018005195c     libucrtd:mbctype.obj
 0004:00001968       $pdata$?setmbcp_internal@@YAHH_N@Z 0000000180051968     libucrtd:mbctype.obj
 0004:00001974       $pdata$__acrt_initialize_multibyte 0000000180051974     libucrtd:mbctype.obj
 0004:00001980       $pdata$__acrt_update_thread_multibyte_data 0000000180051980     libucrtd:mbctype.obj
 0004:0000198c       $pdata$_setmbcp_nolock     000000018005198c     libucrtd:mbctype.obj
 0004:00001998       $pdata$__dcrt_get_narrow_environment_from_os 0000000180051998     libucrtd:get_environment_from_os.obj
 0004:000019a4       $pdata$__acrt_initialize_heap 00000001800519a4     libucrtd:heap_handle.obj
 0004:000019b0       $pdata$?get_std_handle_id@@YAKH@Z 00000001800519b0     libucrtd:ioinit.obj
 0004:000019bc       $pdata$?initialize_inherited_file_handles_nolock@@YAXXZ 00000001800519bc     libucrtd:ioinit.obj
 0004:000019c8       $pdata$?initialize_stdio_handles_nolock@@YAXXZ 00000001800519c8     libucrtd:ioinit.obj
 0004:000019d4       $pdata$__acrt_initialize_lowio 00000001800519d4     libucrtd:ioinit.obj
 0004:000019e0       $pdata$__acrt_uninitialize_lowio 00000001800519e0     libucrtd:ioinit.obj
 0004:000019ec       $pdata$__acrt_initialize_command_line 00000001800519ec     libucrtd:argv_data.obj
 0004:000019f8       $pdata$__acrt_execute_initializers 00000001800519f8     libucrtd:shared_initialization.obj
 0004:00001a04       $pdata$__acrt_execute_uninitializers 0000000180051a04     libucrtd:shared_initialization.obj
 0004:00001a10       $pdata$??$__crt_fast_decode_pointer@P6AXH@Z@@YAP6AXH@ZQ6AXH@Z@Z 0000000180051a10     libucrtd:signal.obj
 0004:00001a10       $pdata$??$__crt_fast_decode_pointer@PEAX@@YAPEAXQEAX@Z 0000000180051a10     libvcruntimed:winapi_downlevel.obj
 0004:00001a10       $pdata$??$__crt_fast_decode_pointer@P6AXPEAXK0@Z@@YAP6AXPEAXK0@ZQ6AX0K0@Z@Z 0000000180051a10     libucrtd:exit.obj
 0004:00001a10       $pdata$??$__crt_fast_decode_pointer@P6AXPEB_W00I_K@Z@@YAP6AXPEB_W00I_K@ZQ6AX000I1@Z@Z 0000000180051a10     libucrtd:invalid_parameter.obj
 0004:00001a10       $pdata$??$__crt_fast_decode_pointer@P6AXXZ@@YAP6AXXZQ6AXXZ@Z 0000000180051a10     libvcruntimed:purevirt.obj
 0004:00001a10       $pdata$??$__crt_fast_decode_pointer@P6AHPEAU_exception@@@Z@@YAP6AHPEAU_exception@@@ZQ6AH0@Z@Z 0000000180051a10     libucrtd:matherr.obj
 0004:00001a10       $pdata$??$__crt_fast_decode_pointer@P6AH_K@Z@@YAP6AH_K@ZQ6AH0@Z@Z 0000000180051a10     libucrtd:new_handler.obj
 0004:00001a10       $pdata$??$__crt_fast_decode_pointer@PEAP6AXXZ@@YAPEAP6AXXZQEAP6AXXZ@Z 0000000180051a10     LIBCMTD:utility.obj
 0004:00001a1c       $pdata$__acrt_initialize_new_handler 0000000180051a1c     libucrtd:new_handler.obj
 0004:00001a28       $pdata$_callnewh           0000000180051a28     libucrtd:new_handler.obj
 0004:00001a34       $pdata$_query_new_handler  0000000180051a34     libucrtd:new_handler.obj
 0004:00001a40       $pdata$??$?RV<lambda_c36588078e9f5dfd39652860aa6b3aaf>@@AEAV<lambda_ec61778202f4f5fc7e7711acc23c3bca>@@V<lambda_dc9d2797ccde5d239b4a0efae8ebd7db>@@@?$__crt_seh_guarded_call@P6AXH@Z@@QEAAP6AXH@Z$$QEAV<lambda_c36588078e9f5dfd39652860aa6b3aaf>@@AEAV<lambda_ec61778202f4f5fc7e7711acc23c3bca>@@$$QEAV<lambda_dc9d2797ccde5d239b4a0efae8ebd7db>@@@Z 0000000180051a40     libucrtd:signal.obj
 0004:00001a4c       $pdata$??$__acrt_lock_and_call@V<lambda_ec61778202f4f5fc7e7711acc23c3bca>@@@@YAP6AXH@ZW4__acrt_lock_id@@$$QEAV<lambda_ec61778202f4f5fc7e7711acc23c3bca>@@@Z 0000000180051a4c     libucrtd:signal.obj
 0004:00001a58       $pdata$??R<lambda_ec61778202f4f5fc7e7711acc23c3bca>@@QEBAP6AXH@ZXZ 0000000180051a58     libucrtd:signal.obj
 0004:00001a64       $pdata$?get_global_action_nolock@@YAPEAP6AXH@ZH@Z 0000000180051a64     libucrtd:signal.obj
 0004:00001a70       $pdata$?siglookup@@YAPEAU__crt_signal_action_t@@HQEAU1@@Z 0000000180051a70     libucrtd:signal.obj
 0004:00001a7c       $pdata$__acrt_get_sigabrt_handler 0000000180051a7c     libucrtd:signal.obj
 0004:00001a88       $pdata$__acrt_initialize_signal_handlers 0000000180051a88     libucrtd:signal.obj
 0004:00001a94       $pdata$__fpecode           0000000180051a94     libucrtd:signal.obj
 0004:00001aa0       $pdata$raise               0000000180051aa0     libucrtd:signal.obj
 0004:00001aac       $pdata$?initialize@?$dual_state_global@PEAU__crt_locale_data@@@__crt_state_management@@QEAAXQEAU__crt_locale_data@@@Z 0000000180051aac     libucrtd:initialization.obj
 0004:00001aac       $pdata$?initialize@?$dual_state_global@P6AH_K@Z@__crt_state_management@@QEAAXQ6AH_K@Z@Z 0000000180051aac     libucrtd:new_handler.obj
 0004:00001aac       $pdata$?initialize@?$dual_state_global@P6AXPEB_W00I_K@Z@__crt_state_management@@QEAAXQ6AXPEB_W00I_K@Z@Z 0000000180051aac     libucrtd:invalid_parameter.obj
 0004:00001aac       $pdata$?initialize@?$dual_state_global@P6AHPEAU_exception@@@Z@__crt_state_management@@QEAAXQ6AHPEAU_exception@@@Z@Z 0000000180051aac     libucrtd:matherr.obj
 0004:00001aac       $pdata$?initialize@?$dual_state_global@P6AXH@Z@__crt_state_management@@QEAAXQ6AXH@Z@Z 0000000180051aac     libucrtd:signal.obj
 0004:00001ab8       $pdata$__acrt_has_user_matherr 0000000180051ab8     libucrtd:matherr.obj
 0004:00001ac4       $pdata$__acrt_initialize_user_matherr 0000000180051ac4     libucrtd:matherr.obj
 0004:00001ad0       $pdata$__acrt_invoke_user_matherr 0000000180051ad0     libucrtd:matherr.obj
 0004:00001adc       $pdata$?has_any_of@__crt_stdio_stream@@QEBA_NJ@Z 0000000180051adc     libucrtd:_sftbuf.obj
 0004:00001ae8       $pdata$?set_flags@__crt_stdio_stream@@QEBA_NJ@Z 0000000180051ae8     libucrtd:_sftbuf.obj
 0004:00001af4       $pdata$?unset_flags@__crt_stdio_stream@@QEBA_NJ@Z 0000000180051af4     libucrtd:_sftbuf.obj
 0004:00001b00       $pdata$__acrt_errno_from_os_error 0000000180051b00     libucrtd:errno.obj
 0004:00001b0c       $pdata$__acrt_errno_map_os_error 0000000180051b0c     libucrtd:errno.obj
 0004:00001b18       $pdata$__doserrno          0000000180051b18     libucrtd:errno.obj
 0004:00001b24       $pdata$_errno              0000000180051b24     libucrtd:errno.obj
 0004:00001b30       $pdata$_free_base          0000000180051b30     libucrtd:free_base.obj
 0004:00001b3c       $pdata$_msize              0000000180051b3c     libucrtd:msize.obj
 0004:00001b48       $pdata$_realloc_base       0000000180051b48     libucrtd:realloc_base.obj
 0004:00001b54       $pdata$_chvalidator        0000000180051b54     libucrtd:isctype.obj
 0004:00001b60       $pdata$_chvalidator_l      0000000180051b60     libucrtd:isctype.obj
 0004:00001b6c       $pdata$_isctype_l          0000000180051b6c     libucrtd:isctype.obj
 0004:00001b78       $pdata$?is_lfh_enabled@@YA_NXZ 0000000180051b78     libucrtd:expand.obj
 0004:00001b84       $pdata$_expand_base        0000000180051b84     libucrtd:expand.obj
 0004:00001b90       $pdata$__acrt_update_locale_info 0000000180051b90     libucrtd:locale_update.obj
 0004:00001b9c       $pdata$__acrt_update_multibyte_info 0000000180051b9c     libucrtd:locale_update.obj
 0004:00001ba8       $pdata$?value@?$dual_state_global@J@__crt_state_management@@QEAAAEAJXZ 0000000180051ba8     libucrtd:new_mode.obj
 0004:00001bb4       $pdata$_query_new_mode     0000000180051bb4     libucrtd:new_mode.obj
 0004:00001bc0       $pdata$__acrt_uninitialize_locale 0000000180051bc0     libucrtd:wsetlocale.obj
 0004:00001bcc       $pdata$_VCrtDbgReportA     0000000180051bcc     libucrtd:dbgrptt.obj
 0004:00001bd8       $pdata$_VCrtDbgReportW     0000000180051bd8     libucrtd:dbgrptt.obj
 0004:00001be4       $pdata$_snprintf_s         0000000180051be4     libucrtd:dbgrptt.obj
 0004:00001bf0       $pdata$_vsnprintf_s        0000000180051bf0     libucrtd:dbgrptt.obj
 0004:00001bfc       $pdata$_vsnprintf_s_l      0000000180051bfc     libucrtd:dbgrptt.obj
 0004:00001c08       $pdata$_vsnwprintf_s       0000000180051c08     libucrtd:dbgrptt.obj
 0004:00001c14       $pdata$??$common_show_message_box@_W@@YAHQEB_W0I@Z 0000000180051c14     libucrtd:crtmbox.obj
 0004:00001c20       $pdata$??$message_box@PEAUHWND__@@AEBQEB_WAEBQEB_WAEBI@?$__crt_char_traits@_W@@SAH$$QEAPEAUHWND__@@AEBQEB_W1AEBI@Z 0000000180051c20     libucrtd:crtmbox.obj
 0004:00001c20       $pdata$??$message_box@$$TAEBQEB_WAEBQEB_WK@?$__crt_char_traits@_W@@SAH$$QEA$$TAEBQEB_W1$$QEAK@Z 0000000180051c20     libucrtd:crtmbox.obj
 0004:00001c20       $pdata$??$message_box@$$TAEAPEB_WAEAPEB_WAEAI@?$__crt_char_traits@_W@@SAH$$QEA$$TAEAPEB_W1AEAI@Z 0000000180051c20     libucrtd:crtmbox.obj
 0004:00001c2c       $pdata$??$message_box_wait_thread@_W@@YAKQEAX@Z 0000000180051c2c     libucrtd:crtmbox.obj
 0004:00001c38       $pdata$??$output_debug_string@AEBQEB_W@?$__crt_char_traits@_W@@SAXAEBQEB_W@Z 0000000180051c38     libucrtd:crtmbox.obj
 0004:00001c44       $pdata$??1?$__crt_unique_handle_t@U__crt_handle_traits@@@@QEAA@XZ 0000000180051c44     libucrtd:crtmbox.obj
 0004:00001c50       $pdata$??B?$__crt_unique_handle_t@U__crt_handle_traits@@@@QEBA_NXZ 0000000180051c50     libucrtd:crtmbox.obj
 0004:00001c5c       $pdata$?close@?$__crt_unique_handle_t@U__crt_handle_traits@@@@QEAAXXZ 0000000180051c5c     libucrtd:crtmbox.obj
 0004:00001c68       $pdata$?close@__crt_handle_traits@@SA_NPEAX@Z 0000000180051c68     libucrtd:crtmbox.obj
 0004:00001c74       $pdata$?is_valid@?$__crt_unique_handle_t@U__crt_handle_traits@@@@QEBA_NXZ 0000000180051c74     libucrtd:crtmbox.obj
 0004:00001c80       $pdata$__acrt_show_wide_message_box 0000000180051c80     libucrtd:crtmbox.obj
 0004:00001c8c       $pdata$?issue_debug_notification@@YA_NQEB_W@Z 0000000180051c8c     libucrtd:report_runtime_error.obj
 0004:00001c98       $pdata$?should_write_error_to_console@@YA_NXZ 0000000180051c98     libucrtd:report_runtime_error.obj
 0004:00001ca4       $pdata$?write_string_to_console@@YAXQEB_W@Z 0000000180051ca4     libucrtd:report_runtime_error.obj
 0004:00001cb0       $pdata$__acrt_report_runtime_error 0000000180051cb0     libucrtd:report_runtime_error.obj
 0004:00001cbc       $pdata$?fast_check@@YAHHH@Z 0000000180051cbc     libucrtd:_ctype.obj
 0004:00001cc8       $pdata$_isdigit_l          0000000180051cc8     libucrtd:_ctype.obj
 0004:00001cd4       $pdata$isdigit             0000000180051cd4     libucrtd:_ctype.obj
 0004:00001ce0       $pdata$??$common_tox_l@$1?internal_isupper_l@@YA_NHQEAU__crt_locale_pointers@@@Z$1?internal_map_lower@@YAHH0@Z@@YAHHKQEAU__crt_locale_pointers@@@Z 0000000180051ce0     libucrtd:tolower_toupper.obj
 0004:00001cec       $pdata$?internal_isupper_l@@YA_NHQEAU__crt_locale_pointers@@@Z 0000000180051cec     libucrtd:tolower_toupper.obj
 0004:00001cf8       $pdata$_tolower_l          0000000180051cf8     libucrtd:tolower_toupper.obj
 0004:00001d04       $pdata$tolower             0000000180051d04     libucrtd:tolower_toupper.obj
 0004:00001d10       $pdata$??$make_c_string_character_source@DPEAPEAD@__crt_strtox@@YA?AV?$c_string_character_source@D@0@QEBDQEAPEAD@Z 0000000180051d10     libucrtd:strtox.obj
 0004:00001d10       $pdata$??$make_c_string_character_source@_WPEAPEA_W@__crt_strtox@@YA?AV?$c_string_character_source@_W@0@QEB_WQEAPEA_W@Z 0000000180051d10     libucrtd:strtox.obj
 0004:00001d1c       $pdata$??$parse_integer_from_string@JDPEAPEAD@__crt_strtox@@YAJQEBDQEAPEADHQEAU__crt_locale_pointers@@@Z 0000000180051d1c     libucrtd:strtox.obj
 0004:00001d28       $pdata$??$parse_integer_from_string@J_WPEAPEA_W@__crt_strtox@@YAJQEB_WQEAPEA_WHQEAU__crt_locale_pointers@@@Z 0000000180051d28     libucrtd:strtox.obj
 0004:00001d34       $pdata$strtol              0000000180051d34     libucrtd:strtox.obj
 0004:00001d40       $pdata$wcstol              0000000180051d40     libucrtd:strtox.obj
 0004:00001d4c       $pdata$_mbtowc_l           0000000180051d4c     libucrtd:mbtowc.obj
 0004:00001d58       $pdata$mbtowc              0000000180051d58     libucrtd:mbtowc.obj
 0004:00001d64       $pdata$_wctomb_s_l         0000000180051d64     libucrtd:wctomb.obj
 0004:00001d70       $pdata$wctomb_s            0000000180051d70     libucrtd:wctomb.obj
 0004:00001d7c       $pdata$??$common_strnlen@E@@YA_KQEBE_K@Z 0000000180051d7c     libucrtd:strnlen.obj
 0004:00001d88       $pdata$??$common_strnlen@G@@YA_KQEBG_K@Z 0000000180051d88     libucrtd:strnlen.obj
 0004:00001d94       $pdata$??$common_strnlen_c@E@@YA_KQEBE_K@Z 0000000180051d94     libucrtd:strnlen.obj
 0004:00001da0       $pdata$??$common_strnlen_c@G@@YA_KQEBG_K@Z 0000000180051da0     libucrtd:strnlen.obj
 0004:00001dac       $pdata$??$common_strnlen_simd@$00E@@YA_KQEBE_K@Z 0000000180051dac     libucrtd:strnlen.obj
 0004:00001db8       $pdata$??$common_strnlen_simd@$00G@@YA_KQEBG_K@Z 0000000180051db8     libucrtd:strnlen.obj
 0004:00001dc4       $pdata$??$common_strnlen_simd@$0A@E@@YA_KQEBE_K@Z 0000000180051dc4     libucrtd:strnlen.obj
 0004:00001dd0       $pdata$??$common_strnlen_simd@$0A@G@@YA_KQEBG_K@Z 0000000180051dd0     libucrtd:strnlen.obj
 0004:00001ddc       $pdata$?compare_equals@?$__crt_simd_traits@$00E@@SA?AT__m256i@@T2@0@Z 0000000180051ddc     libucrtd:strnlen.obj
 0004:00001de8       $pdata$?compare_equals@?$__crt_simd_traits@$00G@@SA?AT__m256i@@T2@0@Z 0000000180051de8     libucrtd:strnlen.obj
 0004:00001df4       $pdata$?compare_equals@?$__crt_simd_traits@$0A@E@@SA?AT__m128i@@T2@0@Z 0000000180051df4     libucrtd:strnlen.obj
 0004:00001e00       $pdata$?compare_equals@?$__crt_simd_traits@$0A@G@@SA?AT__m128i@@T2@0@Z 0000000180051e00     libucrtd:strnlen.obj
 0004:00001e0c       $pdata$?get_zero_pack@?$__crt_simd_pack_traits@$00@@SA?AT__m256i@@XZ 0000000180051e0c     libucrtd:strnlen.obj
 0004:00001e18       $pdata$?get_zero_pack@?$__crt_simd_pack_traits@$0A@@@SA?AT__m128i@@XZ 0000000180051e18     libucrtd:strnlen.obj
 0004:00001e24       $pdata$strnlen             0000000180051e24     libucrtd:strnlen.obj
 0004:00001e30       $pdata$wcsnlen             0000000180051e30     libucrtd:strnlen.obj
 0004:00001e3c       $pdata$?__acrt_fp_classify@@YA?AW4__acrt_fp_class@@AEBN@Z 0000000180051e3c     libucrtd:cvt.obj
 0004:00001e48       $pdata$?__acrt_fp_is_negative@@YA_NAEBN@Z 0000000180051e48     libucrtd:cvt.obj
 0004:00001e54       $pdata$?fp_format_a@@YAHQEBNPEAD_KQEAD2H_NIQEAU__crt_locale_pointers@@@Z 0000000180051e54     libucrtd:cvt.obj
 0004:00001e60       $pdata$?fp_format_e@@YAHQEBNQEAD_K12H_NIQEAU__crt_locale_pointers@@@Z 0000000180051e60     libucrtd:cvt.obj
 0004:00001e6c       $pdata$?fp_format_e_internal@@YAHQEAD_KH_NIQEAU_strflt@@2QEAU__crt_locale_pointers@@@Z 0000000180051e6c     libucrtd:cvt.obj
 0004:00001e78       $pdata$?fp_format_f@@YAHQEBNQEAD_K12HQEAU__crt_locale_pointers@@@Z 0000000180051e78     libucrtd:cvt.obj
 0004:00001e84       $pdata$?fp_format_f_internal@@YAHQEAD_KHQEAU_strflt@@_NQEAU__crt_locale_pointers@@@Z 0000000180051e84     libucrtd:cvt.obj
 0004:00001e90       $pdata$?fp_format_g@@YAHQEBNQEAD_K12H_NIQEAU__crt_locale_pointers@@@Z 0000000180051e90     libucrtd:cvt.obj
 0004:00001e9c       $pdata$?fp_format_nan_or_infinity@@YAHW4__acrt_fp_class@@_NPEAD_K1@Z 0000000180051e9c     libucrtd:cvt.obj
 0004:00001ea8       $pdata$?shift_bytes@@YAXQEAD_K0H@Z 0000000180051ea8     libucrtd:cvt.obj
 0004:00001eb4       $pdata$?strrchr@@YAPEADQEADH@Z 0000000180051eb4     libucrtd:cvt.obj
 0004:00001ec0       $pdata$__acrt_fp_format    0000000180051ec0     libucrtd:cvt.obj
 0004:00001ecc       $pdata$?lowio_handle@__crt_stdio_stream@@QEBAHXZ 0000000180051ecc     libucrtd:fileno.obj
 0004:00001ed8       $pdata$_fileno             0000000180051ed8     libucrtd:fileno.obj
 0004:00001ee4       $pdata$__acrt_initialize_stdio 0000000180051ee4     libucrtd:_file.obj
 0004:00001ef0       $pdata$__acrt_uninitialize_stdio 0000000180051ef0     libucrtd:_file.obj
 0004:00001efc       $pdata$_lock_file          0000000180051efc     libucrtd:_file.obj
 0004:00001f08       $pdata$_unlock_file        0000000180051f08     libucrtd:_file.obj
 0004:00001f14       $pdata$_get_printf_count_output 0000000180051f14     libucrtd:printf_count_output.obj
 0004:00001f20       $pdata$iswctype            0000000180051f20     libucrtd:iswctype.obj
 0004:00001f2c       $pdata$__get_machine_status 0000000180051f2c     libucrtd:_fenvutils.obj
 0004:00001f38       $pdata$_getfpcontrolword   0000000180051f38     libucrtd:_fenvutils.obj
 0004:00001f44       $pdata$_getfpstatusword    0000000180051f44     libucrtd:_fenvutils.obj
 0004:00001f50       $pdata$_setfpcontrolword   0000000180051f50     libucrtd:_fenvutils.obj
 0004:00001f5c       $pdata$_setfpstatusword    0000000180051f5c     libucrtd:_fenvutils.obj
 0004:00001f68       $pdata$_raise_exc          0000000180051f68     libucrtd:fpexcept.obj
 0004:00001f74       $pdata$_raise_exc_ex       0000000180051f74     libucrtd:fpexcept.obj
 0004:00001f80       $pdata$_raise_excf         0000000180051f80     libucrtd:fpexcept.obj
 0004:00001f8c       $pdata$_set_errno_from_matherr 0000000180051f8c     libucrtd:fpexcept.obj
 0004:00001f98       $pdata$_clrfp              0000000180051f98     libucrtd:fpctrl.obj
 0004:00001fa4       $pdata$_ctrlfp             0000000180051fa4     libucrtd:fpctrl.obj
 0004:00001fb0       $pdata$_set_statfp         0000000180051fb0     libucrtd:fpctrl.obj
 0004:00001fbc       $pdata$_statfp             0000000180051fbc     libucrtd:fpctrl.obj
 0004:00001fc8       $pdata$__acrt_add_locale_ref 0000000180051fc8     libucrtd:locale_refcounting.obj
 0004:00001fd4       $pdata$__acrt_free_locale  0000000180051fd4     libucrtd:locale_refcounting.obj
 0004:00001fe0       $pdata$__acrt_locale_free_lc_time_if_unreferenced 0000000180051fe0     libucrtd:locale_refcounting.obj
 0004:00001fec       $pdata$__acrt_release_locale_ref 0000000180051fec     libucrtd:locale_refcounting.obj
 0004:00001ff8       $pdata$__acrt_update_thread_locale_data 0000000180051ff8     libucrtd:locale_refcounting.obj
 0004:00002004       $pdata$_updatetlocinfoEx_nolock 0000000180052004     libucrtd:locale_refcounting.obj
 0004:00002010       $pdata$?GetTableIndexFromLocaleName@@YAHPEB_W@Z 0000000180052010     libucrtd:lcidtoname_downlevel.obj
 0004:0000201c       $pdata$?__wcsnicmp_ascii@@YAHPEB_W0_K@Z 000000018005201c     libucrtd:lcidtoname_downlevel.obj
 0004:00002028       $pdata$__acrt_DownlevelLocaleNameToLCID 0000000180052028     libucrtd:lcidtoname_downlevel.obj
 0004:00002034       $pdata$?initialize_multibyte@@YAHXZ 0000000180052034     libucrtd:multibyte_initializer.obj
 0004:00002040       $pdata$??1?$__crt_scoped_stack_ptr@_W@@QEAA@XZ 0000000180052040     libucrtd:getstringtypea.obj
 0004:0000204c       $pdata$_MallocaComputeSize 000000018005204c     libucrtd:getstringtypea.obj
 0004:00002058       $pdata$__acrt_GetStringTypeA 0000000180052058     libucrtd:getstringtypea.obj
 0004:00002064       $pdata$_freea_crt          0000000180052064     libucrtd:getstringtypea.obj
 0004:00002070       $pdata$?__acrt_LCMapStringA_stat@@YAHPEAU__crt_locale_pointers@@PEB_WKPEBDHPEADHHH@Z 0000000180052070     libucrtd:lcmapstringa.obj
 0004:0000207c       $pdata$__acrt_LCMapStringA 000000018005207c     libucrtd:lcmapstringa.obj
 0004:00002088       $pdata$??B?$__crt_unique_heap_ptr@DU__crt_internal_free_policy@@@@QEBA_NXZ 0000000180052088     libvcruntimed:std_type_info.obj
 0004:00002088       $pdata$??B?$__crt_unique_heap_ptr@DU__crt_public_free_policy@@@@QEBA_NXZ 0000000180052088     libvcruntimed:std_exception.obj
 0004:00002088       $pdata$??B?$__crt_unique_heap_ptr@U__acrt_ptd@@U__crt_internal_free_policy@@@@QEBA_NXZ 0000000180052088     libucrtd:per_thread_data.obj
 0004:00002088       $pdata$??B?$__crt_unique_heap_ptr@U__crt_lowio_handle_data@@U__crt_internal_free_policy@@@@QEBA_NXZ 0000000180052088     libucrtd:osfinfo.obj
 0004:00002088       $pdata$??B?$__crt_unique_heap_ptr@U__crt_multibyte_data@@U__crt_internal_free_policy@@@@QEBA_NXZ 0000000180052088     libucrtd:mbctype.obj
 0004:00002088       $pdata$??B?$__crt_unique_heap_ptr@U__vcrt_ptd@@U__crt_internal_free_policy@@@@QEBA_NXZ 0000000180052088     libvcruntimed:per_thread_data.obj
 0004:00002094       $pdata$__acrt_lowio_create_handle_array 0000000180052094     libucrtd:osfinfo.obj
 0004:000020a0       $pdata$__acrt_lowio_destroy_handle_array 00000001800520a0     libucrtd:osfinfo.obj
 0004:000020ac       $pdata$__acrt_lowio_ensure_fh_exists 00000001800520ac     libucrtd:osfinfo.obj
 0004:000020b8       $pdata$__acrt_lowio_lock_fh 00000001800520b8     libucrtd:osfinfo.obj
 0004:000020c4       $pdata$__acrt_lowio_unlock_fh 00000001800520c4     libucrtd:osfinfo.obj
 0004:000020d0       $pdata$_free_osfhnd        00000001800520d0     libucrtd:osfinfo.obj
 0004:000020dc       $pdata$_get_osfhandle      00000001800520dc     libucrtd:osfinfo.obj
 0004:000020e8       $pdata$__pctype_func       00000001800520e8     libucrtd:ctype.obj
 0004:000020f4       $pdata$_isatty             00000001800520f4     libucrtd:isatty.obj
 0004:00002100       $pdata$?__acrt_stdio_reset_buffer@@YAXV__crt_stdio_stream@@@Z 0000000180052100     libucrtd:fflush.obj
 0004:0000210c       $pdata$?has_all_of@__crt_stdio_stream@@QEBA_NJ@Z 000000018005210c     libucrtd:fflush.obj
 0004:00002118       $pdata$?has_big_buffer@__crt_stdio_stream@@QEBA_NXZ 0000000180052118     libucrtd:fflush.obj
 0004:00002124       $pdata$?is_in_use@__crt_stdio_stream@@QEBA_NXZ 0000000180052124     libucrtd:fflush.obj
 0004:00002130       $pdata$__acrt_stdio_flush_nolock 0000000180052130     libucrtd:fflush.obj
 0004:0000213c       $pdata$_fflush_nolock      000000018005213c     libucrtd:fflush.obj
 0004:00002148       $pdata$_flushall           0000000180052148     libucrtd:fflush.obj
 0004:00002154       $pdata$common_flush_all    0000000180052154     libucrtd:fflush.obj
 0004:00002160       $pdata$_malloc_base        0000000180052160     libucrtd:malloc_base.obj
 0004:0000216c       $pdata$free                000000018005216c     libucrtd:free.obj
 0004:00002178       $pdata$malloc              0000000180052178     libucrtd:malloc.obj
 0004:00002184       $pdata$_isleadbyte_l       0000000180052184     libucrtd:_wctype.obj
 0004:00002190       $pdata$__acrt_locale_free_monetary 0000000180052190     libucrtd:initmon.obj
 0004:0000219c       $pdata$__acrt_locale_free_numeric 000000018005219c     libucrtd:initnum.obj
 0004:000021a8       $pdata$??$free_crt_array@D$01@@YAXAEAY01PEAD@Z 00000001800521a8     libucrtd:inittime.obj
 0004:000021a8       $pdata$??$free_crt_array@_W$01@@YAXAEAY01PEA_W@Z 00000001800521a8     libucrtd:inittime.obj
 0004:000021b4       $pdata$??$free_crt_array@D$06@@YAXAEAY06PEAD@Z 00000001800521b4     libucrtd:inittime.obj
 0004:000021b4       $pdata$??$free_crt_array@_W$06@@YAXAEAY06PEA_W@Z 00000001800521b4     libucrtd:inittime.obj
 0004:000021c0       $pdata$??$free_crt_array@_W$0M@@@YAXAEAY0M@PEA_W@Z 00000001800521c0     libucrtd:inittime.obj
 0004:000021c0       $pdata$??$free_crt_array@D$0M@@@YAXAEAY0M@PEAD@Z 00000001800521c0     libucrtd:inittime.obj
 0004:000021cc       $pdata$?free_crt_array_internal@@YAXQEAPEBX_K@Z 00000001800521cc     libucrtd:inittime.obj
 0004:000021d8       $pdata$__acrt_locale_free_time 00000001800521d8     libucrtd:inittime.obj
 0004:000021e4       $pdata$??$common_tcscat_s@_W@@YAHQEA_W_KQEB_W@Z 00000001800521e4     libucrtd:wcscat_s.obj
 0004:000021f0       $pdata$wcscat_s            00000001800521f0     libucrtd:wcscat_s.obj
 0004:000021fc       $pdata$??$common_tcsncpy_s@_W@@YAHQEA_W_KQEB_W1@Z 00000001800521fc     libucrtd:wcsncpy_s.obj
 0004:00002208       $pdata$wcsncpy_s           0000000180052208     libucrtd:wcsncpy_s.obj
 0004:00002214       $pdata$??$common_xtox@KD@@YAHKQEAD_KI_N@Z 0000000180052214     libucrtd:xtoa.obj
 0004:00002220       $pdata$??$common_xtox@K_W@@YAHKQEA_W_KI_N@Z 0000000180052220     libucrtd:xtoa.obj
 0004:0000222c       $pdata$??$common_xtox_s@KD@@YAHKQEAD_KI_N@Z 000000018005222c     libucrtd:xtoa.obj
 0004:00002238       $pdata$??$common_xtox_s@K_W@@YAHKQEA_W_KI_N@Z 0000000180052238     libucrtd:xtoa.obj
 0004:00002244       $pdata$_itoa_s             0000000180052244     libucrtd:xtoa.obj
 0004:00002250       $pdata$_itow_s             0000000180052250     libucrtd:xtoa.obj
 0004:0000225c       $pdata$?_mbstowcs_l_helper@@YA_KPEA_WPEBD_KPEAU__crt_locale_pointers@@@Z 000000018005225c     libucrtd:mbstowcs.obj
 0004:00002268       $pdata$_mbstowcs_s_l       0000000180052268     libucrtd:mbstowcs.obj
 0004:00002274       $pdata$mbstowcs_s          0000000180052274     libucrtd:mbstowcs.obj
 0004:00002280       $pdata$?_wcstombs_l_helper@@YA_KPEADPEB_W_KPEAU__crt_locale_pointers@@@Z 0000000180052280     libucrtd:wcstombs.obj
 0004:0000228c       $pdata$?wcsncnt@@YA_KPEB_W_K@Z 000000018005228c     libucrtd:wcstombs.obj
 0004:00002298       $pdata$_wcstombs_s_l       0000000180052298     libucrtd:wcstombs.obj
 0004:000022a4       $pdata$wcstombs_s          00000001800522a4     libucrtd:wcstombs.obj
 0004:000022b0       $pdata$??$common_tcscat_s@D@@YAHQEAD_KQEBD@Z 00000001800522b0     libucrtd:strcat_s.obj
 0004:000022bc       $pdata$strcat_s            00000001800522bc     libucrtd:strcat_s.obj
 0004:000022c8       $pdata$_set_error_mode     00000001800522c8     libucrtd:set_error_mode.obj
 0004:000022d4       $pdata$__acrt_fp_strflt_to_string 00000001800522d4     libucrtd:_fptostr.obj
 0004:000022e0       $pdata$??$convert_to_fos_high_precision@N@@YAXNIQEAHQEAD_K@Z 00000001800522e0     libucrtd:cfout.obj
 0004:000022ec       $pdata$??0big_integer@__crt_strtox@@QEAA@AEBU01@@Z 00000001800522ec     libucrtd:cfout.obj
 0004:000022ec       $pdata$??4big_integer@__crt_strtox@@QEAAAEAU01@AEBU01@@Z 00000001800522ec     libucrtd:cfout.obj
 0004:000022f8       $pdata$??0big_integer@__crt_strtox@@QEAA@XZ 00000001800522f8     libucrtd:cfout.obj
 0004:00002304       $pdata$??0scoped_fp_state_reset@?A0x22020a54@@QEAA@XZ 0000000180052304     libucrtd:cfout.obj
 0004:00002310       $pdata$??1scoped_fp_state_reset@?A0x22020a54@@QEAA@XZ 0000000180052310     libucrtd:cfout.obj
 0004:0000231c       $pdata$??8__crt_strtox@@YA_NAEBUbig_integer@0@0@Z 000000018005231c     libucrtd:cfout.obj
 0004:00002328       $pdata$??9__crt_strtox@@YA_NAEBUbig_integer@0@0@Z 0000000180052328     libucrtd:cfout.obj
 0004:00002334       $pdata$?add_carry@__crt_strtox@@YAIAEAIII@Z 0000000180052334     libucrtd:cfout.obj
 0004:00002340       $pdata$?add_multiply_carry@__crt_strtox@@YAIAEAIIII@Z 0000000180052340     libucrtd:cfout.obj
 0004:0000234c       $pdata$?bit_scan_reverse@__crt_strtox@@YAII@Z 000000018005234c     libucrtd:cfout.obj
 0004:00002358       $pdata$?count_sequential_high_zeroes@__crt_strtox@@YAII@Z 0000000180052358     libucrtd:cfout.obj
 0004:00002364       $pdata$?divide@__crt_strtox@@YA_KAEAUbig_integer@1@AEBU21@@Z 0000000180052364     libucrtd:cfout.obj
 0004:00002370       $pdata$?is_zero@__crt_strtox@@YA_NAEBUbig_integer@1@@Z 0000000180052370     libucrtd:cfout.obj
 0004:0000237c       $pdata$?make_big_integer@__crt_strtox@@YA?AUbig_integer@1@_K@Z 000000018005237c     libucrtd:cfout.obj
 0004:00002388       $pdata$?make_big_integer_power_of_two@__crt_strtox@@YA?AUbig_integer@1@I@Z 0000000180052388     libucrtd:cfout.obj
 0004:00002394       $pdata$?multiply@__crt_strtox@@YA_NAEAUbig_integer@1@AEBU21@@Z 0000000180052394     libucrtd:cfout.obj
 0004:000023a0       $pdata$?multiply@__crt_strtox@@YA_NAEAUbig_integer@1@I@Z 00000001800523a0     libucrtd:cfout.obj
 0004:000023ac       $pdata$?multiply_by_power_of_ten@__crt_strtox@@YA_NAEAUbig_integer@1@I@Z 00000001800523ac     libucrtd:cfout.obj
 0004:000023b8       $pdata$?multiply_core@__crt_strtox@@YAIQEAIII@Z 00000001800523b8     libucrtd:cfout.obj
 0004:000023c4       $pdata$?shift_left@__crt_strtox@@YA_NAEAUbig_integer@1@I@Z 00000001800523c4     libucrtd:cfout.obj
 0004:000023d0       $pdata$__acrt_fltout       00000001800523d0     libucrtd:cfout.obj
 0004:000023dc       $pdata$memcpy_s            00000001800523dc     libucrtd:mbctype.obj
 0004:000023dc       $pdata$memcpy_s            00000001800523dc     libucrtd:cfout.obj
 0004:000023e8       $pdata$_fcloseall          00000001800523e8     libucrtd:closeall.obj
 0004:000023f4       $pdata$?has_crt_buffer@__crt_stdio_stream@@QEBA_NXZ 00000001800523f4     libucrtd:_freebuf.obj
 0004:00002400       $pdata$__acrt_stdio_free_buffer_nolock 0000000180052400     libucrtd:_freebuf.obj
 0004:0000240c       $pdata$_abstract_cw        000000018005240c     libucrtd:ieee.obj
 0004:00002418       $pdata$_abstract_sw        0000000180052418     libucrtd:ieee.obj
 0004:00002424       $pdata$_clearfp            0000000180052424     libucrtd:ieee.obj
 0004:00002430       $pdata$_controlfp          0000000180052430     libucrtd:ieee.obj
 0004:0000243c       $pdata$_hw_cw              000000018005243c     libucrtd:ieee.obj
 0004:00002448       $pdata$_statusfp           0000000180052448     libucrtd:ieee.obj
 0004:00002454       $pdata$common_control87    0000000180052454     libucrtd:ieee.obj
 0004:0000246c       $pdata$__strncnt           000000018005246c     libucrtd:strncnt.obj
 0004:00002478       $pdata$??$?RV<lambda_2ce24b26f23dade10250ef086380d911>@@AEAV<lambda_e9ab68cc08dfd839979545c079379e6e>@@V<lambda_6262c464c96e4c69799ed44814c7c457>@@@?$__crt_seh_guarded_call@H@@QEAAH$$QEAV<lambda_2ce24b26f23dade10250ef086380d911>@@AEAV<lambda_e9ab68cc08dfd839979545c079379e6e>@@$$QEAV<lambda_6262c464c96e4c69799ed44814c7c457>@@@Z 0000000180052478     libucrtd:commit.obj
 0004:00002484       $pdata$??$__acrt_lowio_lock_fh_and_call@V<lambda_e9ab68cc08dfd839979545c079379e6e>@@@@YAHH$$QEAV<lambda_e9ab68cc08dfd839979545c079379e6e>@@@Z 0000000180052484     libucrtd:commit.obj
 0004:00002490       $pdata$??R<lambda_f6ca65dda28655a1cf758c1c4e38e52a>@@QEBAXXZ 0000000180052490     libucrtd:close.obj
 0004:00002490       $pdata$??R<lambda_6262c464c96e4c69799ed44814c7c457>@@QEBAXXZ 0000000180052490     libucrtd:commit.obj
 0004:0000249c       $pdata$??R<lambda_e9ab68cc08dfd839979545c079379e6e>@@QEBAHXZ 000000018005249c     libucrtd:commit.obj
 0004:000024a8       $pdata$_commit             00000001800524a8     libucrtd:commit.obj
 0004:000024b4       $pdata$?write_binary_nolock@@YA?AUwrite_result@?A0x4392dfaa@@HQEBDI@Z 00000001800524b4     libucrtd:write.obj
 0004:000024c0       $pdata$?write_double_translated_ansi_nolock@@YA?AUwrite_result@?A0x4392dfaa@@HQEBDI@Z 00000001800524c0     libucrtd:write.obj
 0004:000024cc       $pdata$?write_double_translated_unicode_nolock@@YA?AUwrite_result@?A0x4392dfaa@@QEBDI@Z 00000001800524cc     libucrtd:write.obj
 0004:000024d8       $pdata$?write_requires_double_translation_nolock@@YA_NH@Z 00000001800524d8     libucrtd:write.obj
 0004:000024e4       $pdata$?write_text_ansi_nolock@@YA?AUwrite_result@?A0x4392dfaa@@HQEBDI@Z 00000001800524e4     libucrtd:write.obj
 0004:000024f0       $pdata$?write_text_utf16le_nolock@@YA?AUwrite_result@?A0x4392dfaa@@HQEBDI@Z 00000001800524f0     libucrtd:write.obj
 0004:000024fc       $pdata$?write_text_utf8_nolock@@YA?AUwrite_result@?A0x4392dfaa@@HQEBDI@Z 00000001800524fc     libucrtd:write.obj
 0004:00002508       $pdata$_write              0000000180052508     libucrtd:write.obj
 0004:00002514       $pdata$_write_nolock       0000000180052514     libucrtd:write.obj
 0004:0000252c       $pdata$ceil                000000018005252c     libucrtd:ceil.obj
 0004:00002538       $pdata$fegetenv            0000000180052538     libucrtd:fegetenv.obj
 0004:00002544       $pdata$fesetenv            0000000180052544     libucrtd:fesetenv.obj
 0004:00002550       $pdata$feholdexcept        0000000180052550     libucrtd:feholdexcept.obj
 0004:0000255c       $pdata$??$common_lseek_nolock@_J@@YA_JH_JH@Z 000000018005255c     libucrtd:lseek.obj
 0004:00002568       $pdata$?common_lseek_do_seek_nolock@@YA_JQEAX_JH@Z 0000000180052568     libucrtd:lseek.obj
 0004:00002574       $pdata$_lseeki64_nolock    0000000180052574     libucrtd:lseek.obj
 0004:00002580       $pdata$_fclose_nolock      0000000180052580     libucrtd:fclose.obj
 0004:0000258c       $pdata$fclose              000000018005258c     libucrtd:fclose.obj
 0004:00002598       $pdata$_putwch_nolock      0000000180052598     libucrtd:putwch.obj
 0004:000025a4       $pdata$__acrt_initialize_fma3 00000001800525a4     libucrtd:fma3_available.obj
 0004:000025b0       $pdata$_log10_special      00000001800525b0     libucrtd:log_special.obj
 0004:000025bc       $pdata$_log_special_common 00000001800525bc     libucrtd:log_special.obj
 0004:000025c8       $pdata$??$?RV<lambda_4f1f1a84956f0d44b74de224c960ff76>@@AEAV<lambda_a8f98972ebaa5f7148d35bffe53bd70d>@@V<lambda_f6ca65dda28655a1cf758c1c4e38e52a>@@@?$__crt_seh_guarded_call@H@@QEAAH$$QEAV<lambda_4f1f1a84956f0d44b74de224c960ff76>@@AEAV<lambda_a8f98972ebaa5f7148d35bffe53bd70d>@@$$QEAV<lambda_f6ca65dda28655a1cf758c1c4e38e52a>@@@Z 00000001800525c8     libucrtd:close.obj
 0004:000025d4       $pdata$??$__acrt_lowio_lock_fh_and_call@V<lambda_a8f98972ebaa5f7148d35bffe53bd70d>@@@@YAHH$$QEAV<lambda_a8f98972ebaa5f7148d35bffe53bd70d>@@@Z 00000001800525d4     libucrtd:close.obj
 0004:000025e0       $pdata$??R<lambda_2ce24b26f23dade10250ef086380d911>@@QEBAXXZ 00000001800525e0     libucrtd:commit.obj
 0004:000025e0       $pdata$??R<lambda_4f1f1a84956f0d44b74de224c960ff76>@@QEBAXXZ 00000001800525e0     libucrtd:close.obj
 0004:000025ec       $pdata$??R<lambda_a8f98972ebaa5f7148d35bffe53bd70d>@@QEBAHXZ 00000001800525ec     libucrtd:close.obj
 0004:000025f8       $pdata$?close_os_handle_nolock@@YAKH@Z 00000001800525f8     libucrtd:close.obj
 0004:00002604       $pdata$_close              0000000180052604     libucrtd:close.obj
 0004:00002610       $pdata$_close_nolock       0000000180052610     libucrtd:close.obj
 0004:0000261c       $pdata$?__acrt_stdio_free_stream@@YAXV__crt_stdio_stream@@@Z 000000018005261c     libucrtd:stream.obj
 0004:00002628       $pdata$__dcrt_lowio_initialize_console_output 0000000180052628     libucrtd:initcon.obj
 0004:00002634       $pdata$__dcrt_terminate_console_output 0000000180052634     libucrtd:initcon.obj
 0004:00002640       $pdata$_FindPESection      0000000180052640     LIBCMTD:pesect.obj
 0004:0000264c       $pdata$_IsNonwritableInCurrentImage 000000018005264c     LIBCMTD:pesect.obj
 0004:00002658       $pdata$_ValidateImageBase  0000000180052658     LIBCMTD:pesect.obj
 0004:00002664       $pdata$??_Gtype_info@@UEAAPEAXI@Z 0000000180052664     LIBCMTD:std_type_info_static.obj
 0004:0000267c       $pdata$__GSHandlerCheck_SEH 000000018005267c     LIBCMTD:_gshandlerseh_.obj
 0004:00002688       $pdata$__GSHandlerCheck_EH 0000000180052688     LIBCMTD:gshandlereh.obj
 0004:00002694       $pdata$??3@YAXPEAX_K@Z     0000000180052694     LIBCMTD:delete_scalar_size.obj
 0004:000026a0       $pdata$??3@YAXPEAX@Z       00000001800526a0     LIBCMTD:delete_scalar.obj
 0004:000026d0       $pdata$strrchr             00000001800526d0     libvcruntimed:strrchr.obj
 0004:000026dc       $pdata$?_CatchTryBlock@@YAPEBU_s_TryBlockMapEntry@@PEBU_s_FuncInfo@@H@Z 00000001800526dc     libvcruntimed:trnsctrl.obj
 0004:000026e8       $pdata$?_GetEstablisherFrame@@YAPEA_KPEA_KPEAU_xDISPATCHER_CONTEXT@@PEBU_s_FuncInfo@@0@Z 00000001800526e8     libvcruntimed:trnsctrl.obj
 0004:000026f4       $pdata$?_GetRangeOfTrysToCheck@@YAPEBU_s_TryBlockMapEntry@@PEA_KPEBU_s_FuncInfo@@HHPEAI2PEAU_xDISPATCHER_CONTEXT@@@Z 00000001800526f4     libvcruntimed:trnsctrl.obj
 0004:00002700       $pdata$?__FrameUnwindToEmptyState@@YAXPEA_KPEAU_xDISPATCHER_CONTEXT@@PEBU_s_FuncInfo@@@Z 0000000180052700     libvcruntimed:trnsctrl.obj
 0004:0000270c       $pdata$?__SehTransFilter@@YAHPEAU_EXCEPTION_POINTERS@@PEAUEHExceptionRecord@@PEA_KPEAU_CONTEXT@@PEAU_xDISPATCHER_CONTEXT@@PEBU_s_FuncInfo@@PEAH@Z 000000018005270c     libvcruntimed:trnsctrl.obj
 0004:00002718       $pdata$_CallSETranslator   0000000180052718     libvcruntimed:trnsctrl.obj
 0004:00002724       $pdata$_CreateFrameInfo    0000000180052724     libvcruntimed:trnsctrl.obj
 0004:00002730       $pdata$_FindAndUnlinkFrame 0000000180052730     libvcruntimed:trnsctrl.obj
 0004:0000273c       $pdata$_GetImageBase       000000018005273c     libvcruntimed:trnsctrl.obj
 0004:00002748       $pdata$_GetThrowImageBase  0000000180052748     libvcruntimed:trnsctrl.obj
 0004:00002754       $pdata$_IsExceptionObjectToBeDestroyed 0000000180052754     libvcruntimed:trnsctrl.obj
 0004:00002760       $pdata$_SetImageBase       0000000180052760     libvcruntimed:trnsctrl.obj
 0004:0000276c       $pdata$_SetThrowImageBase  000000018005276c     libvcruntimed:trnsctrl.obj
 0004:00002778       $pdata$_UnwindNestedFrames 0000000180052778     libvcruntimed:trnsctrl.obj
 0004:00002784       $pdata$__CxxFrameHandler3  0000000180052784     libvcruntimed:trnsctrl.obj
 0004:00002790       $pdata$?__GetCurrentState@@YAHPEA_KPEAU_xDISPATCHER_CONTEXT@@PEBU_s_FuncInfo@@@Z 0000000180052790     libvcruntimed:ehstate.obj
 0004:0000279c       $pdata$?__GetUnwindTryBlock@@YAHPEA_KPEAU_xDISPATCHER_CONTEXT@@PEBU_s_FuncInfo@@@Z 000000018005279c     libvcruntimed:ehstate.obj
 0004:000027a8       $pdata$?__SetUnwindTryBlock@@YAXPEA_KPEAU_xDISPATCHER_CONTEXT@@PEBU_s_FuncInfo@@H@Z 00000001800527a8     libvcruntimed:ehstate.obj
 0004:000027b4       $pdata$?__StateFromControlPc@@YAHPEBU_s_FuncInfo@@PEAU_xDISPATCHER_CONTEXT@@@Z 00000001800527b4     libvcruntimed:ehstate.obj
 0004:000027c0       $pdata$?__StateFromIp@@YAHPEBU_s_FuncInfo@@PEAU_xDISPATCHER_CONTEXT@@_J@Z 00000001800527c0     libvcruntimed:ehstate.obj
 0004:000027cc       $pdata$__DestructExceptionObject 00000001800527cc     libvcruntimed:frame.obj
 0004:000027d8       $pdata$??0bad_exception@std@@QEAA@AEBV01@@Z 00000001800527d8     libvcruntimed:frame.obj
 0004:000027e4       $pdata$??0bad_exception@std@@QEAA@XZ 00000001800527e4     libvcruntimed:frame.obj
 0004:000027f0       $pdata$??0exception@std@@QEAA@AEBV01@@Z 00000001800527f0     libvcruntimed:frame.obj
 0004:000027fc       $pdata$??0exception@std@@QEAA@QEBDH@Z 00000001800527fc     libvcruntimed:frame.obj
 0004:00002808       $pdata$??1bad_exception@std@@UEAA@XZ 0000000180052808     libvcruntimed:frame.obj
 0004:00002814       $pdata$??1exception@std@@UEAA@XZ 0000000180052814     libvcruntimed:frame.obj
 0004:00002820       $pdata$??8type_info@@QEBA_NAEBV0@@Z 0000000180052820     libvcruntimed:frame.obj
 0004:0000282c       $pdata$??_Gbad_exception@std@@UEAAPEAXI@Z 000000018005282c     libvcruntimed:frame.obj
 0004:00002838       $pdata$??_Gexception@std@@UEAAPEAXI@Z 0000000180052838     libvcruntimed:frame.obj
 0004:00002844       $pdata$?CatchIt@@YAXPEAUEHExceptionRecord@@PEA_KPEAU_CONTEXT@@PEAU_xDISPATCHER_CONTEXT@@PEBU_s_FuncInfo@@PEBU_s_HandlerType@@PEBU_s_CatchableType@@PEBU_s_TryBlockMapEntry@@H1EE@Z 0000000180052844     libvcruntimed:frame.obj
 0004:00002850       $pdata$?ExFilterRethrow@@YAHPEAU_EXCEPTION_POINTERS@@PEAUEHExceptionRecord@@PEAH@Z 0000000180052850     libvcruntimed:frame.obj
 0004:0000285c       $pdata$?FindHandler@@YAXPEAUEHExceptionRecord@@PEA_KPEAU_CONTEXT@@PEAU_xDISPATCHER_CONTEXT@@PEBU_s_FuncInfo@@EH1@Z 000000018005285c     libvcruntimed:frame.obj
 0004:00002868       $pdata$?FindHandlerForForeignException@@YAXPEAUEHExceptionRecord@@PEA_KPEAU_CONTEXT@@PEAU_xDISPATCHER_CONTEXT@@PEBU_s_FuncInfo@@HH1@Z 0000000180052868     libvcruntimed:frame.obj
 0004:00002874       $pdata$?IsInExceptionSpec@@YAEPEAUEHExceptionRecord@@PEBU_s_ESTypeList@@@Z 0000000180052874     libvcruntimed:frame.obj
 0004:00002880       $pdata$?Is_bad_exception_allowed@@YAEPEBU_s_ESTypeList@@@Z 0000000180052880     libvcruntimed:frame.obj
 0004:0000288c       $pdata$?_CallMemberFunction0@@YAXPEAXP6AX0@Z@Z 000000018005288c     libvcruntimed:frame.obj
 0004:00002898       $pdata$?_CallMemberFunction1@@YAXPEAXP6AX0@Z0@Z 0000000180052898     libvcruntimed:frame.obj
 0004:000028a4       $pdata$?_CallMemberFunction2@@YAXPEAXP6AX0@Z0H@Z 00000001800528a4     libvcruntimed:frame.obj
 0004:000028b0       $pdata$?__RethrowException@@YAXPEAUEHExceptionRecord@@@Z 00000001800528b0     libvcruntimed:frame.obj
 0004:000028bc       $pdata$?what@exception@std@@UEBAPEBDXZ 00000001800528bc     libvcruntimed:frame.obj
 0004:000028c8       $pdata$__AdjustPointer     00000001800528c8     libvcruntimed:frame.obj
 0004:000028d4       $pdata$__BuildCatchObject  00000001800528d4     libvcruntimed:frame.obj
 0004:000028e0       $pdata$__BuildCatchObjectHelper 00000001800528e0     libvcruntimed:frame.obj
 0004:000028ec       $pdata$__CxxCallCatchBlock 00000001800528ec     libvcruntimed:frame.obj
 0004:000028f8       $pdata$__FrameUnwindFilter 00000001800528f8     libvcruntimed:frame.obj
 0004:00002904       $pdata$__FrameUnwindToState 0000000180052904     libvcruntimed:frame.obj
 0004:00002910       $pdata$__InternalCxxFrameHandler 0000000180052910     libvcruntimed:frame.obj
 0004:0000291c       $pdata$__TypeMatch         000000018005291c     libvcruntimed:frame.obj
 0004:00002934       $pdata$??$?RD@__crt_public_free_policy@@QEBAXQEBD@Z 0000000180052934     libvcruntimed:std_exception.obj
 0004:00002940       $pdata$??1?$__crt_unique_heap_ptr@DU__crt_public_free_policy@@@@QEAA@XZ 0000000180052940     libvcruntimed:std_exception.obj
 0004:0000294c       $pdata$?release@?$__crt_unique_heap_ptr@DU__crt_public_free_policy@@@@QEAAXXZ 000000018005294c     libvcruntimed:std_exception.obj
 0004:00002958       $pdata$__std_exception_copy 0000000180052958     libvcruntimed:std_exception.obj
 0004:00002964       $pdata$__std_exception_destroy 0000000180052964     libvcruntimed:std_exception.obj
 0004:00002970       $pdata$_CxxThrowException  0000000180052970     libvcruntimed:throw.obj
 0004:00002988       $pdata$?fin$0@?0??dllmain_crt_process_attach@@YAHQEAUHINSTANCE__@@QEAX@Z@4HA 0000000180052988     LIBCMTD:dll_dllmain.obj
 0004:00002994       $pdata$?fin$0@?0??dllmain_crt_process_detach@@YAH_N@Z@4HA 0000000180052994     LIBCMTD:dll_dllmain.obj
 0004:000029a0       $pdata$?filt$0@?0??dllmain_dispatch@@YAHQEAUHINSTANCE__@@KQEAX@Z@4HA 00000001800529a0     LIBCMTD:dll_dllmain.obj
 0004:000029ac       $pdata$__scrt_is_nonwritable_in_current_image$filt$0 00000001800529ac     LIBCMTD:utility.obj
 0004:000029b8       $pdata$?filt$0@?0??common_exit@@YAXHW4_crt_exit_cleanup_mode@@W4_crt_exit_return_mode@@@Z@4HA 00000001800529b8     libucrtd:exit.obj
 0004:000029c4       $pdata$?fin$1@?0??common_exit@@YAXHW4_crt_exit_cleanup_mode@@W4_crt_exit_return_mode@@@Z@4HA 00000001800529c4     libucrtd:exit.obj
 0004:000029d0       $pdata$?fin$0@?0???$?RV<lambda_b0d8f1f77f5878de4f648f281b223c15>@@AEAV<lambda_942beefa13ab35ff55f86422493ffd6a>@@V<lambda_7adb6fc9c0d6a5bd4e2d9c212ec7cdcc>@@@?$__crt_seh_guarded_call@H@@QEAAH$$QEAV<lambda_b0d8f1f77f5878de4f648f281b223c15>@@AEAV<lambda_942beefa13ab35ff55f86422493ffd6a>@@$$QEAV<lambda_7adb6fc9c0d6a5bd4e2d9c212ec7cdcc>@@@Z@4HA 00000001800529d0     libucrtd:onexit.obj
 0004:000029d0       $pdata$?fin$0@?0???$?RV<lambda_d22e02de4d14401f49897516b29a2b7c>@@AEAV<lambda_e971338317bfa523bb8920b43d823727>@@V<lambda_b0b8599c9027f5b14541fbbd6863d1f1>@@@?$__crt_seh_guarded_call@H@@QEAAH$$QEAV<lambda_d22e02de4d14401f49897516b29a2b7c>@@AEAV<lambda_e971338317bfa523bb8920b43d823727>@@$$QEAV<lambda_b0b8599c9027f5b14541fbbd6863d1f1>@@@Z@4HA 00000001800529d0     libucrtd:onexit.obj
 0004:000029d0       $pdata$?fin$0@?0???$?RV<lambda_c36588078e9f5dfd39652860aa6b3aaf>@@AEAV<lambda_ec61778202f4f5fc7e7711acc23c3bca>@@V<lambda_dc9d2797ccde5d239b4a0efae8ebd7db>@@@?$__crt_seh_guarded_call@P6AXH@Z@@QEAAP6AXH@Z$$QEAV<lambda_c36588078e9f5dfd39652860aa6b3aaf>@@AEAV<lambda_ec61778202f4f5fc7e7711acc23c3bca>@@$$QEAV<lambda_dc9d2797ccde5d239b4a0efae8ebd7db>@@@Z@4HA 00000001800529d0     libucrtd:signal.obj
 0004:000029dc       $pdata$?fin$0@?0??heap_alloc_dbg_internal@@YAPEAX_KHQEBDH@Z@4HA 00000001800529dc     libucrtd:debug_heap.obj
 0004:000029dc       $pdata$_CrtMemCheckpoint$fin$0 00000001800529dc     libucrtd:debug_heap.obj
 0004:000029e8       $pdata$?filt$0@?0??is_bad_read_pointer@@YA_NQEBX_K@Z@4HA 00000001800529e8     libucrtd:debug_heap.obj
 0004:000029e8       $pdata$__BuildCatchObjectHelper$filt$0 00000001800529e8     libvcruntimed:frame.obj
 0004:000029e8       $pdata$__BuildCatchObject$filt$0 00000001800529e8     libvcruntimed:frame.obj
 0004:000029e8       $pdata$terminate$filt$0    00000001800529e8     libucrtd:terminate.obj
 0004:000029f4       $pdata$?fin$0@?0??validate_heap_if_required_nolock@@YAXXZ@4HA 00000001800529f4     libucrtd:debug_heap.obj
 0004:00002a00       $pdata$_msize_dbg$fin$0    0000000180052a00     libucrtd:debug_heap.obj
 0004:00002a00       $pdata$_realloc_dbg$fin$0  0000000180052a00     libucrtd:debug_heap.obj
 0004:00002a00       $pdata$_CrtCheckMemory$fin$0 0000000180052a00     libucrtd:debug_heap.obj
 0004:00002a00       $pdata$_CrtSetDbgFlag$fin$0 0000000180052a00     libucrtd:debug_heap.obj
 0004:00002a00       $pdata$_CrtMemDumpAllObjectsSince$fin$0 0000000180052a00     libucrtd:debug_heap.obj
 0004:00002a0c       $pdata$_query_new_handler$fin$0 0000000180052a0c     libucrtd:new_handler.obj
 0004:00002a0c       $pdata$_free_dbg$fin$0     0000000180052a0c     libucrtd:debug_heap.obj
 0004:00002a18       $pdata$?fin$0@?0???$?RV<lambda_441f2315ac0f593d45428a8fceb6abe6>@@AEAV<lambda_2f900415df1f7f624cdaaefe86d0b1c0>@@V<lambda_1d10a5a8ccb596b49763520e59d5af47>@@@?$__crt_seh_guarded_call@X@@QEAAX$$QEAV<lambda_441f2315ac0f593d45428a8fceb6abe6>@@AEAV<lambda_2f900415df1f7f624cdaaefe86d0b1c0>@@$$QEAV<lambda_1d10a5a8ccb596b49763520e59d5af47>@@@Z@4HA 0000000180052a18     libucrtd:mbctype.obj
 0004:00002a18       $pdata$?fin$0@?0???$?RV<lambda_fb3a7dec4e47f37f22dae91bb15c9095>@@AEAV<lambda_698284760c8add0bfb0756c19673e34b>@@V<lambda_dfb8eca1e75fef3034a8fb18dd509707>@@@?$__crt_seh_guarded_call@X@@QEAAX$$QEAV<lambda_fb3a7dec4e47f37f22dae91bb15c9095>@@AEAV<lambda_698284760c8add0bfb0756c19673e34b>@@$$QEAV<lambda_dfb8eca1e75fef3034a8fb18dd509707>@@@Z@4HA 0000000180052a18     libucrtd:per_thread_data.obj
 0004:00002a18       $pdata$?fin$0@?0???$?RV<lambda_5e887d1dcbef67a5eb4283622ba103bf>@@AEAV<lambda_4466841279450cc726390878d4a41900>@@V<lambda_341c25c0346d94847f1f3c463c57e077>@@@?$__crt_seh_guarded_call@X@@QEAAX$$QEAV<lambda_5e887d1dcbef67a5eb4283622ba103bf>@@AEAV<lambda_4466841279450cc726390878d4a41900>@@$$QEAV<lambda_341c25c0346d94847f1f3c463c57e077>@@@Z@4HA 0000000180052a18     libucrtd:per_thread_data.obj
 0004:00002a18       $pdata$?fin$0@?0???$?RV<lambda_72d1df2b273a38828b1ce30cbf4cdab5>@@AEAV<lambda_876a65b173b8412d3a47c70a915b0cf4>@@V<lambda_41932305e351933ebe8f8be3ed8bb5dc>@@@?$__crt_seh_guarded_call@X@@QEAAX$$QEAV<lambda_72d1df2b273a38828b1ce30cbf4cdab5>@@AEAV<lambda_876a65b173b8412d3a47c70a915b0cf4>@@$$QEAV<lambda_41932305e351933ebe8f8be3ed8bb5dc>@@@Z@4HA 0000000180052a18     libucrtd:per_thread_data.obj
 0004:00002a18       $pdata$?fin$0@?0???$?RV<lambda_8773731b9ba2edf4362dda13ebc82854>@@AEAV<lambda_6ac21da2756cd333d25ba1adc9a0001e>@@V<lambda_2c95662d60720604e97e3009a1ee1859>@@@?$__crt_seh_guarded_call@X@@QEAAX$$QEAV<lambda_8773731b9ba2edf4362dda13ebc82854>@@AEAV<lambda_6ac21da2756cd333d25ba1adc9a0001e>@@$$QEAV<lambda_2c95662d60720604e97e3009a1ee1859>@@@Z@4HA 0000000180052a18     libucrtd:per_thread_data.obj
 0004:00002a24       $pdata$__acrt_update_thread_multibyte_data$fin$0 0000000180052a24     libucrtd:mbctype.obj
 0004:00002a30       $pdata$__acrt_initialize_lowio$fin$0 0000000180052a30     libucrtd:ioinit.obj
 0004:00002a3c       $pdata$raise$fin$0         0000000180052a3c     libucrtd:signal.obj
 0004:00002a48       $pdata$_VCrtDbgReportA$fin$0 0000000180052a48     libucrtd:dbgrptt.obj
 0004:00002a54       $pdata$_VCrtDbgReportA$fin$1 0000000180052a54     libucrtd:dbgrptt.obj
 0004:00002a60       $pdata$_VCrtDbgReportW$fin$0 0000000180052a60     libucrtd:dbgrptt.obj
 0004:00002a6c       $pdata$_VCrtDbgReportW$fin$1 0000000180052a6c     libucrtd:dbgrptt.obj
 0004:00002a78       $pdata$?dtor$0@?0??fp_format_a@@YAHQEBNPEAD_KQEAD2H_NIQEAU__crt_locale_pointers@@@Z@4HA 0000000180052a78     libucrtd:cvt.obj
 0004:00002a84       $pdata$_ctrlfp$filt$0      0000000180052a84     libucrtd:fpctrl.obj
 0004:00002a90       $pdata$__acrt_update_thread_locale_data$fin$0 0000000180052a90     libucrtd:locale_refcounting.obj
 0004:00002a90       $pdata$__acrt_uninitialize_locale$fin$0 0000000180052a90     libucrtd:wsetlocale.obj
 0004:00002a9c       $pdata$__acrt_lowio_ensure_fh_exists$fin$0 0000000180052a9c     libucrtd:osfinfo.obj
 0004:00002aa8       $pdata$common_flush_all$fin$0 0000000180052aa8     libucrtd:fflush.obj
 0004:00002ab4       $pdata$common_flush_all$fin$1 0000000180052ab4     libucrtd:fflush.obj
 0004:00002ac0       $pdata$?dtor$0@?0??_wcstombs_l_helper@@YA_KPEADPEB_W_KPEAU__crt_locale_pointers@@@Z@4HA 0000000180052ac0     libucrtd:wcstombs.obj
 0004:00002acc       $pdata$_fcloseall$fin$0    0000000180052acc     libucrtd:closeall.obj
 0004:00002ad8       $pdata$common_control87$filt$0 0000000180052ad8     libucrtd:ieee.obj
 0004:00002ae4       $pdata$?fin$0@?0???$?RV<lambda_4f1f1a84956f0d44b74de224c960ff76>@@AEAV<lambda_a8f98972ebaa5f7148d35bffe53bd70d>@@V<lambda_f6ca65dda28655a1cf758c1c4e38e52a>@@@?$__crt_seh_guarded_call@H@@QEAAH$$QEAV<lambda_4f1f1a84956f0d44b74de224c960ff76>@@AEAV<lambda_a8f98972ebaa5f7148d35bffe53bd70d>@@$$QEAV<lambda_f6ca65dda28655a1cf758c1c4e38e52a>@@@Z@4HA 0000000180052ae4     libucrtd:close.obj
 0004:00002ae4       $pdata$?fin$0@?0???$?RV<lambda_2ce24b26f23dade10250ef086380d911>@@AEAV<lambda_e9ab68cc08dfd839979545c079379e6e>@@V<lambda_6262c464c96e4c69799ed44814c7c457>@@@?$__crt_seh_guarded_call@H@@QEAAH$$QEAV<lambda_2ce24b26f23dade10250ef086380d911>@@AEAV<lambda_e9ab68cc08dfd839979545c079379e6e>@@$$QEAV<lambda_6262c464c96e4c69799ed44814c7c457>@@@Z@4HA 0000000180052ae4     libucrtd:commit.obj
 0004:00002af0       $pdata$_write$fin$0        0000000180052af0     libucrtd:write.obj
 0004:00002afc       $pdata$fclose$fin$0        0000000180052afc     libucrtd:fclose.obj
 0004:00002b08       $pdata$_IsNonwritableInCurrentImage$filt$0 0000000180052b08     LIBCMTD:pesect.obj
 0004:00002b14       $pdata$_CallSETranslator$filt$0 0000000180052b14     libvcruntimed:trnsctrl.obj
 0004:00002b20       $pdata$__CxxCallCatchBlock$filt$0 0000000180052b20     libvcruntimed:frame.obj
 0004:00002b2c       $pdata$__CxxCallCatchBlock$fin$1 0000000180052b2c     libvcruntimed:frame.obj
 0004:00002b38       $pdata$__DestructExceptionObject$filt$0 0000000180052b38     libvcruntimed:frame.obj
 0004:00002b44       $pdata$__FrameUnwindToState$filt$0 0000000180052b44     libvcruntimed:frame.obj
 0004:00002b50       $pdata$__FrameUnwindToState$fin$1 0000000180052b50     libvcruntimed:frame.obj
